   1               		.file	"mtpS.c"
   2               	__SP_H__ = 0x3e
   3               	__SP_L__ = 0x3d
   4               	__SREG__ = 0x3f
   5               	__tmp_reg__ = 0
   6               	__zero_reg__ = 1
   7               		.stabs	"/home/student/build-avr_linux_compiler-Desktop-Debug/",100,0,2,.Ltext0
   8               		.stabs	"/home/student/avr_src/SimulIDE_1.0.0-SR1_Lin64/mtpS/mtpS.c",100,0,2,.Ltext0
   9               		.text
  10               	.Ltext0:
  11               		.stabs	"gcc2_compiled.",60,0,0,0
  12               		.stabs	"int:t(0,1)=r(0,1);-32768;32767;",128,0,0,0
  13               		.stabs	"char:t(0,2)=r(0,2);0;127;",128,0,0,0
  14               		.stabs	"long int:t(0,3)=@s32;r(0,3);020000000000;017777777777;",128,0,0,0
  15               		.stabs	"unsigned int:t(0,4)=r(0,4);0;0177777;",128,0,0,0
  16               		.stabs	"long unsigned int:t(0,5)=@s32;r(0,5);0;037777777777;",128,0,0,0
  17               		.stabs	"__int128:t(0,6)=@s128;r(0,6);02000000000000000000000000000000000000000000;0177777777777777
  18               		.stabs	"__int128 unsigned:t(0,7)=@s128;r(0,7);0;03777777777777777777777777777777777777777777;",128
  19               		.stabs	"long long int:t(0,8)=@s64;r(0,8);01000000000000000000000;00777777777777777777777;",128,0,0
  20               		.stabs	"long long unsigned int:t(0,9)=@s64;r(0,9);0;01777777777777777777777;",128,0,0,0
  21               		.stabs	"short int:t(0,10)=r(0,10);-32768;32767;",128,0,0,0
  22               		.stabs	"short unsigned int:t(0,11)=r(0,11);0;0177777;",128,0,0,0
  23               		.stabs	"signed char:t(0,12)=@s8;r(0,12);-128;127;",128,0,0,0
  24               		.stabs	"unsigned char:t(0,13)=@s8;r(0,13);0;255;",128,0,0,0
  25               		.stabs	"float:t(0,14)=r(0,1);4;0;",128,0,0,0
  26               		.stabs	"double:t(0,15)=r(0,1);4;0;",128,0,0,0
  27               		.stabs	"long double:t(0,16)=r(0,1);4;0;",128,0,0,0
  28               		.stabs	"short _Fract:t(0,17)=r(0,1);1;0;",128,0,0,0
  29               		.stabs	"_Fract:t(0,18)=r(0,1);2;0;",128,0,0,0
  30               		.stabs	"long _Fract:t(0,19)=r(0,1);4;0;",128,0,0,0
  31               		.stabs	"long long _Fract:t(0,20)=r(0,1);8;0;",128,0,0,0
  32               		.stabs	"unsigned short _Fract:t(0,21)=r(0,1);1;0;",128,0,0,0
  33               		.stabs	"unsigned _Fract:t(0,22)=r(0,1);2;0;",128,0,0,0
  34               		.stabs	"unsigned long _Fract:t(0,23)=r(0,1);4;0;",128,0,0,0
  35               		.stabs	"unsigned long long _Fract:t(0,24)=r(0,1);8;0;",128,0,0,0
  36               		.stabs	"_Sat short _Fract:t(0,25)=r(0,1);1;0;",128,0,0,0
  37               		.stabs	"_Sat _Fract:t(0,26)=r(0,1);2;0;",128,0,0,0
  38               		.stabs	"_Sat long _Fract:t(0,27)=r(0,1);4;0;",128,0,0,0
  39               		.stabs	"_Sat long long _Fract:t(0,28)=r(0,1);8;0;",128,0,0,0
  40               		.stabs	"_Sat unsigned short _Fract:t(0,29)=r(0,1);1;0;",128,0,0,0
  41               		.stabs	"_Sat unsigned _Fract:t(0,30)=r(0,1);2;0;",128,0,0,0
  42               		.stabs	"_Sat unsigned long _Fract:t(0,31)=r(0,1);4;0;",128,0,0,0
  43               		.stabs	"_Sat unsigned long long _Fract:t(0,32)=r(0,1);8;0;",128,0,0,0
  44               		.stabs	"short _Accum:t(0,33)=r(0,1);2;0;",128,0,0,0
  45               		.stabs	"_Accum:t(0,34)=r(0,1);4;0;",128,0,0,0
  46               		.stabs	"long _Accum:t(0,35)=r(0,1);8;0;",128,0,0,0
  47               		.stabs	"long long _Accum:t(0,36)=r(0,1);8;0;",128,0,0,0
  48               		.stabs	"unsigned short _Accum:t(0,37)=r(0,1);2;0;",128,0,0,0
  49               		.stabs	"unsigned _Accum:t(0,38)=r(0,1);4;0;",128,0,0,0
  50               		.stabs	"unsigned long _Accum:t(0,39)=r(0,1);8;0;",128,0,0,0
  51               		.stabs	"unsigned long long _Accum:t(0,40)=r(0,1);8;0;",128,0,0,0
  52               		.stabs	"_Sat short _Accum:t(0,41)=r(0,1);2;0;",128,0,0,0
  53               		.stabs	"_Sat _Accum:t(0,42)=r(0,1);4;0;",128,0,0,0
  54               		.stabs	"_Sat long _Accum:t(0,43)=r(0,1);8;0;",128,0,0,0
  55               		.stabs	"_Sat long long _Accum:t(0,44)=r(0,1);8;0;",128,0,0,0
  56               		.stabs	"_Sat unsigned short _Accum:t(0,45)=r(0,1);2;0;",128,0,0,0
  57               		.stabs	"_Sat unsigned _Accum:t(0,46)=r(0,1);4;0;",128,0,0,0
  58               		.stabs	"_Sat unsigned long _Accum:t(0,47)=r(0,1);8;0;",128,0,0,0
  59               		.stabs	"_Sat unsigned long long _Accum:t(0,48)=r(0,1);8;0;",128,0,0,0
  60               		.stabs	"void:t(0,49)=(0,49)",128,0,0,0
  61               		.stabs	"/usr/lib/avr/include/avr/io.h",130,0,0,0
  62               		.stabs	"/usr/lib/avr/include/avr/sfr_defs.h",130,0,0,0
  63               		.stabs	"/usr/lib/avr/include/inttypes.h",130,0,0,0
  64               		.stabs	"/usr/lib/gcc/avr/5.4.0/include/stdint.h",130,0,0,0
  65               		.stabs	"/usr/lib/avr/include/stdint.h",130,0,0,0
  66               		.stabs	"int8_t:t(5,1)=(0,12)",128,0,125,0
  67               		.stabs	"uint8_t:t(5,2)=(0,13)",128,0,126,0
  68               		.stabs	"int16_t:t(5,3)=(0,1)",128,0,127,0
  69               		.stabs	"uint16_t:t(5,4)=(0,4)",128,0,128,0
  70               		.stabs	"int32_t:t(5,5)=(0,3)",128,0,129,0
  71               		.stabs	"uint32_t:t(5,6)=(0,5)",128,0,130,0
  72               		.stabs	"int64_t:t(5,7)=(0,8)",128,0,132,0
  73               		.stabs	"uint64_t:t(5,8)=(0,9)",128,0,133,0
  74               		.stabs	"intptr_t:t(5,9)=(5,3)",128,0,146,0
  75               		.stabs	"uintptr_t:t(5,10)=(5,4)",128,0,151,0
  76               		.stabs	"int_least8_t:t(5,11)=(5,1)",128,0,163,0
  77               		.stabs	"uint_least8_t:t(5,12)=(5,2)",128,0,168,0
  78               		.stabs	"int_least16_t:t(5,13)=(5,3)",128,0,173,0
  79               		.stabs	"uint_least16_t:t(5,14)=(5,4)",128,0,178,0
  80               		.stabs	"int_least32_t:t(5,15)=(5,5)",128,0,183,0
  81               		.stabs	"uint_least32_t:t(5,16)=(5,6)",128,0,188,0
  82               		.stabs	"int_least64_t:t(5,17)=(5,7)",128,0,196,0
  83               		.stabs	"uint_least64_t:t(5,18)=(5,8)",128,0,203,0
  84               		.stabs	"int_fast8_t:t(5,19)=(5,1)",128,0,217,0
  85               		.stabs	"uint_fast8_t:t(5,20)=(5,2)",128,0,222,0
  86               		.stabs	"int_fast16_t:t(5,21)=(5,3)",128,0,227,0
  87               		.stabs	"uint_fast16_t:t(5,22)=(5,4)",128,0,232,0
  88               		.stabs	"int_fast32_t:t(5,23)=(5,5)",128,0,237,0
  89               		.stabs	"uint_fast32_t:t(5,24)=(5,6)",128,0,242,0
  90               		.stabs	"int_fast64_t:t(5,25)=(5,7)",128,0,250,0
  91               		.stabs	"uint_fast64_t:t(5,26)=(5,8)",128,0,257,0
  92               		.stabs	"intmax_t:t(5,27)=(5,7)",128,0,277,0
  93               		.stabs	"uintmax_t:t(5,28)=(5,8)",128,0,282,0
  94               		.stabn	162,0,0,0
  95               		.stabn	162,0,0,0
  96               		.stabs	"int_farptr_t:t(3,1)=(5,5)",128,0,77,0
  97               		.stabs	"uint_farptr_t:t(3,2)=(5,6)",128,0,81,0
  98               		.stabn	162,0,0,0
  99               		.stabn	162,0,0,0
 100               		.stabs	"/usr/lib/avr/include/avr/fuse.h",130,0,0,0
 101               		.stabs	"__fuse_t:t(6,1)=(6,2)=s3low:(0,13),0,8;high:(0,13),8,8;extended:(0,13),16,8;;",128,0,244,0
 102               		.stabn	162,0,0,0
 103               		.stabn	162,0,0,0
 104               		.stabs	"Timer1_init:F(0,49)",36,0,107,Timer1_init
 105               	.global	Timer1_init
 106               		.type	Timer1_init, @function
 107               	Timer1_init:
 108               		.stabd	46,0,0
   1:/home/student/avr_src/SimulIDE_1.0.0-SR1_Lin64/mtpS/mtpS.c **** #ifndef F_CPU
   2:/home/student/avr_src/SimulIDE_1.0.0-SR1_Lin64/mtpS/mtpS.c **** #define F_CPU 16000000UL // or whatever may be your frequency
   3:/home/student/avr_src/SimulIDE_1.0.0-SR1_Lin64/mtpS/mtpS.c **** #endif
   4:/home/student/avr_src/SimulIDE_1.0.0-SR1_Lin64/mtpS/mtpS.c **** //====================================================
   5:/home/student/avr_src/SimulIDE_1.0.0-SR1_Lin64/mtpS/mtpS.c **** #define Btn1 2
   6:/home/student/avr_src/SimulIDE_1.0.0-SR1_Lin64/mtpS/mtpS.c **** #define RED 0
   7:/home/student/avr_src/SimulIDE_1.0.0-SR1_Lin64/mtpS/mtpS.c **** #define BLUE 1
   8:/home/student/avr_src/SimulIDE_1.0.0-SR1_Lin64/mtpS/mtpS.c **** #define GREEN 2
   9:/home/student/avr_src/SimulIDE_1.0.0-SR1_Lin64/mtpS/mtpS.c **** #include <avr/io.h>
  10:/home/student/avr_src/SimulIDE_1.0.0-SR1_Lin64/mtpS/mtpS.c **** #include <util/delay.h>
  11:/home/student/avr_src/SimulIDE_1.0.0-SR1_Lin64/mtpS/mtpS.c **** #include <avr/interrupt.h>
  12:/home/student/avr_src/SimulIDE_1.0.0-SR1_Lin64/mtpS/mtpS.c **** //====================================================
  13:/home/student/avr_src/SimulIDE_1.0.0-SR1_Lin64/mtpS/mtpS.c **** #define AT24CxxPORT PORTB
  14:/home/student/avr_src/SimulIDE_1.0.0-SR1_Lin64/mtpS/mtpS.c **** #define AT24CxxDDR DDRB
  15:/home/student/avr_src/SimulIDE_1.0.0-SR1_Lin64/mtpS/mtpS.c **** #define AT24CxxPIN PINB
  16:/home/student/avr_src/SimulIDE_1.0.0-SR1_Lin64/mtpS/mtpS.c **** #define AT24Cxx_SCL 0b00100000
  17:/home/student/avr_src/SimulIDE_1.0.0-SR1_Lin64/mtpS/mtpS.c **** #define AT24Cxx_SDA 0b00010000
  18:/home/student/avr_src/SimulIDE_1.0.0-SR1_Lin64/mtpS/mtpS.c **** #define E_BIT 0x04 //location of E BIT
  19:/home/student/avr_src/SimulIDE_1.0.0-SR1_Lin64/mtpS/mtpS.c **** #define B_BIT 0x08 //location of bright
  20:/home/student/avr_src/SimulIDE_1.0.0-SR1_Lin64/mtpS/mtpS.c **** #define I2CLCD_ADDR 0x27
  21:/home/student/avr_src/SimulIDE_1.0.0-SR1_Lin64/mtpS/mtpS.c **** #define AT24Cxx_DELAY 1
  22:/home/student/avr_src/SimulIDE_1.0.0-SR1_Lin64/mtpS/mtpS.c **** #define ACK 0x00 // ACK LOW
  23:/home/student/avr_src/SimulIDE_1.0.0-SR1_Lin64/mtpS/mtpS.c **** #define NACK 0x01 // NACK HIGH
  24:/home/student/avr_src/SimulIDE_1.0.0-SR1_Lin64/mtpS/mtpS.c **** #define EEP_WRITE_WAIT 10 // write wait time
  25:/home/student/avr_src/SimulIDE_1.0.0-SR1_Lin64/mtpS/mtpS.c **** #define AT24Cxx_SDA_HIGH() (AT24CxxPORT |= AT24Cxx_SDA)
  26:/home/student/avr_src/SimulIDE_1.0.0-SR1_Lin64/mtpS/mtpS.c **** #define AT24Cxx_SDA_LOW() (AT24CxxPORT &= ~AT24Cxx_SDA)
  27:/home/student/avr_src/SimulIDE_1.0.0-SR1_Lin64/mtpS/mtpS.c **** #define AT24Cxx_SCL_HIGH() (AT24CxxPORT |= AT24Cxx_SCL)
  28:/home/student/avr_src/SimulIDE_1.0.0-SR1_Lin64/mtpS/mtpS.c **** #define AT24Cxx_SCL_LOW() (AT24CxxPORT &= ~(AT24Cxx_SCL))
  29:/home/student/avr_src/SimulIDE_1.0.0-SR1_Lin64/mtpS/mtpS.c **** #define AT24Cxx_SDA_IN() (AT24CxxDDR &= ~AT24Cxx_SDA)
  30:/home/student/avr_src/SimulIDE_1.0.0-SR1_Lin64/mtpS/mtpS.c **** #define AT24Cxx_SDA_OUT() (AT24CxxDDR |= AT24Cxx_SDA)
  31:/home/student/avr_src/SimulIDE_1.0.0-SR1_Lin64/mtpS/mtpS.c **** #define wait_for_completion while(!(TWCR & (1 << TWINT)));
  32:/home/student/avr_src/SimulIDE_1.0.0-SR1_Lin64/mtpS/mtpS.c **** //====================================================
  33:/home/student/avr_src/SimulIDE_1.0.0-SR1_Lin64/mtpS/mtpS.c **** volatile unsigned char job = 0;
  34:/home/student/avr_src/SimulIDE_1.0.0-SR1_Lin64/mtpS/mtpS.c **** volatile unsigned char lcd_flag = 0;
  35:/home/student/avr_src/SimulIDE_1.0.0-SR1_Lin64/mtpS/mtpS.c **** volatile unsigned char addr = 0;
  36:/home/student/avr_src/SimulIDE_1.0.0-SR1_Lin64/mtpS/mtpS.c **** volatile unsigned char key_flag = 0;
  37:/home/student/avr_src/SimulIDE_1.0.0-SR1_Lin64/mtpS/mtpS.c **** volatile unsigned char new_key = 0;
  38:/home/student/avr_src/SimulIDE_1.0.0-SR1_Lin64/mtpS/mtpS.c **** volatile unsigned char key_data = 0;
  39:/home/student/avr_src/SimulIDE_1.0.0-SR1_Lin64/mtpS/mtpS.c **** volatile unsigned char pressing_flag = 0;
  40:/home/student/avr_src/SimulIDE_1.0.0-SR1_Lin64/mtpS/mtpS.c **** volatile unsigned char keyNum = 0;
  41:/home/student/avr_src/SimulIDE_1.0.0-SR1_Lin64/mtpS/mtpS.c **** volatile unsigned char current_key = 0;
  42:/home/student/avr_src/SimulIDE_1.0.0-SR1_Lin64/mtpS/mtpS.c **** volatile unsigned char old_key;
  43:/home/student/avr_src/SimulIDE_1.0.0-SR1_Lin64/mtpS/mtpS.c **** volatile unsigned char flag_time = 0;
  44:/home/student/avr_src/SimulIDE_1.0.0-SR1_Lin64/mtpS/mtpS.c **** volatile unsigned char Wait_time = 0;
  45:/home/student/avr_src/SimulIDE_1.0.0-SR1_Lin64/mtpS/mtpS.c **** volatile unsigned char digit[3];
  46:/home/student/avr_src/SimulIDE_1.0.0-SR1_Lin64/mtpS/mtpS.c **** volatile unsigned char ASCII_Table[16] = {'0','1','2','3','4','5','6','7','8','9','A','B','C','D','
  47:/home/student/avr_src/SimulIDE_1.0.0-SR1_Lin64/mtpS/mtpS.c **** //====================================================
  48:/home/student/avr_src/SimulIDE_1.0.0-SR1_Lin64/mtpS/mtpS.c **** void Timer0_init();
  49:/home/student/avr_src/SimulIDE_1.0.0-SR1_Lin64/mtpS/mtpS.c **** void Timer1_init();
  50:/home/student/avr_src/SimulIDE_1.0.0-SR1_Lin64/mtpS/mtpS.c **** void Port_init();
  51:/home/student/avr_src/SimulIDE_1.0.0-SR1_Lin64/mtpS/mtpS.c **** void USART_init();
  52:/home/student/avr_src/SimulIDE_1.0.0-SR1_Lin64/mtpS/mtpS.c **** void setup_watchdog();
  53:/home/student/avr_src/SimulIDE_1.0.0-SR1_Lin64/mtpS/mtpS.c **** //====================================================
  54:/home/student/avr_src/SimulIDE_1.0.0-SR1_Lin64/mtpS/mtpS.c **** unsigned char key_scan(void);
  55:/home/student/avr_src/SimulIDE_1.0.0-SR1_Lin64/mtpS/mtpS.c **** unsigned char key_analysis(unsigned char key, unsigned char Raw);
  56:/home/student/avr_src/SimulIDE_1.0.0-SR1_Lin64/mtpS/mtpS.c **** unsigned char read_AT24Cxx_i2c_byte(void);
  57:/home/student/avr_src/SimulIDE_1.0.0-SR1_Lin64/mtpS/mtpS.c **** unsigned char AT24Cxx_Read(unsigned char address, unsigned char sub_addr1, unsigned char sub_addr2)
  58:/home/student/avr_src/SimulIDE_1.0.0-SR1_Lin64/mtpS/mtpS.c **** void LCD_clear(void);
  59:/home/student/avr_src/SimulIDE_1.0.0-SR1_Lin64/mtpS/mtpS.c **** void LED_ON(void);
  60:/home/student/avr_src/SimulIDE_1.0.0-SR1_Lin64/mtpS/mtpS.c **** void LED_OFF(void);
  61:/home/student/avr_src/SimulIDE_1.0.0-SR1_Lin64/mtpS/mtpS.c **** void LCD_CharWrite(uint16_t byte);
  62:/home/student/avr_src/SimulIDE_1.0.0-SR1_Lin64/mtpS/mtpS.c **** void Tx_char(unsigned char data);
  63:/home/student/avr_src/SimulIDE_1.0.0-SR1_Lin64/mtpS/mtpS.c **** void AT24Cxx_i2c_init(void);
  64:/home/student/avr_src/SimulIDE_1.0.0-SR1_Lin64/mtpS/mtpS.c **** void AT24Cxx_i2c_start(void);
  65:/home/student/avr_src/SimulIDE_1.0.0-SR1_Lin64/mtpS/mtpS.c **** void AT24Cxx_ACK_send(unsigned char ack_data);
  66:/home/student/avr_src/SimulIDE_1.0.0-SR1_Lin64/mtpS/mtpS.c **** void AT24Cxx_i2c_stop(void);
  67:/home/student/avr_src/SimulIDE_1.0.0-SR1_Lin64/mtpS/mtpS.c **** void write_AT24Cxx_i2c_byte(unsigned char byte);
  68:/home/student/avr_src/SimulIDE_1.0.0-SR1_Lin64/mtpS/mtpS.c **** void write_AT24Cxx_i2cControl(unsigned char byte);
  69:/home/student/avr_src/SimulIDE_1.0.0-SR1_Lin64/mtpS/mtpS.c **** void LCD_Write(unsigned char byte);
  70:/home/student/avr_src/SimulIDE_1.0.0-SR1_Lin64/mtpS/mtpS.c **** void send_EFalling_edge(unsigned char byte);
  71:/home/student/avr_src/SimulIDE_1.0.0-SR1_Lin64/mtpS/mtpS.c **** void write_AT24Cxx_i2c_LCDPrint(unsigned char line, unsigned char location, unsigned char data);
  72:/home/student/avr_src/SimulIDE_1.0.0-SR1_Lin64/mtpS/mtpS.c **** void write_AT24Cxx_i2c_LCDAddressing(unsigned char byte);
  73:/home/student/avr_src/SimulIDE_1.0.0-SR1_Lin64/mtpS/mtpS.c **** void LCD_NEBIT(unsigned char byte);
  74:/home/student/avr_src/SimulIDE_1.0.0-SR1_Lin64/mtpS/mtpS.c **** void I2C_LCD_init(unsigned char data);
  75:/home/student/avr_src/SimulIDE_1.0.0-SR1_Lin64/mtpS/mtpS.c **** uint16_t num2lcdbyte(unsigned char num);
  76:/home/student/avr_src/SimulIDE_1.0.0-SR1_Lin64/mtpS/mtpS.c **** //====================================================
  77:/home/student/avr_src/SimulIDE_1.0.0-SR1_Lin64/mtpS/mtpS.c **** int main(void){
  78:/home/student/avr_src/SimulIDE_1.0.0-SR1_Lin64/mtpS/mtpS.c **** 	
  79:/home/student/avr_src/SimulIDE_1.0.0-SR1_Lin64/mtpS/mtpS.c ****     //setup_watchdog();
  80:/home/student/avr_src/SimulIDE_1.0.0-SR1_Lin64/mtpS/mtpS.c **** 	sei(); //must be first position
  81:/home/student/avr_src/SimulIDE_1.0.0-SR1_Lin64/mtpS/mtpS.c ****     Port_init();
  82:/home/student/avr_src/SimulIDE_1.0.0-SR1_Lin64/mtpS/mtpS.c ****     USART_init();
  83:/home/student/avr_src/SimulIDE_1.0.0-SR1_Lin64/mtpS/mtpS.c **** 	//Timer0_init();
  84:/home/student/avr_src/SimulIDE_1.0.0-SR1_Lin64/mtpS/mtpS.c **** 	Timer1_init();
  85:/home/student/avr_src/SimulIDE_1.0.0-SR1_Lin64/mtpS/mtpS.c ****     
  86:/home/student/avr_src/SimulIDE_1.0.0-SR1_Lin64/mtpS/mtpS.c **** 
  87:/home/student/avr_src/SimulIDE_1.0.0-SR1_Lin64/mtpS/mtpS.c **** 	//EICRA = 0x03;
  88:/home/student/avr_src/SimulIDE_1.0.0-SR1_Lin64/mtpS/mtpS.c **** 	//EIMSK = (1 << INT0);
  89:/home/student/avr_src/SimulIDE_1.0.0-SR1_Lin64/mtpS/mtpS.c **** 
  90:/home/student/avr_src/SimulIDE_1.0.0-SR1_Lin64/mtpS/mtpS.c **** 	while(1){
  91:/home/student/avr_src/SimulIDE_1.0.0-SR1_Lin64/mtpS/mtpS.c **** 		
  92:/home/student/avr_src/SimulIDE_1.0.0-SR1_Lin64/mtpS/mtpS.c ****     }
  93:/home/student/avr_src/SimulIDE_1.0.0-SR1_Lin64/mtpS/mtpS.c **** }
  94:/home/student/avr_src/SimulIDE_1.0.0-SR1_Lin64/mtpS/mtpS.c **** //====================================================
  95:/home/student/avr_src/SimulIDE_1.0.0-SR1_Lin64/mtpS/mtpS.c **** 
  96:/home/student/avr_src/SimulIDE_1.0.0-SR1_Lin64/mtpS/mtpS.c **** 
  97:/home/student/avr_src/SimulIDE_1.0.0-SR1_Lin64/mtpS/mtpS.c **** 
  98:/home/student/avr_src/SimulIDE_1.0.0-SR1_Lin64/mtpS/mtpS.c **** // void setup_watchdog() {
  99:/home/student/avr_src/SimulIDE_1.0.0-SR1_Lin64/mtpS/mtpS.c **** //   // WDTCSR: Watchdog Timer Control Register
 100:/home/student/avr_src/SimulIDE_1.0.0-SR1_Lin64/mtpS/mtpS.c **** //   // WDCE (Watchdog Change Enable)
 101:/home/student/avr_src/SimulIDE_1.0.0-SR1_Lin64/mtpS/mtpS.c **** //   // WDTO_1S: Watchdog Timeout 
 102:/home/student/avr_src/SimulIDE_1.0.0-SR1_Lin64/mtpS/mtpS.c **** //   WDTCSR |= (1<<WDE) | (1<<WDCE) | (1<<WDIE) | (1<<WDP3) | (1<<WDP2) | (1<<WDP1) | (0<<WDP0); 
 103:/home/student/avr_src/SimulIDE_1.0.0-SR1_Lin64/mtpS/mtpS.c **** // }  
 104:/home/student/avr_src/SimulIDE_1.0.0-SR1_Lin64/mtpS/mtpS.c **** //===================================================
 105:/home/student/avr_src/SimulIDE_1.0.0-SR1_Lin64/mtpS/mtpS.c **** 
 106:/home/student/avr_src/SimulIDE_1.0.0-SR1_Lin64/mtpS/mtpS.c **** 
 107:/home/student/avr_src/SimulIDE_1.0.0-SR1_Lin64/mtpS/mtpS.c **** void Timer1_init(){
 109               		.stabn	68,0,107,.LM0-.LFBB1
 110               	.LM0:
 111               	.LFBB1:
 112               	/* prologue: function */
 113               	/* frame size = 0 */
 114               	/* stack size = 0 */
 115               	.L__stack_usage = 0
 108:/home/student/avr_src/SimulIDE_1.0.0-SR1_Lin64/mtpS/mtpS.c **** 
 109:/home/student/avr_src/SimulIDE_1.0.0-SR1_Lin64/mtpS/mtpS.c ****     TCCR1B =  (1 << WGM12) | (0 << CS12) | (1 << CS11) | (1 << CS10);
 116               		.stabn	68,0,109,.LM1-.LFBB1
 117               	.LM1:
 118 0000 8BE0      		ldi r24,lo8(11)
 119 0002 8093 8100 		sts 129,r24
 110:/home/student/avr_src/SimulIDE_1.0.0-SR1_Lin64/mtpS/mtpS.c **** 	TCNT1 = 0;
 120               		.stabn	68,0,110,.LM2-.LFBB1
 121               	.LM2:
 122 0006 1092 8500 		sts 132+1,__zero_reg__
 123 000a 1092 8400 		sts 132,__zero_reg__
 111:/home/student/avr_src/SimulIDE_1.0.0-SR1_Lin64/mtpS/mtpS.c ****     OCR1A = 0x09c4; 
 124               		.stabn	68,0,111,.LM3-.LFBB1
 125               	.LM3:
 126 000e 84EC      		ldi r24,lo8(-60)
 127 0010 99E0      		ldi r25,lo8(9)
 128 0012 9093 8900 		sts 136+1,r25
 129 0016 8093 8800 		sts 136,r24
 112:/home/student/avr_src/SimulIDE_1.0.0-SR1_Lin64/mtpS/mtpS.c ****     TIMSK1 |= (1 << TOIE1) | (1 << OCIE1A);
 130               		.stabn	68,0,112,.LM4-.LFBB1
 131               	.LM4:
 132 001a EFE6      		ldi r30,lo8(111)
 133 001c F0E0      		ldi r31,0
 134 001e 8081      		ld r24,Z
 135 0020 8360      		ori r24,lo8(3)
 136 0022 8083      		st Z,r24
 137 0024 0895      		ret
 138               		.size	Timer1_init, .-Timer1_init
 139               	.Lscope1:
 140               		.stabs	"",36,0,0,.Lscope1-.LFBB1
 141               		.stabd	78,0,0
 142               		.stabs	"Port_init:F(0,49)",36,0,123,Port_init
 143               	.global	Port_init
 144               		.type	Port_init, @function
 145               	Port_init:
 146               		.stabd	46,0,0
 113:/home/student/avr_src/SimulIDE_1.0.0-SR1_Lin64/mtpS/mtpS.c **** }
 114:/home/student/avr_src/SimulIDE_1.0.0-SR1_Lin64/mtpS/mtpS.c **** 
 115:/home/student/avr_src/SimulIDE_1.0.0-SR1_Lin64/mtpS/mtpS.c **** // void Timer0_init(){
 116:/home/student/avr_src/SimulIDE_1.0.0-SR1_Lin64/mtpS/mtpS.c **** 
 117:/home/student/avr_src/SimulIDE_1.0.0-SR1_Lin64/mtpS/mtpS.c **** //     TCCR0B =  (1 << WGM02) | (0 << CS02) | (1 << CS01) | (0 << CS00);
 118:/home/student/avr_src/SimulIDE_1.0.0-SR1_Lin64/mtpS/mtpS.c **** // 	TCNT0 = 0;
 119:/home/student/avr_src/SimulIDE_1.0.0-SR1_Lin64/mtpS/mtpS.c **** //     OCR0A = 0x09c4; 
 120:/home/student/avr_src/SimulIDE_1.0.0-SR1_Lin64/mtpS/mtpS.c **** //     TIMSK0 |= (1 << TOIE0) | (1 << OCIE0A);
 121:/home/student/avr_src/SimulIDE_1.0.0-SR1_Lin64/mtpS/mtpS.c **** // }
 122:/home/student/avr_src/SimulIDE_1.0.0-SR1_Lin64/mtpS/mtpS.c **** 
 123:/home/student/avr_src/SimulIDE_1.0.0-SR1_Lin64/mtpS/mtpS.c **** void Port_init(){
 147               		.stabn	68,0,123,.LM5-.LFBB2
 148               	.LM5:
 149               	.LFBB2:
 150               	/* prologue: function */
 151               	/* frame size = 0 */
 152               	/* stack size = 0 */
 153               	.L__stack_usage = 0
 124:/home/student/avr_src/SimulIDE_1.0.0-SR1_Lin64/mtpS/mtpS.c **** 
 125:/home/student/avr_src/SimulIDE_1.0.0-SR1_Lin64/mtpS/mtpS.c ****     //set B0~D4 as input,  D5, D6, D7 pins are set high to find key vals 
 126:/home/student/avr_src/SimulIDE_1.0.0-SR1_Lin64/mtpS/mtpS.c ****     DDRD = 0b01110000;
 154               		.stabn	68,0,126,.LM6-.LFBB2
 155               	.LM6:
 156 0026 80E7      		ldi r24,lo8(112)
 157 0028 8AB9      		out 0xa,r24
 127:/home/student/avr_src/SimulIDE_1.0.0-SR1_Lin64/mtpS/mtpS.c ****     PORTD = 0b00000000;
 158               		.stabn	68,0,127,.LM7-.LFBB2
 159               	.LM7:
 160 002a 1BB8      		out 0xb,__zero_reg__
 128:/home/student/avr_src/SimulIDE_1.0.0-SR1_Lin64/mtpS/mtpS.c ****     DDRB = 0b00110000;
 161               		.stabn	68,0,128,.LM8-.LFBB2
 162               	.LM8:
 163 002c 80E3      		ldi r24,lo8(48)
 164 002e 84B9      		out 0x4,r24
 165 0030 0895      		ret
 166               		.size	Port_init, .-Port_init
 167               	.Lscope2:
 168               		.stabs	"",36,0,0,.Lscope2-.LFBB2
 169               		.stabd	78,0,0
 170               		.stabs	"LED_ON:F(0,49)",36,0,171,LED_ON
 171               	.global	LED_ON
 172               		.type	LED_ON, @function
 173               	LED_ON:
 174               		.stabd	46,0,0
 129:/home/student/avr_src/SimulIDE_1.0.0-SR1_Lin64/mtpS/mtpS.c **** 
 130:/home/student/avr_src/SimulIDE_1.0.0-SR1_Lin64/mtpS/mtpS.c **** 
 131:/home/student/avr_src/SimulIDE_1.0.0-SR1_Lin64/mtpS/mtpS.c **** }
 132:/home/student/avr_src/SimulIDE_1.0.0-SR1_Lin64/mtpS/mtpS.c **** void I2C_LCD_init(unsigned char address){
 133:/home/student/avr_src/SimulIDE_1.0.0-SR1_Lin64/mtpS/mtpS.c **** 	cli();
 134:/home/student/avr_src/SimulIDE_1.0.0-SR1_Lin64/mtpS/mtpS.c **** 
 135:/home/student/avr_src/SimulIDE_1.0.0-SR1_Lin64/mtpS/mtpS.c **** 	PORTC ^= 0xff;
 136:/home/student/avr_src/SimulIDE_1.0.0-SR1_Lin64/mtpS/mtpS.c **** 	_delay_ms(18);
 137:/home/student/avr_src/SimulIDE_1.0.0-SR1_Lin64/mtpS/mtpS.c **** 	AT24Cxx_i2c_start();
 138:/home/student/avr_src/SimulIDE_1.0.0-SR1_Lin64/mtpS/mtpS.c **** 	write_AT24Cxx_i2c_LCDAddressing(I2CLCD_ADDR  << 1); //write mode
 139:/home/student/avr_src/SimulIDE_1.0.0-SR1_Lin64/mtpS/mtpS.c **** 	LCD_Write(0x20);
 140:/home/student/avr_src/SimulIDE_1.0.0-SR1_Lin64/mtpS/mtpS.c **** 	_delay_ms(5);
 141:/home/student/avr_src/SimulIDE_1.0.0-SR1_Lin64/mtpS/mtpS.c **** 	write_AT24Cxx_i2c_LCDAddressing(0x20);
 142:/home/student/avr_src/SimulIDE_1.0.0-SR1_Lin64/mtpS/mtpS.c **** 	_delay_ms(5);
 143:/home/student/avr_src/SimulIDE_1.0.0-SR1_Lin64/mtpS/mtpS.c **** 
 144:/home/student/avr_src/SimulIDE_1.0.0-SR1_Lin64/mtpS/mtpS.c **** 	write_AT24Cxx_i2c_LCDAddressing(0x30);
 145:/home/student/avr_src/SimulIDE_1.0.0-SR1_Lin64/mtpS/mtpS.c **** 	LCD_Write(0x00);
 146:/home/student/avr_src/SimulIDE_1.0.0-SR1_Lin64/mtpS/mtpS.c **** 	_delay_ms(5);
 147:/home/student/avr_src/SimulIDE_1.0.0-SR1_Lin64/mtpS/mtpS.c **** 
 148:/home/student/avr_src/SimulIDE_1.0.0-SR1_Lin64/mtpS/mtpS.c **** 	LCD_Write(0x00);
 149:/home/student/avr_src/SimulIDE_1.0.0-SR1_Lin64/mtpS/mtpS.c **** 	write_AT24Cxx_i2c_LCDAddressing(0x00);
 150:/home/student/avr_src/SimulIDE_1.0.0-SR1_Lin64/mtpS/mtpS.c ****     _delay_ms(5);
 151:/home/student/avr_src/SimulIDE_1.0.0-SR1_Lin64/mtpS/mtpS.c **** 
 152:/home/student/avr_src/SimulIDE_1.0.0-SR1_Lin64/mtpS/mtpS.c **** 	LCD_Write(0xE0);
 153:/home/student/avr_src/SimulIDE_1.0.0-SR1_Lin64/mtpS/mtpS.c **** 	write_AT24Cxx_i2c_LCDAddressing(0xE0);
 154:/home/student/avr_src/SimulIDE_1.0.0-SR1_Lin64/mtpS/mtpS.c **** 	_delay_ms(5);
 155:/home/student/avr_src/SimulIDE_1.0.0-SR1_Lin64/mtpS/mtpS.c **** 
 156:/home/student/avr_src/SimulIDE_1.0.0-SR1_Lin64/mtpS/mtpS.c **** 	LCD_Write(0x00);
 157:/home/student/avr_src/SimulIDE_1.0.0-SR1_Lin64/mtpS/mtpS.c **** 	write_AT24Cxx_i2c_LCDAddressing(0x00);
 158:/home/student/avr_src/SimulIDE_1.0.0-SR1_Lin64/mtpS/mtpS.c **** 	_delay_ms(5);
 159:/home/student/avr_src/SimulIDE_1.0.0-SR1_Lin64/mtpS/mtpS.c **** 
 160:/home/student/avr_src/SimulIDE_1.0.0-SR1_Lin64/mtpS/mtpS.c **** 	LCD_Write(0x60);
 161:/home/student/avr_src/SimulIDE_1.0.0-SR1_Lin64/mtpS/mtpS.c **** 	write_AT24Cxx_i2c_LCDAddressing(0x60);
 162:/home/student/avr_src/SimulIDE_1.0.0-SR1_Lin64/mtpS/mtpS.c **** 	_delay_ms(5);
 163:/home/student/avr_src/SimulIDE_1.0.0-SR1_Lin64/mtpS/mtpS.c **** 	AT24Cxx_i2c_stop();
 164:/home/student/avr_src/SimulIDE_1.0.0-SR1_Lin64/mtpS/mtpS.c **** 	PORTC ^= 0xff;
 165:/home/student/avr_src/SimulIDE_1.0.0-SR1_Lin64/mtpS/mtpS.c **** 	sei();
 166:/home/student/avr_src/SimulIDE_1.0.0-SR1_Lin64/mtpS/mtpS.c **** 	
 167:/home/student/avr_src/SimulIDE_1.0.0-SR1_Lin64/mtpS/mtpS.c **** 	
 168:/home/student/avr_src/SimulIDE_1.0.0-SR1_Lin64/mtpS/mtpS.c **** 	
 169:/home/student/avr_src/SimulIDE_1.0.0-SR1_Lin64/mtpS/mtpS.c **** }
 170:/home/student/avr_src/SimulIDE_1.0.0-SR1_Lin64/mtpS/mtpS.c **** //====================================================
 171:/home/student/avr_src/SimulIDE_1.0.0-SR1_Lin64/mtpS/mtpS.c **** void LED_ON(){
 175               		.stabn	68,0,171,.LM9-.LFBB3
 176               	.LM9:
 177               	.LFBB3:
 178               	/* prologue: function */
 179               	/* frame size = 0 */
 180               	/* stack size = 0 */
 181               	.L__stack_usage = 0
 172:/home/student/avr_src/SimulIDE_1.0.0-SR1_Lin64/mtpS/mtpS.c ****     DDRC |= (1 << RED) | (1 << GREEN) | (1 << BLUE);
 182               		.stabn	68,0,172,.LM10-.LFBB3
 183               	.LM10:
 184 0032 87B1      		in r24,0x7
 185 0034 8760      		ori r24,lo8(7)
 186 0036 87B9      		out 0x7,r24
 173:/home/student/avr_src/SimulIDE_1.0.0-SR1_Lin64/mtpS/mtpS.c ****     PORTC |= (1 << RED) | (1 << GREEN) | (1 << BLUE);
 187               		.stabn	68,0,173,.LM11-.LFBB3
 188               	.LM11:
 189 0038 88B1      		in r24,0x8
 190 003a 8760      		ori r24,lo8(7)
 191 003c 88B9      		out 0x8,r24
 192 003e 0895      		ret
 193               		.size	LED_ON, .-LED_ON
 194               	.Lscope3:
 195               		.stabs	"",36,0,0,.Lscope3-.LFBB3
 196               		.stabd	78,0,0
 197               		.stabs	"LED_OFF:F(0,49)",36,0,176,LED_OFF
 198               	.global	LED_OFF
 199               		.type	LED_OFF, @function
 200               	LED_OFF:
 201               		.stabd	46,0,0
 174:/home/student/avr_src/SimulIDE_1.0.0-SR1_Lin64/mtpS/mtpS.c **** }
 175:/home/student/avr_src/SimulIDE_1.0.0-SR1_Lin64/mtpS/mtpS.c **** 
 176:/home/student/avr_src/SimulIDE_1.0.0-SR1_Lin64/mtpS/mtpS.c **** void LED_OFF(){
 202               		.stabn	68,0,176,.LM12-.LFBB4
 203               	.LM12:
 204               	.LFBB4:
 205               	/* prologue: function */
 206               	/* frame size = 0 */
 207               	/* stack size = 0 */
 208               	.L__stack_usage = 0
 177:/home/student/avr_src/SimulIDE_1.0.0-SR1_Lin64/mtpS/mtpS.c ****     DDRC &= ~(1 << RED) & ~(1 << GREEN) & ~(1 << BLUE); //refresh
 209               		.stabn	68,0,177,.LM13-.LFBB4
 210               	.LM13:
 211 0040 87B1      		in r24,0x7
 212 0042 887F      		andi r24,lo8(-8)
 213 0044 87B9      		out 0x7,r24
 178:/home/student/avr_src/SimulIDE_1.0.0-SR1_Lin64/mtpS/mtpS.c ****     DDRC |= (1 << RED) | (1 << GREEN) | (1 << BLUE);
 214               		.stabn	68,0,178,.LM14-.LFBB4
 215               	.LM14:
 216 0046 87B1      		in r24,0x7
 217 0048 8760      		ori r24,lo8(7)
 218 004a 87B9      		out 0x7,r24
 179:/home/student/avr_src/SimulIDE_1.0.0-SR1_Lin64/mtpS/mtpS.c ****     PORTC &= ~(1 << RED) & ~(1 << GREEN) & ~(1 << BLUE);
 219               		.stabn	68,0,179,.LM15-.LFBB4
 220               	.LM15:
 221 004c 88B1      		in r24,0x8
 222 004e 887F      		andi r24,lo8(-8)
 223 0050 88B9      		out 0x8,r24
 224 0052 0895      		ret
 225               		.size	LED_OFF, .-LED_OFF
 226               	.Lscope4:
 227               		.stabs	"",36,0,0,.Lscope4-.LFBB4
 228               		.stabd	78,0,0
 229               		.stabs	"__vector_14:F(0,49)",36,0,286,__vector_14
 230               	.global	__vector_14
 231               		.type	__vector_14, @function
 232               	__vector_14:
 233               		.stabd	46,0,0
 180:/home/student/avr_src/SimulIDE_1.0.0-SR1_Lin64/mtpS/mtpS.c **** }
 181:/home/student/avr_src/SimulIDE_1.0.0-SR1_Lin64/mtpS/mtpS.c **** //====================================================
 182:/home/student/avr_src/SimulIDE_1.0.0-SR1_Lin64/mtpS/mtpS.c **** ISR(TIMER1_COMPA_vect){
 183:/home/student/avr_src/SimulIDE_1.0.0-SR1_Lin64/mtpS/mtpS.c **** 
 184:/home/student/avr_src/SimulIDE_1.0.0-SR1_Lin64/mtpS/mtpS.c ****    //**NOTE: Timer must perform only the role of timer otherwise, global variables will be reset **
 185:/home/student/avr_src/SimulIDE_1.0.0-SR1_Lin64/mtpS/mtpS.c ****     key_data = key_scan();
 186:/home/student/avr_src/SimulIDE_1.0.0-SR1_Lin64/mtpS/mtpS.c **** 
 187:/home/student/avr_src/SimulIDE_1.0.0-SR1_Lin64/mtpS/mtpS.c **** 
 188:/home/student/avr_src/SimulIDE_1.0.0-SR1_Lin64/mtpS/mtpS.c ****     
 189:/home/student/avr_src/SimulIDE_1.0.0-SR1_Lin64/mtpS/mtpS.c ****     if(key_flag){
 190:/home/student/avr_src/SimulIDE_1.0.0-SR1_Lin64/mtpS/mtpS.c **** 		
 191:/home/student/avr_src/SimulIDE_1.0.0-SR1_Lin64/mtpS/mtpS.c ****         key_flag = 0;
 192:/home/student/avr_src/SimulIDE_1.0.0-SR1_Lin64/mtpS/mtpS.c **** 
 193:/home/student/avr_src/SimulIDE_1.0.0-SR1_Lin64/mtpS/mtpS.c ****         if(key_data == 0xff){
 194:/home/student/avr_src/SimulIDE_1.0.0-SR1_Lin64/mtpS/mtpS.c ****             return ;
 195:/home/student/avr_src/SimulIDE_1.0.0-SR1_Lin64/mtpS/mtpS.c **** 		}
 196:/home/student/avr_src/SimulIDE_1.0.0-SR1_Lin64/mtpS/mtpS.c **** 
 197:/home/student/avr_src/SimulIDE_1.0.0-SR1_Lin64/mtpS/mtpS.c ****         if(key_data == 10){
 198:/home/student/avr_src/SimulIDE_1.0.0-SR1_Lin64/mtpS/mtpS.c ****             //key_data += 32; // 42 -> *
 199:/home/student/avr_src/SimulIDE_1.0.0-SR1_Lin64/mtpS/mtpS.c **** 			I2C_LCD_init(0x27);
 200:/home/student/avr_src/SimulIDE_1.0.0-SR1_Lin64/mtpS/mtpS.c ****         }
 201:/home/student/avr_src/SimulIDE_1.0.0-SR1_Lin64/mtpS/mtpS.c ****         if(key_data == 11){
 202:/home/student/avr_src/SimulIDE_1.0.0-SR1_Lin64/mtpS/mtpS.c ****             //key_data += 24; // 35 -> #
 203:/home/student/avr_src/SimulIDE_1.0.0-SR1_Lin64/mtpS/mtpS.c **** 			LCD_CharWrite(0x10);
 204:/home/student/avr_src/SimulIDE_1.0.0-SR1_Lin64/mtpS/mtpS.c **** 			_delay_us(38);
 205:/home/student/avr_src/SimulIDE_1.0.0-SR1_Lin64/mtpS/mtpS.c **** 			LCD_CharWrite(0x30);
 206:/home/student/avr_src/SimulIDE_1.0.0-SR1_Lin64/mtpS/mtpS.c **** 			_delay_ms(5);
 207:/home/student/avr_src/SimulIDE_1.0.0-SR1_Lin64/mtpS/mtpS.c **** 
 208:/home/student/avr_src/SimulIDE_1.0.0-SR1_Lin64/mtpS/mtpS.c **** 			I2C_LCD_init(0x27);
 209:/home/student/avr_src/SimulIDE_1.0.0-SR1_Lin64/mtpS/mtpS.c **** 			_delay_ms(5);
 210:/home/student/avr_src/SimulIDE_1.0.0-SR1_Lin64/mtpS/mtpS.c **** 
 211:/home/student/avr_src/SimulIDE_1.0.0-SR1_Lin64/mtpS/mtpS.c **** 			LCD_CharWrite(0x10);
 212:/home/student/avr_src/SimulIDE_1.0.0-SR1_Lin64/mtpS/mtpS.c **** 			_delay_us(38);
 213:/home/student/avr_src/SimulIDE_1.0.0-SR1_Lin64/mtpS/mtpS.c **** 			LCD_CharWrite(0x30);
 214:/home/student/avr_src/SimulIDE_1.0.0-SR1_Lin64/mtpS/mtpS.c **** 			_delay_ms(10);
 215:/home/student/avr_src/SimulIDE_1.0.0-SR1_Lin64/mtpS/mtpS.c **** 
 216:/home/student/avr_src/SimulIDE_1.0.0-SR1_Lin64/mtpS/mtpS.c **** 			I2C_LCD_init(0x27);
 217:/home/student/avr_src/SimulIDE_1.0.0-SR1_Lin64/mtpS/mtpS.c **** 			_delay_ms(10);
 218:/home/student/avr_src/SimulIDE_1.0.0-SR1_Lin64/mtpS/mtpS.c **** 			I2C_LCD_init(0x27);
 219:/home/student/avr_src/SimulIDE_1.0.0-SR1_Lin64/mtpS/mtpS.c **** 
 220:/home/student/avr_src/SimulIDE_1.0.0-SR1_Lin64/mtpS/mtpS.c **** 
 221:/home/student/avr_src/SimulIDE_1.0.0-SR1_Lin64/mtpS/mtpS.c **** 			// _delay_us(38);
 222:/home/student/avr_src/SimulIDE_1.0.0-SR1_Lin64/mtpS/mtpS.c **** 			// I2C_LCD_init(0x27);
 223:/home/student/avr_src/SimulIDE_1.0.0-SR1_Lin64/mtpS/mtpS.c **** 
 224:/home/student/avr_src/SimulIDE_1.0.0-SR1_Lin64/mtpS/mtpS.c **** 		}                                                       
 225:/home/student/avr_src/SimulIDE_1.0.0-SR1_Lin64/mtpS/mtpS.c **** 		if(key_data == 1){
 226:/home/student/avr_src/SimulIDE_1.0.0-SR1_Lin64/mtpS/mtpS.c **** 			LCD_CharWrite(num2lcdbyte(1));
 227:/home/student/avr_src/SimulIDE_1.0.0-SR1_Lin64/mtpS/mtpS.c **** 			//key_data += '0';
 228:/home/student/avr_src/SimulIDE_1.0.0-SR1_Lin64/mtpS/mtpS.c **** 		}
 229:/home/student/avr_src/SimulIDE_1.0.0-SR1_Lin64/mtpS/mtpS.c **** 		if(key_data == 2){
 230:/home/student/avr_src/SimulIDE_1.0.0-SR1_Lin64/mtpS/mtpS.c **** 			LCD_CharWrite(num2lcdbyte(2));
 231:/home/student/avr_src/SimulIDE_1.0.0-SR1_Lin64/mtpS/mtpS.c **** 			//key_data += '0';
 232:/home/student/avr_src/SimulIDE_1.0.0-SR1_Lin64/mtpS/mtpS.c **** 		}
 233:/home/student/avr_src/SimulIDE_1.0.0-SR1_Lin64/mtpS/mtpS.c **** 		if(key_data == 3){
 234:/home/student/avr_src/SimulIDE_1.0.0-SR1_Lin64/mtpS/mtpS.c **** 			LCD_CharWrite(num2lcdbyte(3));
 235:/home/student/avr_src/SimulIDE_1.0.0-SR1_Lin64/mtpS/mtpS.c **** 			//key_data += '0';
 236:/home/student/avr_src/SimulIDE_1.0.0-SR1_Lin64/mtpS/mtpS.c **** 		}
 237:/home/student/avr_src/SimulIDE_1.0.0-SR1_Lin64/mtpS/mtpS.c **** 		if(key_data == 4){
 238:/home/student/avr_src/SimulIDE_1.0.0-SR1_Lin64/mtpS/mtpS.c **** 			LCD_CharWrite(num2lcdbyte(4));
 239:/home/student/avr_src/SimulIDE_1.0.0-SR1_Lin64/mtpS/mtpS.c **** 			//key_data += '0';
 240:/home/student/avr_src/SimulIDE_1.0.0-SR1_Lin64/mtpS/mtpS.c **** 		}
 241:/home/student/avr_src/SimulIDE_1.0.0-SR1_Lin64/mtpS/mtpS.c **** 		if(key_data == 5){
 242:/home/student/avr_src/SimulIDE_1.0.0-SR1_Lin64/mtpS/mtpS.c **** 			
 243:/home/student/avr_src/SimulIDE_1.0.0-SR1_Lin64/mtpS/mtpS.c **** 			LCD_CharWrite(num2lcdbyte(5));
 244:/home/student/avr_src/SimulIDE_1.0.0-SR1_Lin64/mtpS/mtpS.c **** 			//key_data += '0';
 245:/home/student/avr_src/SimulIDE_1.0.0-SR1_Lin64/mtpS/mtpS.c **** 		}
 246:/home/student/avr_src/SimulIDE_1.0.0-SR1_Lin64/mtpS/mtpS.c **** 		if(key_data == 6){
 247:/home/student/avr_src/SimulIDE_1.0.0-SR1_Lin64/mtpS/mtpS.c **** 			
 248:/home/student/avr_src/SimulIDE_1.0.0-SR1_Lin64/mtpS/mtpS.c **** 			LCD_CharWrite(num2lcdbyte(6));
 249:/home/student/avr_src/SimulIDE_1.0.0-SR1_Lin64/mtpS/mtpS.c **** 			//key_data += '0';
 250:/home/student/avr_src/SimulIDE_1.0.0-SR1_Lin64/mtpS/mtpS.c **** 		}
 251:/home/student/avr_src/SimulIDE_1.0.0-SR1_Lin64/mtpS/mtpS.c **** 		if(key_data == 7){
 252:/home/student/avr_src/SimulIDE_1.0.0-SR1_Lin64/mtpS/mtpS.c **** 			
 253:/home/student/avr_src/SimulIDE_1.0.0-SR1_Lin64/mtpS/mtpS.c **** 			LCD_CharWrite(num2lcdbyte(7));
 254:/home/student/avr_src/SimulIDE_1.0.0-SR1_Lin64/mtpS/mtpS.c **** 			//key_data += '0';
 255:/home/student/avr_src/SimulIDE_1.0.0-SR1_Lin64/mtpS/mtpS.c **** 		}
 256:/home/student/avr_src/SimulIDE_1.0.0-SR1_Lin64/mtpS/mtpS.c **** 		if(key_data == 8){
 257:/home/student/avr_src/SimulIDE_1.0.0-SR1_Lin64/mtpS/mtpS.c **** 			
 258:/home/student/avr_src/SimulIDE_1.0.0-SR1_Lin64/mtpS/mtpS.c **** 			LCD_CharWrite(num2lcdbyte(8));
 259:/home/student/avr_src/SimulIDE_1.0.0-SR1_Lin64/mtpS/mtpS.c **** 			//key_data += '0';
 260:/home/student/avr_src/SimulIDE_1.0.0-SR1_Lin64/mtpS/mtpS.c **** 		}
 261:/home/student/avr_src/SimulIDE_1.0.0-SR1_Lin64/mtpS/mtpS.c **** 		if(key_data == 9){
 262:/home/student/avr_src/SimulIDE_1.0.0-SR1_Lin64/mtpS/mtpS.c **** 			
 263:/home/student/avr_src/SimulIDE_1.0.0-SR1_Lin64/mtpS/mtpS.c **** 			LCD_CharWrite(num2lcdbyte(9));
 264:/home/student/avr_src/SimulIDE_1.0.0-SR1_Lin64/mtpS/mtpS.c **** 			//key_data += '0';
 265:/home/student/avr_src/SimulIDE_1.0.0-SR1_Lin64/mtpS/mtpS.c **** 		}
 266:/home/student/avr_src/SimulIDE_1.0.0-SR1_Lin64/mtpS/mtpS.c **** 		if(key_data == 0){
 267:/home/student/avr_src/SimulIDE_1.0.0-SR1_Lin64/mtpS/mtpS.c **** 			
 268:/home/student/avr_src/SimulIDE_1.0.0-SR1_Lin64/mtpS/mtpS.c **** 			LCD_CharWrite(num2lcdbyte(0));
 269:/home/student/avr_src/SimulIDE_1.0.0-SR1_Lin64/mtpS/mtpS.c **** 			//key_data += '0';
 270:/home/student/avr_src/SimulIDE_1.0.0-SR1_Lin64/mtpS/mtpS.c **** 		}
 271:/home/student/avr_src/SimulIDE_1.0.0-SR1_Lin64/mtpS/mtpS.c **** 		LCD_CharWrite(0xF0);
 272:/home/student/avr_src/SimulIDE_1.0.0-SR1_Lin64/mtpS/mtpS.c **** 
 273:/home/student/avr_src/SimulIDE_1.0.0-SR1_Lin64/mtpS/mtpS.c **** 		PORTC |= 0b00100000;
 274:/home/student/avr_src/SimulIDE_1.0.0-SR1_Lin64/mtpS/mtpS.c ****         //Tx_char(key_data);
 275:/home/student/avr_src/SimulIDE_1.0.0-SR1_Lin64/mtpS/mtpS.c ****         //Tx_char(' ');
 276:/home/student/avr_src/SimulIDE_1.0.0-SR1_Lin64/mtpS/mtpS.c ****         //LED_ON();
 277:/home/student/avr_src/SimulIDE_1.0.0-SR1_Lin64/mtpS/mtpS.c ****         }
 278:/home/student/avr_src/SimulIDE_1.0.0-SR1_Lin64/mtpS/mtpS.c ****         else{
 279:/home/student/avr_src/SimulIDE_1.0.0-SR1_Lin64/mtpS/mtpS.c ****             //LED_OFF();
 280:/home/student/avr_src/SimulIDE_1.0.0-SR1_Lin64/mtpS/mtpS.c **** 			PORTC &= ~0b00100000;
 281:/home/student/avr_src/SimulIDE_1.0.0-SR1_Lin64/mtpS/mtpS.c ****   			PORTC &= ~0x01;
 282:/home/student/avr_src/SimulIDE_1.0.0-SR1_Lin64/mtpS/mtpS.c ****         }
 283:/home/student/avr_src/SimulIDE_1.0.0-SR1_Lin64/mtpS/mtpS.c **** 	
 284:/home/student/avr_src/SimulIDE_1.0.0-SR1_Lin64/mtpS/mtpS.c **** }
 285:/home/student/avr_src/SimulIDE_1.0.0-SR1_Lin64/mtpS/mtpS.c **** 
 286:/home/student/avr_src/SimulIDE_1.0.0-SR1_Lin64/mtpS/mtpS.c **** ISR(TIMER0_COMPA_vect){ //Timer
 234               		.stabn	68,0,286,.LM16-.LFBB5
 235               	.LM16:
 236               	.LFBB5:
 237 0054 1F92      		push r1
 238 0056 0F92      		push r0
 239 0058 0FB6      		in r0,__SREG__
 240 005a 0F92      		push r0
 241 005c 1124      		clr __zero_reg__
 242 005e 8F93      		push r24
 243               	/* prologue: Signal */
 244               	/* frame size = 0 */
 245               	/* stack size = 4 */
 246               	.L__stack_usage = 4
 287:/home/student/avr_src/SimulIDE_1.0.0-SR1_Lin64/mtpS/mtpS.c ****    //**NOTE: Timer must perform only the role of timer otherwise, global variables will be reset **
 288:/home/student/avr_src/SimulIDE_1.0.0-SR1_Lin64/mtpS/mtpS.c **** 	Wait_time =1;
 247               		.stabn	68,0,288,.LM17-.LFBB5
 248               	.LM17:
 249 0060 81E0      		ldi r24,lo8(1)
 250 0062 8093 0000 		sts Wait_time,r24
 251               	/* epilogue start */
 289:/home/student/avr_src/SimulIDE_1.0.0-SR1_Lin64/mtpS/mtpS.c **** 
 290:/home/student/avr_src/SimulIDE_1.0.0-SR1_Lin64/mtpS/mtpS.c **** }
 252               		.stabn	68,0,290,.LM18-.LFBB5
 253               	.LM18:
 254 0066 8F91      		pop r24
 255 0068 0F90      		pop r0
 256 006a 0FBE      		out __SREG__,r0
 257 006c 0F90      		pop r0
 258 006e 1F90      		pop r1
 259 0070 1895      		reti
 260               		.size	__vector_14, .-__vector_14
 261               	.Lscope5:
 262               		.stabs	"",36,0,0,.Lscope5-.LFBB5
 263               		.stabd	78,0,0
 264               		.stabs	"USART_init:F(0,49)",36,0,306,USART_init
 265               	.global	USART_init
 266               		.type	USART_init, @function
 267               	USART_init:
 268               		.stabd	46,0,0
 291:/home/student/avr_src/SimulIDE_1.0.0-SR1_Lin64/mtpS/mtpS.c **** 
 292:/home/student/avr_src/SimulIDE_1.0.0-SR1_Lin64/mtpS/mtpS.c **** // ISR(INT0_vect){
 293:/home/student/avr_src/SimulIDE_1.0.0-SR1_Lin64/mtpS/mtpS.c **** // cli();
 294:/home/student/avr_src/SimulIDE_1.0.0-SR1_Lin64/mtpS/mtpS.c **** // 	TIMSK0 &= ~(1 << TOIE0) & ~(1 << OCIE0A);
 295:/home/student/avr_src/SimulIDE_1.0.0-SR1_Lin64/mtpS/mtpS.c **** 	
 296:/home/student/avr_src/SimulIDE_1.0.0-SR1_Lin64/mtpS/mtpS.c **** //    //AT24Cxx_i2c_start();
 297:/home/student/avr_src/SimulIDE_1.0.0-SR1_Lin64/mtpS/mtpS.c **** //    DDRC &= ~0x01;
 298:/home/student/avr_src/SimulIDE_1.0.0-SR1_Lin64/mtpS/mtpS.c **** //    DDRC |= 0x01;
 299:/home/student/avr_src/SimulIDE_1.0.0-SR1_Lin64/mtpS/mtpS.c **** //    PORTC |= 0x01;
 300:/home/student/avr_src/SimulIDE_1.0.0-SR1_Lin64/mtpS/mtpS.c **** //    sei();
 301:/home/student/avr_src/SimulIDE_1.0.0-SR1_Lin64/mtpS/mtpS.c **** //    TIMSK0 |= (1 << TOIE0) | (1 << OCIE0A); 
 302:/home/student/avr_src/SimulIDE_1.0.0-SR1_Lin64/mtpS/mtpS.c **** //    	//
 303:/home/student/avr_src/SimulIDE_1.0.0-SR1_Lin64/mtpS/mtpS.c **** //    LCD_CharWrite(num2lcdbyte(1));
 304:/home/student/avr_src/SimulIDE_1.0.0-SR1_Lin64/mtpS/mtpS.c **** // }
 305:/home/student/avr_src/SimulIDE_1.0.0-SR1_Lin64/mtpS/mtpS.c **** //====================================================
 306:/home/student/avr_src/SimulIDE_1.0.0-SR1_Lin64/mtpS/mtpS.c **** void USART_init(){
 269               		.stabn	68,0,306,.LM19-.LFBB6
 270               	.LM19:
 271               	.LFBB6:
 272               	/* prologue: function */
 273               	/* frame size = 0 */
 274               	/* stack size = 0 */
 275               	.L__stack_usage = 0
 307:/home/student/avr_src/SimulIDE_1.0.0-SR1_Lin64/mtpS/mtpS.c ****     UCSR0A = 0x20;
 276               		.stabn	68,0,307,.LM20-.LFBB6
 277               	.LM20:
 278 0072 80E2      		ldi r24,lo8(32)
 279 0074 8093 C000 		sts 192,r24
 308:/home/student/avr_src/SimulIDE_1.0.0-SR1_Lin64/mtpS/mtpS.c ****     UCSR0B = 0x18;
 280               		.stabn	68,0,308,.LM21-.LFBB6
 281               	.LM21:
 282 0078 88E1      		ldi r24,lo8(24)
 283 007a 8093 C100 		sts 193,r24
 309:/home/student/avr_src/SimulIDE_1.0.0-SR1_Lin64/mtpS/mtpS.c ****     UCSR0C = 0x06;
 284               		.stabn	68,0,309,.LM22-.LFBB6
 285               	.LM22:
 286 007e 86E0      		ldi r24,lo8(6)
 287 0080 8093 C200 		sts 194,r24
 310:/home/student/avr_src/SimulIDE_1.0.0-SR1_Lin64/mtpS/mtpS.c ****     UBRR0 = 8;
 288               		.stabn	68,0,310,.LM23-.LFBB6
 289               	.LM23:
 290 0084 88E0      		ldi r24,lo8(8)
 291 0086 90E0      		ldi r25,0
 292 0088 9093 C500 		sts 196+1,r25
 293 008c 8093 C400 		sts 196,r24
 294 0090 0895      		ret
 295               		.size	USART_init, .-USART_init
 296               	.Lscope6:
 297               		.stabs	"",36,0,0,.Lscope6-.LFBB6
 298               		.stabd	78,0,0
 299               		.section	.text.startup,"ax",@progbits
 300               		.stabs	"main:F(0,1)",36,0,77,main
 301               	.global	main
 302               		.type	main, @function
 303               	main:
 304               		.stabd	46,0,0
  77:/home/student/avr_src/SimulIDE_1.0.0-SR1_Lin64/mtpS/mtpS.c **** 	
 305               		.stabn	68,0,77,.LM24-.LFBB7
 306               	.LM24:
 307               	.LFBB7:
 308               	/* prologue: function */
 309               	/* frame size = 0 */
 310               	/* stack size = 0 */
 311               	.L__stack_usage = 0
  80:/home/student/avr_src/SimulIDE_1.0.0-SR1_Lin64/mtpS/mtpS.c ****     Port_init();
 312               		.stabn	68,0,80,.LM25-.LFBB7
 313               	.LM25:
 314               	/* #APP */
 315               	 ;  80 "/home/student/avr_src/SimulIDE_1.0.0-SR1_Lin64/mtpS/mtpS.c" 1
 316 0000 7894      		sei
 317               	 ;  0 "" 2
  81:/home/student/avr_src/SimulIDE_1.0.0-SR1_Lin64/mtpS/mtpS.c ****     USART_init();
 318               		.stabn	68,0,81,.LM26-.LFBB7
 319               	.LM26:
 320               	/* #NOAPP */
 321 0002 0E94 0000 		call Port_init
  82:/home/student/avr_src/SimulIDE_1.0.0-SR1_Lin64/mtpS/mtpS.c **** 	//Timer0_init();
 322               		.stabn	68,0,82,.LM27-.LFBB7
 323               	.LM27:
 324 0006 0E94 0000 		call USART_init
  84:/home/student/avr_src/SimulIDE_1.0.0-SR1_Lin64/mtpS/mtpS.c ****     
 325               		.stabn	68,0,84,.LM28-.LFBB7
 326               	.LM28:
 327 000a 0E94 0000 		call Timer1_init
 328               	.L8:
 329 000e 00C0      		rjmp .L8
 330               		.size	main, .-main
 331               	.Lscope7:
 332               		.stabs	"",36,0,0,.Lscope7-.LFBB7
 333               		.stabd	78,0,0
 334               		.text
 335               		.stabs	"Tx_char:F(0,49)",36,0,315,Tx_char
 336               		.stabs	"data:P(0,13)",64,0,315,24
 337               	.global	Tx_char
 338               		.type	Tx_char, @function
 339               	Tx_char:
 340               		.stabd	46,0,0
 311:/home/student/avr_src/SimulIDE_1.0.0-SR1_Lin64/mtpS/mtpS.c **** }
 312:/home/student/avr_src/SimulIDE_1.0.0-SR1_Lin64/mtpS/mtpS.c **** 
 313:/home/student/avr_src/SimulIDE_1.0.0-SR1_Lin64/mtpS/mtpS.c **** 
 314:/home/student/avr_src/SimulIDE_1.0.0-SR1_Lin64/mtpS/mtpS.c **** 
 315:/home/student/avr_src/SimulIDE_1.0.0-SR1_Lin64/mtpS/mtpS.c **** void Tx_char(unsigned char data){
 341               		.stabn	68,0,315,.LM29-.LFBB8
 342               	.LM29:
 343               	.LFBB8:
 344               	/* prologue: function */
 345               	/* frame size = 0 */
 346               	/* stack size = 0 */
 347               	.L__stack_usage = 0
 348               	.L11:
 316:/home/student/avr_src/SimulIDE_1.0.0-SR1_Lin64/mtpS/mtpS.c ****     while(!(UCSR0A & (1 << UDRE0)));
 349               		.stabn	68,0,316,.LM30-.LFBB8
 350               	.LM30:
 351 0092 9091 C000 		lds r25,192
 352 0096 95FF      		sbrs r25,5
 353 0098 00C0      		rjmp .L11
 317:/home/student/avr_src/SimulIDE_1.0.0-SR1_Lin64/mtpS/mtpS.c ****     UDR0 = data;
 354               		.stabn	68,0,317,.LM31-.LFBB8
 355               	.LM31:
 356 009a 8093 C600 		sts 198,r24
 357 009e 0895      		ret
 358               		.size	Tx_char, .-Tx_char
 359               	.Lscope8:
 360               		.stabs	"",36,0,0,.Lscope8-.LFBB8
 361               		.stabd	78,0,0
 362               		.stabs	"key_analysis:F(0,13)",36,0,380,key_analysis
 363               		.stabs	"key:P(0,13)",64,0,380,24
 364               		.stabs	"Raw:P(0,13)",64,0,380,22
 365               	.global	key_analysis
 366               		.type	key_analysis, @function
 367               	key_analysis:
 368               		.stabd	46,0,0
 318:/home/student/avr_src/SimulIDE_1.0.0-SR1_Lin64/mtpS/mtpS.c **** }
 319:/home/student/avr_src/SimulIDE_1.0.0-SR1_Lin64/mtpS/mtpS.c **** //====================================================
 320:/home/student/avr_src/SimulIDE_1.0.0-SR1_Lin64/mtpS/mtpS.c **** unsigned char key_scan(){
 321:/home/student/avr_src/SimulIDE_1.0.0-SR1_Lin64/mtpS/mtpS.c **** 
 322:/home/student/avr_src/SimulIDE_1.0.0-SR1_Lin64/mtpS/mtpS.c **** 
 323:/home/student/avr_src/SimulIDE_1.0.0-SR1_Lin64/mtpS/mtpS.c ****     unsigned char bit_shift = 0b00010000;
 324:/home/student/avr_src/SimulIDE_1.0.0-SR1_Lin64/mtpS/mtpS.c ****     if(key_flag) return -1;
 325:/home/student/avr_src/SimulIDE_1.0.0-SR1_Lin64/mtpS/mtpS.c ****     PORTD &= ~(0x70);
 326:/home/student/avr_src/SimulIDE_1.0.0-SR1_Lin64/mtpS/mtpS.c ****     new_key = (PINB) & 0x0f;
 327:/home/student/avr_src/SimulIDE_1.0.0-SR1_Lin64/mtpS/mtpS.c **** 
 328:/home/student/avr_src/SimulIDE_1.0.0-SR1_Lin64/mtpS/mtpS.c ****     /* procedure to prevent signals chattering */
 329:/home/student/avr_src/SimulIDE_1.0.0-SR1_Lin64/mtpS/mtpS.c ****     if(new_key != old_key){
 330:/home/student/avr_src/SimulIDE_1.0.0-SR1_Lin64/mtpS/mtpS.c ****         old_key = new_key;
 331:/home/student/avr_src/SimulIDE_1.0.0-SR1_Lin64/mtpS/mtpS.c ****         return -1;
 332:/home/student/avr_src/SimulIDE_1.0.0-SR1_Lin64/mtpS/mtpS.c ****     }
 333:/home/student/avr_src/SimulIDE_1.0.0-SR1_Lin64/mtpS/mtpS.c **** 
 334:/home/student/avr_src/SimulIDE_1.0.0-SR1_Lin64/mtpS/mtpS.c ****     if(pressing_flag){ //checking if btn released
 335:/home/student/avr_src/SimulIDE_1.0.0-SR1_Lin64/mtpS/mtpS.c ****         //pin 1 ,3, 5 => D4, D5, D6 / pin 2,7,6,4 => D0, D1, D2, D3
 336:/home/student/avr_src/SimulIDE_1.0.0-SR1_Lin64/mtpS/mtpS.c ****         if(new_key == 0x0f){ //compare with current key and the received new key
 337:/home/student/avr_src/SimulIDE_1.0.0-SR1_Lin64/mtpS/mtpS.c ****                              //because if one of btns is pressed, it can get signals 
 338:/home/student/avr_src/SimulIDE_1.0.0-SR1_Lin64/mtpS/mtpS.c ****             pressing_flag = 0;
 339:/home/student/avr_src/SimulIDE_1.0.0-SR1_Lin64/mtpS/mtpS.c ****             return -1;
 340:/home/student/avr_src/SimulIDE_1.0.0-SR1_Lin64/mtpS/mtpS.c ****         }
 341:/home/student/avr_src/SimulIDE_1.0.0-SR1_Lin64/mtpS/mtpS.c ****         else return -1;
 342:/home/student/avr_src/SimulIDE_1.0.0-SR1_Lin64/mtpS/mtpS.c ****     }
 343:/home/student/avr_src/SimulIDE_1.0.0-SR1_Lin64/mtpS/mtpS.c **** 
 344:/home/student/avr_src/SimulIDE_1.0.0-SR1_Lin64/mtpS/mtpS.c ****     else { //checking if key pressed has a diffrent value with the previous key 
 345:/home/student/avr_src/SimulIDE_1.0.0-SR1_Lin64/mtpS/mtpS.c ****         if (new_key == 0x0f){
 346:/home/student/avr_src/SimulIDE_1.0.0-SR1_Lin64/mtpS/mtpS.c ****             return -1;
 347:/home/student/avr_src/SimulIDE_1.0.0-SR1_Lin64/mtpS/mtpS.c ****         } 
 348:/home/student/avr_src/SimulIDE_1.0.0-SR1_Lin64/mtpS/mtpS.c ****         else { 
 349:/home/student/avr_src/SimulIDE_1.0.0-SR1_Lin64/mtpS/mtpS.c ****             for(int Raw = 0; Raw < 3; Raw++){
 350:/home/student/avr_src/SimulIDE_1.0.0-SR1_Lin64/mtpS/mtpS.c ****                 PORTD |= 0x70; 
 351:/home/student/avr_src/SimulIDE_1.0.0-SR1_Lin64/mtpS/mtpS.c ****                 PORTD &= ~(bit_shift); //to check specific raw, Ex) raw 1 -> D5, D6 must be HIGH st
 352:/home/student/avr_src/SimulIDE_1.0.0-SR1_Lin64/mtpS/mtpS.c **** 									   //in addition if pin of PORTD is on, PINB won't be low state
 353:/home/student/avr_src/SimulIDE_1.0.0-SR1_Lin64/mtpS/mtpS.c **** 			    
 354:/home/student/avr_src/SimulIDE_1.0.0-SR1_Lin64/mtpS/mtpS.c ****                 
 355:/home/student/avr_src/SimulIDE_1.0.0-SR1_Lin64/mtpS/mtpS.c ****                 DDRD &= ~(bit_shift); //refresh
 356:/home/student/avr_src/SimulIDE_1.0.0-SR1_Lin64/mtpS/mtpS.c **** 				DDRD |= 0x70; 
 357:/home/student/avr_src/SimulIDE_1.0.0-SR1_Lin64/mtpS/mtpS.c **** 				
 358:/home/student/avr_src/SimulIDE_1.0.0-SR1_Lin64/mtpS/mtpS.c ****                 new_key = (PINB) & 0x0f;
 359:/home/student/avr_src/SimulIDE_1.0.0-SR1_Lin64/mtpS/mtpS.c ****                 if(new_key == 0x0f){ // + when raw is LOW
 360:/home/student/avr_src/SimulIDE_1.0.0-SR1_Lin64/mtpS/mtpS.c ****                   
 361:/home/student/avr_src/SimulIDE_1.0.0-SR1_Lin64/mtpS/mtpS.c ****                     bit_shift <<= 1;
 362:/home/student/avr_src/SimulIDE_1.0.0-SR1_Lin64/mtpS/mtpS.c ****                     continue;
 363:/home/student/avr_src/SimulIDE_1.0.0-SR1_Lin64/mtpS/mtpS.c ****                 }
 364:/home/student/avr_src/SimulIDE_1.0.0-SR1_Lin64/mtpS/mtpS.c ****                 else {
 365:/home/student/avr_src/SimulIDE_1.0.0-SR1_Lin64/mtpS/mtpS.c **** 					if(!lcd_flag) I2C_LCD_init(0x27);
 366:/home/student/avr_src/SimulIDE_1.0.0-SR1_Lin64/mtpS/mtpS.c **** 					lcd_flag = 1;
 367:/home/student/avr_src/SimulIDE_1.0.0-SR1_Lin64/mtpS/mtpS.c ****                     pressing_flag = 1;
 368:/home/student/avr_src/SimulIDE_1.0.0-SR1_Lin64/mtpS/mtpS.c ****                     key_flag = 1;
 369:/home/student/avr_src/SimulIDE_1.0.0-SR1_Lin64/mtpS/mtpS.c ****                     return key_analysis(new_key, Raw);
 370:/home/student/avr_src/SimulIDE_1.0.0-SR1_Lin64/mtpS/mtpS.c ****                 }
 371:/home/student/avr_src/SimulIDE_1.0.0-SR1_Lin64/mtpS/mtpS.c ****             }
 372:/home/student/avr_src/SimulIDE_1.0.0-SR1_Lin64/mtpS/mtpS.c ****         
 373:/home/student/avr_src/SimulIDE_1.0.0-SR1_Lin64/mtpS/mtpS.c ****         }
 374:/home/student/avr_src/SimulIDE_1.0.0-SR1_Lin64/mtpS/mtpS.c ****     }
 375:/home/student/avr_src/SimulIDE_1.0.0-SR1_Lin64/mtpS/mtpS.c **** 
 376:/home/student/avr_src/SimulIDE_1.0.0-SR1_Lin64/mtpS/mtpS.c ****     /* end checking */
 377:/home/student/avr_src/SimulIDE_1.0.0-SR1_Lin64/mtpS/mtpS.c **** }
 378:/home/student/avr_src/SimulIDE_1.0.0-SR1_Lin64/mtpS/mtpS.c **** 
 379:/home/student/avr_src/SimulIDE_1.0.0-SR1_Lin64/mtpS/mtpS.c **** 
 380:/home/student/avr_src/SimulIDE_1.0.0-SR1_Lin64/mtpS/mtpS.c **** unsigned char key_analysis(unsigned char key, unsigned char Raw){
 369               		.stabn	68,0,380,.LM32-.LFBB9
 370               	.LM32:
 371               	.LFBB9:
 372               	/* prologue: function */
 373               	/* frame size = 0 */
 374               	/* stack size = 0 */
 375               	.L__stack_usage = 0
 381:/home/student/avr_src/SimulIDE_1.0.0-SR1_Lin64/mtpS/mtpS.c **** 
 382:/home/student/avr_src/SimulIDE_1.0.0-SR1_Lin64/mtpS/mtpS.c **** 	key_flag = 1;
 376               		.stabn	68,0,382,.LM33-.LFBB9
 377               	.LM33:
 378 00a0 91E0      		ldi r25,lo8(1)
 379 00a2 9093 0000 		sts key_flag,r25
 383:/home/student/avr_src/SimulIDE_1.0.0-SR1_Lin64/mtpS/mtpS.c **** 	switch(Raw){
 380               		.stabn	68,0,383,.LM34-.LFBB9
 381               	.LM34:
 382 00a6 6130      		cpi r22,lo8(1)
 383 00a8 01F0      		breq .L16
 384 00aa 00F0      		brlo .L17
 385 00ac 6230      		cpi r22,lo8(2)
 386 00ae 01F0      		breq .L18
 387 00b0 00C0      		rjmp .L38
 388               	.L17:
 389               	.LBB103:
 390               	.LBB104:
 384:/home/student/avr_src/SimulIDE_1.0.0-SR1_Lin64/mtpS/mtpS.c **** 		case 0:
 385:/home/student/avr_src/SimulIDE_1.0.0-SR1_Lin64/mtpS/mtpS.c **** 		switch(key){
 391               		.stabn	68,0,385,.LM35-.LFBB9
 392               	.LM35:
 393 00b2 8B30      		cpi r24,lo8(11)
 394 00b4 01F0      		breq .L20
 395 00b6 00F4      		brsh .L21
 396 00b8 8730      		cpi r24,lo8(7)
 397 00ba 01F4      		brne .L38
 386:/home/student/avr_src/SimulIDE_1.0.0-SR1_Lin64/mtpS/mtpS.c **** 			case 0b00001110:
 387:/home/student/avr_src/SimulIDE_1.0.0-SR1_Lin64/mtpS/mtpS.c **** 			return 1;
 388:/home/student/avr_src/SimulIDE_1.0.0-SR1_Lin64/mtpS/mtpS.c **** 			case 0b00001101:
 389:/home/student/avr_src/SimulIDE_1.0.0-SR1_Lin64/mtpS/mtpS.c **** 			return 4;
 390:/home/student/avr_src/SimulIDE_1.0.0-SR1_Lin64/mtpS/mtpS.c **** 			case 0b00001011:
 391:/home/student/avr_src/SimulIDE_1.0.0-SR1_Lin64/mtpS/mtpS.c **** 			return 7;
 392:/home/student/avr_src/SimulIDE_1.0.0-SR1_Lin64/mtpS/mtpS.c **** 			case 0b00000111:
 393:/home/student/avr_src/SimulIDE_1.0.0-SR1_Lin64/mtpS/mtpS.c **** 			return 10;
 398               		.stabn	68,0,393,.LM36-.LFBB9
 399               	.LM36:
 400 00bc 8AE0      		ldi r24,lo8(10)
 401 00be 0895      		ret
 402               	.L21:
 385:/home/student/avr_src/SimulIDE_1.0.0-SR1_Lin64/mtpS/mtpS.c **** 			case 0b00001110:
 403               		.stabn	68,0,385,.LM37-.LFBB9
 404               	.LM37:
 405 00c0 8D30      		cpi r24,lo8(13)
 406 00c2 01F0      		breq .L23
 407 00c4 8E30      		cpi r24,lo8(14)
 408 00c6 01F0      		breq .L35
 409 00c8 00C0      		rjmp .L38
 410               	.L23:
 389:/home/student/avr_src/SimulIDE_1.0.0-SR1_Lin64/mtpS/mtpS.c **** 			case 0b00001011:
 411               		.stabn	68,0,389,.LM38-.LFBB9
 412               	.LM38:
 413 00ca 84E0      		ldi r24,lo8(4)
 414 00cc 0895      		ret
 415               	.L20:
 391:/home/student/avr_src/SimulIDE_1.0.0-SR1_Lin64/mtpS/mtpS.c **** 			case 0b00000111:
 416               		.stabn	68,0,391,.LM39-.LFBB9
 417               	.LM39:
 418 00ce 87E0      		ldi r24,lo8(7)
 419 00d0 0895      		ret
 420               	.L16:
 421               	.LBE104:
 422               	.LBE103:
 394:/home/student/avr_src/SimulIDE_1.0.0-SR1_Lin64/mtpS/mtpS.c **** 			default:
 395:/home/student/avr_src/SimulIDE_1.0.0-SR1_Lin64/mtpS/mtpS.c **** 			key_flag = 0;
 396:/home/student/avr_src/SimulIDE_1.0.0-SR1_Lin64/mtpS/mtpS.c **** 			return -1;
 397:/home/student/avr_src/SimulIDE_1.0.0-SR1_Lin64/mtpS/mtpS.c **** 		}
 398:/home/student/avr_src/SimulIDE_1.0.0-SR1_Lin64/mtpS/mtpS.c **** 
 399:/home/student/avr_src/SimulIDE_1.0.0-SR1_Lin64/mtpS/mtpS.c **** 		case 1:
 400:/home/student/avr_src/SimulIDE_1.0.0-SR1_Lin64/mtpS/mtpS.c **** 		switch(key){
 423               		.stabn	68,0,400,.LM40-.LFBB9
 424               	.LM40:
 425 00d2 8B30      		cpi r24,lo8(11)
 426 00d4 01F0      		breq .L26
 427 00d6 00F4      		brsh .L27
 428 00d8 8730      		cpi r24,lo8(7)
 429 00da 01F4      		brne .L38
 401:/home/student/avr_src/SimulIDE_1.0.0-SR1_Lin64/mtpS/mtpS.c **** 			case 0b00001110:
 402:/home/student/avr_src/SimulIDE_1.0.0-SR1_Lin64/mtpS/mtpS.c **** 			return 2;
 403:/home/student/avr_src/SimulIDE_1.0.0-SR1_Lin64/mtpS/mtpS.c **** 			case 0b00001101:
 404:/home/student/avr_src/SimulIDE_1.0.0-SR1_Lin64/mtpS/mtpS.c **** 			return 5;
 405:/home/student/avr_src/SimulIDE_1.0.0-SR1_Lin64/mtpS/mtpS.c **** 			case 0b00001011:
 406:/home/student/avr_src/SimulIDE_1.0.0-SR1_Lin64/mtpS/mtpS.c **** 			return 8;
 407:/home/student/avr_src/SimulIDE_1.0.0-SR1_Lin64/mtpS/mtpS.c **** 			case 0b00000111:
 408:/home/student/avr_src/SimulIDE_1.0.0-SR1_Lin64/mtpS/mtpS.c **** 			return 0;
 430               		.stabn	68,0,408,.LM41-.LFBB9
 431               	.LM41:
 432 00dc 80E0      		ldi r24,0
 433 00de 0895      		ret
 434               	.L27:
 400:/home/student/avr_src/SimulIDE_1.0.0-SR1_Lin64/mtpS/mtpS.c **** 			case 0b00001110:
 435               		.stabn	68,0,400,.LM42-.LFBB9
 436               	.LM42:
 437 00e0 8D30      		cpi r24,lo8(13)
 438 00e2 01F0      		breq .L29
 439 00e4 8E30      		cpi r24,lo8(14)
 440 00e6 01F0      		breq .L36
 441 00e8 00C0      		rjmp .L38
 442               	.L29:
 404:/home/student/avr_src/SimulIDE_1.0.0-SR1_Lin64/mtpS/mtpS.c **** 			case 0b00001011:
 443               		.stabn	68,0,404,.LM43-.LFBB9
 444               	.LM43:
 445 00ea 85E0      		ldi r24,lo8(5)
 446 00ec 0895      		ret
 447               	.L26:
 406:/home/student/avr_src/SimulIDE_1.0.0-SR1_Lin64/mtpS/mtpS.c **** 			case 0b00000111:
 448               		.stabn	68,0,406,.LM44-.LFBB9
 449               	.LM44:
 450 00ee 88E0      		ldi r24,lo8(8)
 451 00f0 0895      		ret
 452               	.L18:
 409:/home/student/avr_src/SimulIDE_1.0.0-SR1_Lin64/mtpS/mtpS.c **** 			default:
 410:/home/student/avr_src/SimulIDE_1.0.0-SR1_Lin64/mtpS/mtpS.c **** 			key_flag = 0;
 411:/home/student/avr_src/SimulIDE_1.0.0-SR1_Lin64/mtpS/mtpS.c **** 			return -1;
 412:/home/student/avr_src/SimulIDE_1.0.0-SR1_Lin64/mtpS/mtpS.c **** 		}
 413:/home/student/avr_src/SimulIDE_1.0.0-SR1_Lin64/mtpS/mtpS.c **** 
 414:/home/student/avr_src/SimulIDE_1.0.0-SR1_Lin64/mtpS/mtpS.c **** 		case 2:
 415:/home/student/avr_src/SimulIDE_1.0.0-SR1_Lin64/mtpS/mtpS.c **** 		switch(key){
 453               		.stabn	68,0,415,.LM45-.LFBB9
 454               	.LM45:
 455 00f2 8B30      		cpi r24,lo8(11)
 456 00f4 01F0      		breq .L31
 457 00f6 00F4      		brsh .L32
 458 00f8 8730      		cpi r24,lo8(7)
 459 00fa 01F4      		brne .L38
 416:/home/student/avr_src/SimulIDE_1.0.0-SR1_Lin64/mtpS/mtpS.c **** 			case 0b00001110:
 417:/home/student/avr_src/SimulIDE_1.0.0-SR1_Lin64/mtpS/mtpS.c **** 			return 3;
 418:/home/student/avr_src/SimulIDE_1.0.0-SR1_Lin64/mtpS/mtpS.c **** 			case 0b0001101:
 419:/home/student/avr_src/SimulIDE_1.0.0-SR1_Lin64/mtpS/mtpS.c **** 			return 6;
 420:/home/student/avr_src/SimulIDE_1.0.0-SR1_Lin64/mtpS/mtpS.c **** 			case 0b00001011:
 421:/home/student/avr_src/SimulIDE_1.0.0-SR1_Lin64/mtpS/mtpS.c **** 			return 9;
 422:/home/student/avr_src/SimulIDE_1.0.0-SR1_Lin64/mtpS/mtpS.c **** 			case 0b00000111:
 423:/home/student/avr_src/SimulIDE_1.0.0-SR1_Lin64/mtpS/mtpS.c **** 			return 11;
 460               		.stabn	68,0,423,.LM46-.LFBB9
 461               	.LM46:
 462 00fc 8BE0      		ldi r24,lo8(11)
 463 00fe 0895      		ret
 464               	.L32:
 415:/home/student/avr_src/SimulIDE_1.0.0-SR1_Lin64/mtpS/mtpS.c **** 			case 0b00001110:
 465               		.stabn	68,0,415,.LM47-.LFBB9
 466               	.LM47:
 467 0100 8D30      		cpi r24,lo8(13)
 468 0102 01F0      		breq .L34
 469 0104 8E30      		cpi r24,lo8(14)
 470 0106 01F0      		breq .L37
 471 0108 00C0      		rjmp .L38
 472               	.L34:
 419:/home/student/avr_src/SimulIDE_1.0.0-SR1_Lin64/mtpS/mtpS.c **** 			case 0b00001011:
 473               		.stabn	68,0,419,.LM48-.LFBB9
 474               	.LM48:
 475 010a 86E0      		ldi r24,lo8(6)
 476 010c 0895      		ret
 477               	.L31:
 421:/home/student/avr_src/SimulIDE_1.0.0-SR1_Lin64/mtpS/mtpS.c **** 			case 0b00000111:
 478               		.stabn	68,0,421,.LM49-.LFBB9
 479               	.LM49:
 480 010e 89E0      		ldi r24,lo8(9)
 481 0110 0895      		ret
 482               	.L38:
 424:/home/student/avr_src/SimulIDE_1.0.0-SR1_Lin64/mtpS/mtpS.c **** 			default:
 425:/home/student/avr_src/SimulIDE_1.0.0-SR1_Lin64/mtpS/mtpS.c **** 			key_flag = 0;
 426:/home/student/avr_src/SimulIDE_1.0.0-SR1_Lin64/mtpS/mtpS.c **** 			return -1;
 427:/home/student/avr_src/SimulIDE_1.0.0-SR1_Lin64/mtpS/mtpS.c **** 		}
 428:/home/student/avr_src/SimulIDE_1.0.0-SR1_Lin64/mtpS/mtpS.c **** 		default:
 429:/home/student/avr_src/SimulIDE_1.0.0-SR1_Lin64/mtpS/mtpS.c **** 		key_flag = 0;
 483               		.stabn	68,0,429,.LM50-.LFBB9
 484               	.LM50:
 485 0112 1092 0000 		sts key_flag,__zero_reg__
 430:/home/student/avr_src/SimulIDE_1.0.0-SR1_Lin64/mtpS/mtpS.c **** 		return -1;
 486               		.stabn	68,0,430,.LM51-.LFBB9
 487               	.LM51:
 488 0116 8FEF      		ldi r24,lo8(-1)
 489 0118 0895      		ret
 490               	.L35:
 491               	.LBB106:
 492               	.LBB105:
 387:/home/student/avr_src/SimulIDE_1.0.0-SR1_Lin64/mtpS/mtpS.c **** 			case 0b00001101:
 493               		.stabn	68,0,387,.LM52-.LFBB9
 494               	.LM52:
 495 011a 81E0      		ldi r24,lo8(1)
 496 011c 0895      		ret
 497               	.L36:
 498               	.LBE105:
 499               	.LBE106:
 402:/home/student/avr_src/SimulIDE_1.0.0-SR1_Lin64/mtpS/mtpS.c **** 			case 0b00001101:
 500               		.stabn	68,0,402,.LM53-.LFBB9
 501               	.LM53:
 502 011e 82E0      		ldi r24,lo8(2)
 503 0120 0895      		ret
 504               	.L37:
 417:/home/student/avr_src/SimulIDE_1.0.0-SR1_Lin64/mtpS/mtpS.c **** 			case 0b0001101:
 505               		.stabn	68,0,417,.LM54-.LFBB9
 506               	.LM54:
 507 0122 83E0      		ldi r24,lo8(3)
 431:/home/student/avr_src/SimulIDE_1.0.0-SR1_Lin64/mtpS/mtpS.c **** 	}
 432:/home/student/avr_src/SimulIDE_1.0.0-SR1_Lin64/mtpS/mtpS.c **** }
 508               		.stabn	68,0,432,.LM55-.LFBB9
 509               	.LM55:
 510 0124 0895      		ret
 511               		.size	key_analysis, .-key_analysis
 512               	.Lscope9:
 513               		.stabs	"",36,0,0,.Lscope9-.LFBB9
 514               		.stabd	78,0,0
 515               		.stabs	"num2lcdbyte:F(5,4)",36,0,462,num2lcdbyte
 516               		.stabs	"num:P(0,13)",64,0,462,24
 517               	.global	num2lcdbyte
 518               		.type	num2lcdbyte, @function
 519               	num2lcdbyte:
 520               		.stabd	46,0,0
 433:/home/student/avr_src/SimulIDE_1.0.0-SR1_Lin64/mtpS/mtpS.c **** //====================================================
 434:/home/student/avr_src/SimulIDE_1.0.0-SR1_Lin64/mtpS/mtpS.c **** 
 435:/home/student/avr_src/SimulIDE_1.0.0-SR1_Lin64/mtpS/mtpS.c **** void LCD_Write(unsigned char data){ //mainly command
 436:/home/student/avr_src/SimulIDE_1.0.0-SR1_Lin64/mtpS/mtpS.c **** 	
 437:/home/student/avr_src/SimulIDE_1.0.0-SR1_Lin64/mtpS/mtpS.c **** 	// D7 D6 D5 D4   X  E  RW RS
 438:/home/student/avr_src/SimulIDE_1.0.0-SR1_Lin64/mtpS/mtpS.c **** 	// P7 P6 P5 P4   P3 P2 P1 P0
 439:/home/student/avr_src/SimulIDE_1.0.0-SR1_Lin64/mtpS/mtpS.c **** 	_delay_us(1);
 440:/home/student/avr_src/SimulIDE_1.0.0-SR1_Lin64/mtpS/mtpS.c **** 	//LCD_NEBIT(data);
 441:/home/student/avr_src/SimulIDE_1.0.0-SR1_Lin64/mtpS/mtpS.c **** 	write_AT24Cxx_i2c_byte(data); 
 442:/home/student/avr_src/SimulIDE_1.0.0-SR1_Lin64/mtpS/mtpS.c **** 
 443:/home/student/avr_src/SimulIDE_1.0.0-SR1_Lin64/mtpS/mtpS.c **** }
 444:/home/student/avr_src/SimulIDE_1.0.0-SR1_Lin64/mtpS/mtpS.c **** 
 445:/home/student/avr_src/SimulIDE_1.0.0-SR1_Lin64/mtpS/mtpS.c **** void LCD_CharWrite(uint16_t byte){
 446:/home/student/avr_src/SimulIDE_1.0.0-SR1_Lin64/mtpS/mtpS.c **** 	
 447:/home/student/avr_src/SimulIDE_1.0.0-SR1_Lin64/mtpS/mtpS.c **** 	cli();
 448:/home/student/avr_src/SimulIDE_1.0.0-SR1_Lin64/mtpS/mtpS.c **** 
 449:/home/student/avr_src/SimulIDE_1.0.0-SR1_Lin64/mtpS/mtpS.c **** 	_delay_us(1);
 450:/home/student/avr_src/SimulIDE_1.0.0-SR1_Lin64/mtpS/mtpS.c **** 	AT24Cxx_i2c_start();
 451:/home/student/avr_src/SimulIDE_1.0.0-SR1_Lin64/mtpS/mtpS.c **** 	write_AT24Cxx_i2c_LCDAddressing((I2CLCD_ADDR << 1)); 
 452:/home/student/avr_src/SimulIDE_1.0.0-SR1_Lin64/mtpS/mtpS.c **** 	unsigned char upperbits = byte>>8 & 0xFF;
 453:/home/student/avr_src/SimulIDE_1.0.0-SR1_Lin64/mtpS/mtpS.c **** 	unsigned char lowerbits = byte & 0xFF;
 454:/home/student/avr_src/SimulIDE_1.0.0-SR1_Lin64/mtpS/mtpS.c **** 	LCD_NEBIT(upperbits);
 455:/home/student/avr_src/SimulIDE_1.0.0-SR1_Lin64/mtpS/mtpS.c **** 	write_AT24Cxx_i2c_byte(upperbits); 
 456:/home/student/avr_src/SimulIDE_1.0.0-SR1_Lin64/mtpS/mtpS.c **** 	LCD_NEBIT(lowerbits);
 457:/home/student/avr_src/SimulIDE_1.0.0-SR1_Lin64/mtpS/mtpS.c **** 	write_AT24Cxx_i2c_byte(lowerbits); 
 458:/home/student/avr_src/SimulIDE_1.0.0-SR1_Lin64/mtpS/mtpS.c **** 	AT24Cxx_i2c_stop();
 459:/home/student/avr_src/SimulIDE_1.0.0-SR1_Lin64/mtpS/mtpS.c **** 	sei();
 460:/home/student/avr_src/SimulIDE_1.0.0-SR1_Lin64/mtpS/mtpS.c **** }
 461:/home/student/avr_src/SimulIDE_1.0.0-SR1_Lin64/mtpS/mtpS.c **** 
 462:/home/student/avr_src/SimulIDE_1.0.0-SR1_Lin64/mtpS/mtpS.c **** uint16_t num2lcdbyte(unsigned char num){
 521               		.stabn	68,0,462,.LM56-.LFBB10
 522               	.LM56:
 523               	.LFBB10:
 524               	/* prologue: function */
 525               	/* frame size = 0 */
 526               	/* stack size = 0 */
 527               	.L__stack_usage = 0
 463:/home/student/avr_src/SimulIDE_1.0.0-SR1_Lin64/mtpS/mtpS.c **** 	// D7 D6 D5 D4   X  E  RW RS
 464:/home/student/avr_src/SimulIDE_1.0.0-SR1_Lin64/mtpS/mtpS.c **** 	// P7 P6 P5 P4   P3 P2 P1 P0
 465:/home/student/avr_src/SimulIDE_1.0.0-SR1_Lin64/mtpS/mtpS.c **** 
 466:/home/student/avr_src/SimulIDE_1.0.0-SR1_Lin64/mtpS/mtpS.c **** 	if(num == 0) return 0x3101;
 528               		.stabn	68,0,466,.LM57-.LFBB10
 529               	.LM57:
 530 0126 8823      		tst r24
 531 0128 01F0      		breq .L41
 467:/home/student/avr_src/SimulIDE_1.0.0-SR1_Lin64/mtpS/mtpS.c **** 	if(num == 1) return 0x3111;
 532               		.stabn	68,0,467,.LM58-.LFBB10
 533               	.LM58:
 534 012a 8130      		cpi r24,lo8(1)
 535 012c 01F0      		breq .L42
 468:/home/student/avr_src/SimulIDE_1.0.0-SR1_Lin64/mtpS/mtpS.c **** 	if(num == 2) return 0x3121;
 536               		.stabn	68,0,468,.LM59-.LFBB10
 537               	.LM59:
 538 012e 8230      		cpi r24,lo8(2)
 539 0130 01F0      		breq .L43
 469:/home/student/avr_src/SimulIDE_1.0.0-SR1_Lin64/mtpS/mtpS.c **** 	if(num == 3) return 0x3131;
 540               		.stabn	68,0,469,.LM60-.LFBB10
 541               	.LM60:
 542 0132 8330      		cpi r24,lo8(3)
 543 0134 01F0      		breq .L44
 470:/home/student/avr_src/SimulIDE_1.0.0-SR1_Lin64/mtpS/mtpS.c **** 	if(num == 4) return 0x3141;
 544               		.stabn	68,0,470,.LM61-.LFBB10
 545               	.LM61:
 546 0136 8430      		cpi r24,lo8(4)
 547 0138 01F0      		breq .L45
 471:/home/student/avr_src/SimulIDE_1.0.0-SR1_Lin64/mtpS/mtpS.c **** 	if(num == 5) return 0x3151;
 548               		.stabn	68,0,471,.LM62-.LFBB10
 549               	.LM62:
 550 013a 8530      		cpi r24,lo8(5)
 551 013c 01F0      		breq .L46
 472:/home/student/avr_src/SimulIDE_1.0.0-SR1_Lin64/mtpS/mtpS.c **** 	if(num == 6) return 0x3161;
 552               		.stabn	68,0,472,.LM63-.LFBB10
 553               	.LM63:
 554 013e 8630      		cpi r24,lo8(6)
 555 0140 01F0      		breq .L47
 473:/home/student/avr_src/SimulIDE_1.0.0-SR1_Lin64/mtpS/mtpS.c **** 	if(num == 7) return 0x3171;
 556               		.stabn	68,0,473,.LM64-.LFBB10
 557               	.LM64:
 558 0142 8730      		cpi r24,lo8(7)
 559 0144 01F0      		breq .L48
 560               	.LBB109:
 561               	.LBB110:
 474:/home/student/avr_src/SimulIDE_1.0.0-SR1_Lin64/mtpS/mtpS.c **** 	if(num == 8) return 0x3181;
 562               		.stabn	68,0,474,.LM65-.LFBB10
 563               	.LM65:
 564 0146 8830      		cpi r24,lo8(8)
 565 0148 01F0      		breq .L49
 475:/home/student/avr_src/SimulIDE_1.0.0-SR1_Lin64/mtpS/mtpS.c **** 	if(num == 9) return 0x3191;
 566               		.stabn	68,0,475,.LM66-.LFBB10
 567               	.LM66:
 568 014a 8930      		cpi r24,lo8(9)
 569 014c 01F0      		breq .L50
 476:/home/student/avr_src/SimulIDE_1.0.0-SR1_Lin64/mtpS/mtpS.c **** 
 477:/home/student/avr_src/SimulIDE_1.0.0-SR1_Lin64/mtpS/mtpS.c **** 	return -1;
 570               		.stabn	68,0,477,.LM67-.LFBB10
 571               	.LM67:
 572 014e 8FEF      		ldi r24,lo8(-1)
 573 0150 9FEF      		ldi r25,lo8(-1)
 574 0152 0895      		ret
 575               	.L41:
 576               	.LBE110:
 577               	.LBE109:
 466:/home/student/avr_src/SimulIDE_1.0.0-SR1_Lin64/mtpS/mtpS.c **** 	if(num == 1) return 0x3111;
 578               		.stabn	68,0,466,.LM68-.LFBB10
 579               	.LM68:
 580 0154 81E0      		ldi r24,lo8(1)
 581 0156 91E3      		ldi r25,lo8(49)
 582 0158 0895      		ret
 583               	.L42:
 467:/home/student/avr_src/SimulIDE_1.0.0-SR1_Lin64/mtpS/mtpS.c **** 	if(num == 2) return 0x3121;
 584               		.stabn	68,0,467,.LM69-.LFBB10
 585               	.LM69:
 586 015a 81E1      		ldi r24,lo8(17)
 587 015c 91E3      		ldi r25,lo8(49)
 588 015e 0895      		ret
 589               	.L43:
 468:/home/student/avr_src/SimulIDE_1.0.0-SR1_Lin64/mtpS/mtpS.c **** 	if(num == 3) return 0x3131;
 590               		.stabn	68,0,468,.LM70-.LFBB10
 591               	.LM70:
 592 0160 81E2      		ldi r24,lo8(33)
 593 0162 91E3      		ldi r25,lo8(49)
 594 0164 0895      		ret
 595               	.L44:
 469:/home/student/avr_src/SimulIDE_1.0.0-SR1_Lin64/mtpS/mtpS.c **** 	if(num == 4) return 0x3141;
 596               		.stabn	68,0,469,.LM71-.LFBB10
 597               	.LM71:
 598 0166 81E3      		ldi r24,lo8(49)
 599 0168 91E3      		ldi r25,lo8(49)
 600 016a 0895      		ret
 601               	.L45:
 470:/home/student/avr_src/SimulIDE_1.0.0-SR1_Lin64/mtpS/mtpS.c **** 	if(num == 5) return 0x3151;
 602               		.stabn	68,0,470,.LM72-.LFBB10
 603               	.LM72:
 604 016c 81E4      		ldi r24,lo8(65)
 605 016e 91E3      		ldi r25,lo8(49)
 606 0170 0895      		ret
 607               	.L46:
 471:/home/student/avr_src/SimulIDE_1.0.0-SR1_Lin64/mtpS/mtpS.c **** 	if(num == 6) return 0x3161;
 608               		.stabn	68,0,471,.LM73-.LFBB10
 609               	.LM73:
 610 0172 81E5      		ldi r24,lo8(81)
 611 0174 91E3      		ldi r25,lo8(49)
 612 0176 0895      		ret
 613               	.L47:
 472:/home/student/avr_src/SimulIDE_1.0.0-SR1_Lin64/mtpS/mtpS.c **** 	if(num == 7) return 0x3171;
 614               		.stabn	68,0,472,.LM74-.LFBB10
 615               	.LM74:
 616 0178 81E6      		ldi r24,lo8(97)
 617 017a 91E3      		ldi r25,lo8(49)
 618 017c 0895      		ret
 619               	.L48:
 473:/home/student/avr_src/SimulIDE_1.0.0-SR1_Lin64/mtpS/mtpS.c **** 	if(num == 8) return 0x3181;
 620               		.stabn	68,0,473,.LM75-.LFBB10
 621               	.LM75:
 622 017e 81E7      		ldi r24,lo8(113)
 623 0180 91E3      		ldi r25,lo8(49)
 624 0182 0895      		ret
 625               	.L49:
 626               	.LBB112:
 627               	.LBB111:
 474:/home/student/avr_src/SimulIDE_1.0.0-SR1_Lin64/mtpS/mtpS.c **** 	if(num == 9) return 0x3191;
 628               		.stabn	68,0,474,.LM76-.LFBB10
 629               	.LM76:
 630 0184 81E8      		ldi r24,lo8(-127)
 631 0186 91E3      		ldi r25,lo8(49)
 632 0188 0895      		ret
 633               	.L50:
 475:/home/student/avr_src/SimulIDE_1.0.0-SR1_Lin64/mtpS/mtpS.c **** 
 634               		.stabn	68,0,475,.LM77-.LFBB10
 635               	.LM77:
 636 018a 81E9      		ldi r24,lo8(-111)
 637 018c 91E3      		ldi r25,lo8(49)
 638               	.LBE111:
 639               	.LBE112:
 478:/home/student/avr_src/SimulIDE_1.0.0-SR1_Lin64/mtpS/mtpS.c **** 
 479:/home/student/avr_src/SimulIDE_1.0.0-SR1_Lin64/mtpS/mtpS.c **** }
 640               		.stabn	68,0,479,.LM78-.LFBB10
 641               	.LM78:
 642 018e 0895      		ret
 643               		.size	num2lcdbyte, .-num2lcdbyte
 644               	.Lscope10:
 645               		.stabs	"",36,0,0,.Lscope10-.LFBB10
 646               		.stabd	78,0,0
 647               		.stabs	"write_AT24Cxx_i2c_LCDAddressing:F(0,49)",36,0,481,write_AT24Cxx_i2c_LCDAddressing
 648               		.stabs	"byte:P(0,13)",64,0,481,24
 649               	.global	write_AT24Cxx_i2c_LCDAddressing
 650               		.type	write_AT24Cxx_i2c_LCDAddressing, @function
 651               	write_AT24Cxx_i2c_LCDAddressing:
 652               		.stabd	46,0,0
 480:/home/student/avr_src/SimulIDE_1.0.0-SR1_Lin64/mtpS/mtpS.c **** //====================================================
 481:/home/student/avr_src/SimulIDE_1.0.0-SR1_Lin64/mtpS/mtpS.c **** void write_AT24Cxx_i2c_LCDAddressing(unsigned char byte){
 653               		.stabn	68,0,481,.LM79-.LFBB11
 654               	.LM79:
 655               	.LFBB11:
 656               	/* prologue: function */
 657               	/* frame size = 0 */
 658               	/* stack size = 0 */
 659               	.L__stack_usage = 0
 660               	.LBB113:
 661               	.LBB114:
 662               		.stabs	"/usr/lib/avr/include/util/delay.h",132,0,0,.Ltext1
 663               	.Ltext1:
   1:/usr/lib/avr/include/util/delay.h **** /* Copyright (c) 2002, Marek Michalkiewicz
   2:/usr/lib/avr/include/util/delay.h ****    Copyright (c) 2004,2005,2007 Joerg Wunsch
   3:/usr/lib/avr/include/util/delay.h ****    Copyright (c) 2007  Florin-Viorel Petrov
   4:/usr/lib/avr/include/util/delay.h ****    All rights reserved.
   5:/usr/lib/avr/include/util/delay.h **** 
   6:/usr/lib/avr/include/util/delay.h ****    Redistribution and use in source and binary forms, with or without
   7:/usr/lib/avr/include/util/delay.h ****    modification, are permitted provided that the following conditions are met:
   8:/usr/lib/avr/include/util/delay.h **** 
   9:/usr/lib/avr/include/util/delay.h ****    * Redistributions of source code must retain the above copyright
  10:/usr/lib/avr/include/util/delay.h ****      notice, this list of conditions and the following disclaimer.
  11:/usr/lib/avr/include/util/delay.h **** 
  12:/usr/lib/avr/include/util/delay.h ****    * Redistributions in binary form must reproduce the above copyright
  13:/usr/lib/avr/include/util/delay.h ****      notice, this list of conditions and the following disclaimer in
  14:/usr/lib/avr/include/util/delay.h ****      the documentation and/or other materials provided with the
  15:/usr/lib/avr/include/util/delay.h ****      distribution.
  16:/usr/lib/avr/include/util/delay.h **** 
  17:/usr/lib/avr/include/util/delay.h ****    * Neither the name of the copyright holders nor the names of
  18:/usr/lib/avr/include/util/delay.h ****      contributors may be used to endorse or promote products derived
  19:/usr/lib/avr/include/util/delay.h ****      from this software without specific prior written permission.
  20:/usr/lib/avr/include/util/delay.h **** 
  21:/usr/lib/avr/include/util/delay.h ****   THIS SOFTWARE IS PROVIDED BY THE COPYRIGHT HOLDERS AND CONTRIBUTORS "AS IS"
  22:/usr/lib/avr/include/util/delay.h ****   AND ANY EXPRESS OR IMPLIED WARRANTIES, INCLUDING, BUT NOT LIMITED TO, THE
  23:/usr/lib/avr/include/util/delay.h ****   IMPLIED WARRANTIES OF MERCHANTABILITY AND FITNESS FOR A PARTICULAR PURPOSE
  24:/usr/lib/avr/include/util/delay.h ****   ARE DISCLAIMED. IN NO EVENT SHALL THE COPYRIGHT OWNER OR CONTRIBUTORS BE
  25:/usr/lib/avr/include/util/delay.h ****   LIABLE FOR ANY DIRECT, INDIRECT, INCIDENTAL, SPECIAL, EXEMPLARY, OR
  26:/usr/lib/avr/include/util/delay.h ****   CONSEQUENTIAL DAMAGES (INCLUDING, BUT NOT LIMITED TO, PROCUREMENT OF
  27:/usr/lib/avr/include/util/delay.h ****   SUBSTITUTE GOODS OR SERVICES; LOSS OF USE, DATA, OR PROFITS; OR BUSINESS
  28:/usr/lib/avr/include/util/delay.h ****   INTERRUPTION) HOWEVER CAUSED AND ON ANY THEORY OF LIABILITY, WHETHER IN
  29:/usr/lib/avr/include/util/delay.h ****   CONTRACT, STRICT LIABILITY, OR TORT (INCLUDING NEGLIGENCE OR OTHERWISE)
  30:/usr/lib/avr/include/util/delay.h ****   ARISING IN ANY WAY OUT OF THE USE OF THIS SOFTWARE, EVEN IF ADVISED OF THE
  31:/usr/lib/avr/include/util/delay.h ****   POSSIBILITY OF SUCH DAMAGE. */
  32:/usr/lib/avr/include/util/delay.h **** 
  33:/usr/lib/avr/include/util/delay.h **** /* $Id$ */
  34:/usr/lib/avr/include/util/delay.h **** 
  35:/usr/lib/avr/include/util/delay.h **** #ifndef _UTIL_DELAY_H_
  36:/usr/lib/avr/include/util/delay.h **** #define _UTIL_DELAY_H_ 1
  37:/usr/lib/avr/include/util/delay.h **** 
  38:/usr/lib/avr/include/util/delay.h **** #ifndef __DOXYGEN__
  39:/usr/lib/avr/include/util/delay.h **** #  ifndef __HAS_DELAY_CYCLES
  40:/usr/lib/avr/include/util/delay.h **** #    define __HAS_DELAY_CYCLES 1
  41:/usr/lib/avr/include/util/delay.h **** #  endif
  42:/usr/lib/avr/include/util/delay.h **** #endif  /* __DOXYGEN__ */
  43:/usr/lib/avr/include/util/delay.h **** 
  44:/usr/lib/avr/include/util/delay.h **** #include <inttypes.h>
  45:/usr/lib/avr/include/util/delay.h **** #include <util/delay_basic.h>
  46:/usr/lib/avr/include/util/delay.h **** #include <math.h>
  47:/usr/lib/avr/include/util/delay.h **** 
  48:/usr/lib/avr/include/util/delay.h **** /** \file */
  49:/usr/lib/avr/include/util/delay.h **** /** \defgroup util_delay <util/delay.h>: Convenience functions for busy-wait delay loops
  50:/usr/lib/avr/include/util/delay.h ****     \code
  51:/usr/lib/avr/include/util/delay.h ****     #define F_CPU 1000000UL  // 1 MHz
  52:/usr/lib/avr/include/util/delay.h ****     //#define F_CPU 14.7456E6
  53:/usr/lib/avr/include/util/delay.h ****     #include <util/delay.h>
  54:/usr/lib/avr/include/util/delay.h ****     \endcode
  55:/usr/lib/avr/include/util/delay.h **** 
  56:/usr/lib/avr/include/util/delay.h ****     \note As an alternative method, it is possible to pass the
  57:/usr/lib/avr/include/util/delay.h ****     F_CPU macro down to the compiler from the Makefile.
  58:/usr/lib/avr/include/util/delay.h ****     Obviously, in that case, no \c \#define statement should be
  59:/usr/lib/avr/include/util/delay.h ****     used.
  60:/usr/lib/avr/include/util/delay.h **** 
  61:/usr/lib/avr/include/util/delay.h ****     The functions in this header file are wrappers around the basic
  62:/usr/lib/avr/include/util/delay.h ****     busy-wait functions from <util/delay_basic.h>.  They are meant as
  63:/usr/lib/avr/include/util/delay.h ****     convenience functions where actual time values can be specified
  64:/usr/lib/avr/include/util/delay.h ****     rather than a number of cycles to wait for.  The idea behind is
  65:/usr/lib/avr/include/util/delay.h ****     that compile-time constant expressions will be eliminated by
  66:/usr/lib/avr/include/util/delay.h ****     compiler optimization so floating-point expressions can be used
  67:/usr/lib/avr/include/util/delay.h ****     to calculate the number of delay cycles needed based on the CPU
  68:/usr/lib/avr/include/util/delay.h ****     frequency passed by the macro F_CPU.
  69:/usr/lib/avr/include/util/delay.h **** 
  70:/usr/lib/avr/include/util/delay.h ****     \note In order for these functions to work as intended, compiler
  71:/usr/lib/avr/include/util/delay.h ****     optimizations <em>must</em> be enabled, and the delay time
  72:/usr/lib/avr/include/util/delay.h ****     <em>must</em> be an expression that is a known constant at
  73:/usr/lib/avr/include/util/delay.h ****     compile-time.  If these requirements are not met, the resulting
  74:/usr/lib/avr/include/util/delay.h ****     delay will be much longer (and basically unpredictable), and
  75:/usr/lib/avr/include/util/delay.h ****     applications that otherwise do not use floating-point calculations
  76:/usr/lib/avr/include/util/delay.h ****     will experience severe code bloat by the floating-point library
  77:/usr/lib/avr/include/util/delay.h ****     routines linked into the application.
  78:/usr/lib/avr/include/util/delay.h **** 
  79:/usr/lib/avr/include/util/delay.h ****     The functions available allow the specification of microsecond, and
  80:/usr/lib/avr/include/util/delay.h ****     millisecond delays directly, using the application-supplied macro
  81:/usr/lib/avr/include/util/delay.h ****     F_CPU as the CPU clock frequency (in Hertz).
  82:/usr/lib/avr/include/util/delay.h **** 
  83:/usr/lib/avr/include/util/delay.h **** */
  84:/usr/lib/avr/include/util/delay.h **** 
  85:/usr/lib/avr/include/util/delay.h **** #if !defined(__DOXYGEN__)
  86:/usr/lib/avr/include/util/delay.h **** static __inline__ void _delay_us(double __us) __attribute__((__always_inline__));
  87:/usr/lib/avr/include/util/delay.h **** static __inline__ void _delay_ms(double __ms) __attribute__((__always_inline__));
  88:/usr/lib/avr/include/util/delay.h **** #endif
  89:/usr/lib/avr/include/util/delay.h **** 
  90:/usr/lib/avr/include/util/delay.h **** #ifndef F_CPU
  91:/usr/lib/avr/include/util/delay.h **** /* prevent compiler error by supplying a default */
  92:/usr/lib/avr/include/util/delay.h **** # warning "F_CPU not defined for <util/delay.h>"
  93:/usr/lib/avr/include/util/delay.h **** /** \ingroup util_delay
  94:/usr/lib/avr/include/util/delay.h ****     \def F_CPU
  95:/usr/lib/avr/include/util/delay.h ****     \brief CPU frequency in Hz
  96:/usr/lib/avr/include/util/delay.h **** 
  97:/usr/lib/avr/include/util/delay.h ****     The macro F_CPU specifies the CPU frequency to be considered by
  98:/usr/lib/avr/include/util/delay.h ****     the delay macros.  This macro is normally supplied by the
  99:/usr/lib/avr/include/util/delay.h ****     environment (e.g. from within a project header, or the project's
 100:/usr/lib/avr/include/util/delay.h ****     Makefile).  The value 1 MHz here is only provided as a "vanilla"
 101:/usr/lib/avr/include/util/delay.h ****     fallback if no such user-provided definition could be found.
 102:/usr/lib/avr/include/util/delay.h **** 
 103:/usr/lib/avr/include/util/delay.h ****     In terms of the delay functions, the CPU frequency can be given as
 104:/usr/lib/avr/include/util/delay.h ****     a floating-point constant (e.g. 3.6864E6 for 3.6864 MHz).
 105:/usr/lib/avr/include/util/delay.h ****     However, the macros in <util/setbaud.h> require it to be an
 106:/usr/lib/avr/include/util/delay.h ****     integer value.
 107:/usr/lib/avr/include/util/delay.h ****  */
 108:/usr/lib/avr/include/util/delay.h **** # define F_CPU 1000000UL
 109:/usr/lib/avr/include/util/delay.h **** #endif
 110:/usr/lib/avr/include/util/delay.h **** 
 111:/usr/lib/avr/include/util/delay.h **** #ifndef __OPTIMIZE__
 112:/usr/lib/avr/include/util/delay.h **** # warning "Compiler optimizations disabled; functions from <util/delay.h> won't work as designed"
 113:/usr/lib/avr/include/util/delay.h **** #endif
 114:/usr/lib/avr/include/util/delay.h **** 
 115:/usr/lib/avr/include/util/delay.h **** #if __HAS_DELAY_CYCLES && defined(__OPTIMIZE__) && \
 116:/usr/lib/avr/include/util/delay.h ****   !defined(__DELAY_BACKWARD_COMPATIBLE__) &&	   \
 117:/usr/lib/avr/include/util/delay.h ****   __STDC_HOSTED__
 118:/usr/lib/avr/include/util/delay.h **** #  include <math.h>
 119:/usr/lib/avr/include/util/delay.h **** #endif
 120:/usr/lib/avr/include/util/delay.h **** 
 121:/usr/lib/avr/include/util/delay.h **** /**
 122:/usr/lib/avr/include/util/delay.h ****    \ingroup util_delay
 123:/usr/lib/avr/include/util/delay.h **** 
 124:/usr/lib/avr/include/util/delay.h ****    Perform a delay of \c __ms milliseconds, using _delay_loop_2().
 125:/usr/lib/avr/include/util/delay.h **** 
 126:/usr/lib/avr/include/util/delay.h ****    The macro F_CPU is supposed to be defined to a
 127:/usr/lib/avr/include/util/delay.h ****    constant defining the CPU clock frequency (in Hertz).
 128:/usr/lib/avr/include/util/delay.h **** 
 129:/usr/lib/avr/include/util/delay.h ****    The maximal possible delay is 262.14 ms / F_CPU in MHz.
 130:/usr/lib/avr/include/util/delay.h **** 
 131:/usr/lib/avr/include/util/delay.h ****    When the user request delay which exceed the maximum possible one,
 132:/usr/lib/avr/include/util/delay.h ****    _delay_ms() provides a decreased resolution functionality. In this
 133:/usr/lib/avr/include/util/delay.h ****    mode _delay_ms() will work with a resolution of 1/10 ms, providing
 134:/usr/lib/avr/include/util/delay.h ****    delays up to 6.5535 seconds (independent from CPU frequency).  The
 135:/usr/lib/avr/include/util/delay.h ****    user will not be informed about decreased resolution.
 136:/usr/lib/avr/include/util/delay.h **** 
 137:/usr/lib/avr/include/util/delay.h ****    If the avr-gcc toolchain has __builtin_avr_delay_cycles()
 138:/usr/lib/avr/include/util/delay.h ****    support, maximal possible delay is 4294967.295 ms/ F_CPU in MHz. For
 139:/usr/lib/avr/include/util/delay.h ****    values greater than the maximal possible delay, overflows results in
 140:/usr/lib/avr/include/util/delay.h ****    no delay i.e., 0ms.
 141:/usr/lib/avr/include/util/delay.h **** 
 142:/usr/lib/avr/include/util/delay.h ****    Conversion of \c __ms into clock cycles may not always result in
 143:/usr/lib/avr/include/util/delay.h ****    integer.  By default, the clock cycles rounded up to next
 144:/usr/lib/avr/include/util/delay.h ****    integer. This ensures that the user gets at least \c __ms
 145:/usr/lib/avr/include/util/delay.h ****    microseconds of delay.
 146:/usr/lib/avr/include/util/delay.h **** 
 147:/usr/lib/avr/include/util/delay.h ****    Alternatively, by defining the macro \c __DELAY_ROUND_DOWN__, or
 148:/usr/lib/avr/include/util/delay.h ****    \c __DELAY_ROUND_CLOSEST__, before including this header file, the
 149:/usr/lib/avr/include/util/delay.h ****    algorithm can be made to round down, or round to closest integer,
 150:/usr/lib/avr/include/util/delay.h ****    respectively.
 151:/usr/lib/avr/include/util/delay.h **** 
 152:/usr/lib/avr/include/util/delay.h ****    \note
 153:/usr/lib/avr/include/util/delay.h **** 
 154:/usr/lib/avr/include/util/delay.h ****    The implementation of _delay_ms() based on
 155:/usr/lib/avr/include/util/delay.h ****    __builtin_avr_delay_cycles() is not backward compatible with older
 156:/usr/lib/avr/include/util/delay.h ****    implementations.  In order to get functionality backward compatible
 157:/usr/lib/avr/include/util/delay.h ****    with previous versions, the macro \c "__DELAY_BACKWARD_COMPATIBLE__"
 158:/usr/lib/avr/include/util/delay.h ****    must be defined before including this header file. Also, the
 159:/usr/lib/avr/include/util/delay.h ****    backward compatible algorithm will be chosen if the code is
 160:/usr/lib/avr/include/util/delay.h ****    compiled in a <em>freestanding environment</em> (GCC option
 161:/usr/lib/avr/include/util/delay.h ****    \c -ffreestanding), as the math functions required for rounding are
 162:/usr/lib/avr/include/util/delay.h ****    not available to the compiler then.
 163:/usr/lib/avr/include/util/delay.h **** 
 164:/usr/lib/avr/include/util/delay.h ****  */
 165:/usr/lib/avr/include/util/delay.h **** void
 166:/usr/lib/avr/include/util/delay.h **** _delay_ms(double __ms)
 167:/usr/lib/avr/include/util/delay.h **** {
 168:/usr/lib/avr/include/util/delay.h **** 	double __tmp ;
 169:/usr/lib/avr/include/util/delay.h **** #if __HAS_DELAY_CYCLES && defined(__OPTIMIZE__) && \
 170:/usr/lib/avr/include/util/delay.h ****   !defined(__DELAY_BACKWARD_COMPATIBLE__) &&	   \
 171:/usr/lib/avr/include/util/delay.h ****   __STDC_HOSTED__
 172:/usr/lib/avr/include/util/delay.h **** 	uint32_t __ticks_dc;
 173:/usr/lib/avr/include/util/delay.h **** 	extern void __builtin_avr_delay_cycles(unsigned long);
 174:/usr/lib/avr/include/util/delay.h **** 	__tmp = ((F_CPU) / 1e3) * __ms;
 175:/usr/lib/avr/include/util/delay.h **** 
 176:/usr/lib/avr/include/util/delay.h **** 	#if defined(__DELAY_ROUND_DOWN__)
 177:/usr/lib/avr/include/util/delay.h **** 		__ticks_dc = (uint32_t)fabs(__tmp);
 178:/usr/lib/avr/include/util/delay.h **** 
 179:/usr/lib/avr/include/util/delay.h **** 	#elif defined(__DELAY_ROUND_CLOSEST__)
 180:/usr/lib/avr/include/util/delay.h **** 		__ticks_dc = (uint32_t)(fabs(__tmp)+0.5);
 181:/usr/lib/avr/include/util/delay.h **** 
 182:/usr/lib/avr/include/util/delay.h **** 	#else
 183:/usr/lib/avr/include/util/delay.h **** 		//round up by default
 184:/usr/lib/avr/include/util/delay.h **** 		__ticks_dc = (uint32_t)(ceil(fabs(__tmp)));
 185:/usr/lib/avr/include/util/delay.h **** 	#endif
 186:/usr/lib/avr/include/util/delay.h **** 
 187:/usr/lib/avr/include/util/delay.h **** 	__builtin_avr_delay_cycles(__ticks_dc);
 188:/usr/lib/avr/include/util/delay.h **** 
 189:/usr/lib/avr/include/util/delay.h **** #else
 190:/usr/lib/avr/include/util/delay.h **** 	uint16_t __ticks;
 191:/usr/lib/avr/include/util/delay.h **** 	__tmp = ((F_CPU) / 4e3) * __ms;
 192:/usr/lib/avr/include/util/delay.h **** 	if (__tmp < 1.0)
 193:/usr/lib/avr/include/util/delay.h **** 		__ticks = 1;
 194:/usr/lib/avr/include/util/delay.h **** 	else if (__tmp > 65535)
 195:/usr/lib/avr/include/util/delay.h **** 	{
 196:/usr/lib/avr/include/util/delay.h **** 		//	__ticks = requested delay in 1/10 ms
 197:/usr/lib/avr/include/util/delay.h **** 		__ticks = (uint16_t) (__ms * 10.0);
 198:/usr/lib/avr/include/util/delay.h **** 		while(__ticks)
 199:/usr/lib/avr/include/util/delay.h **** 		{
 200:/usr/lib/avr/include/util/delay.h **** 			// wait 1/10 ms
 201:/usr/lib/avr/include/util/delay.h **** 			_delay_loop_2(((F_CPU) / 4e3) / 10);
 202:/usr/lib/avr/include/util/delay.h **** 			__ticks --;
 203:/usr/lib/avr/include/util/delay.h **** 		}
 204:/usr/lib/avr/include/util/delay.h **** 		return;
 205:/usr/lib/avr/include/util/delay.h **** 	}
 206:/usr/lib/avr/include/util/delay.h **** 	else
 207:/usr/lib/avr/include/util/delay.h **** 		__ticks = (uint16_t)__tmp;
 208:/usr/lib/avr/include/util/delay.h **** 	_delay_loop_2(__ticks);
 209:/usr/lib/avr/include/util/delay.h **** #endif
 210:/usr/lib/avr/include/util/delay.h **** }
 211:/usr/lib/avr/include/util/delay.h **** 
 212:/usr/lib/avr/include/util/delay.h **** /**
 213:/usr/lib/avr/include/util/delay.h ****    \ingroup util_delay
 214:/usr/lib/avr/include/util/delay.h **** 
 215:/usr/lib/avr/include/util/delay.h ****    Perform a delay of \c __us microseconds, using _delay_loop_1().
 216:/usr/lib/avr/include/util/delay.h **** 
 217:/usr/lib/avr/include/util/delay.h ****    The macro F_CPU is supposed to be defined to a
 218:/usr/lib/avr/include/util/delay.h ****    constant defining the CPU clock frequency (in Hertz).
 219:/usr/lib/avr/include/util/delay.h **** 
 220:/usr/lib/avr/include/util/delay.h ****    The maximal possible delay is 768 us / F_CPU in MHz.
 221:/usr/lib/avr/include/util/delay.h **** 
 222:/usr/lib/avr/include/util/delay.h ****    If the user requests a delay greater than the maximal possible one,
 223:/usr/lib/avr/include/util/delay.h ****    _delay_us() will automatically call _delay_ms() instead.  The user
 224:/usr/lib/avr/include/util/delay.h ****    will not be informed about this case.
 225:/usr/lib/avr/include/util/delay.h **** 
 226:/usr/lib/avr/include/util/delay.h ****    If the avr-gcc toolchain has __builtin_avr_delay_cycles()
 227:/usr/lib/avr/include/util/delay.h ****    support, maximal possible delay is 4294967.295 us/ F_CPU in MHz. For
 228:/usr/lib/avr/include/util/delay.h ****    values greater than the maximal possible delay, overflow results in
 229:/usr/lib/avr/include/util/delay.h ****    no delay i.e., 0us.
 230:/usr/lib/avr/include/util/delay.h **** 
 231:/usr/lib/avr/include/util/delay.h ****    Conversion of \c __us into clock cycles may not always result in
 232:/usr/lib/avr/include/util/delay.h ****    integer.  By default, the clock cycles rounded up to next
 233:/usr/lib/avr/include/util/delay.h ****    integer. This ensures that the user gets at least \c __us
 234:/usr/lib/avr/include/util/delay.h ****    microseconds of delay.
 235:/usr/lib/avr/include/util/delay.h **** 
 236:/usr/lib/avr/include/util/delay.h ****    Alternatively, by defining the macro \c __DELAY_ROUND_DOWN__, or
 237:/usr/lib/avr/include/util/delay.h ****    \c __DELAY_ROUND_CLOSEST__, before including this header file, the
 238:/usr/lib/avr/include/util/delay.h ****    algorithm can be made to round down, or round to closest integer,
 239:/usr/lib/avr/include/util/delay.h ****    respectively.
 240:/usr/lib/avr/include/util/delay.h **** 
 241:/usr/lib/avr/include/util/delay.h ****    \note
 242:/usr/lib/avr/include/util/delay.h **** 
 243:/usr/lib/avr/include/util/delay.h ****    The implementation of _delay_ms() based on
 244:/usr/lib/avr/include/util/delay.h ****    __builtin_avr_delay_cycles() is not backward compatible with older
 245:/usr/lib/avr/include/util/delay.h ****    implementations.  In order to get functionality backward compatible
 246:/usr/lib/avr/include/util/delay.h ****    with previous versions, the macro \c __DELAY_BACKWARD_COMPATIBLE__
 247:/usr/lib/avr/include/util/delay.h ****    must be defined before including this header file. Also, the
 248:/usr/lib/avr/include/util/delay.h ****    backward compatible algorithm will be chosen if the code is
 249:/usr/lib/avr/include/util/delay.h ****    compiled in a <em>freestanding environment</em> (GCC option
 250:/usr/lib/avr/include/util/delay.h ****    \c -ffreestanding), as the math functions required for rounding are
 251:/usr/lib/avr/include/util/delay.h ****    not available to the compiler then.
 252:/usr/lib/avr/include/util/delay.h **** 
 253:/usr/lib/avr/include/util/delay.h ****  */
 254:/usr/lib/avr/include/util/delay.h **** void
 255:/usr/lib/avr/include/util/delay.h **** _delay_us(double __us)
 256:/usr/lib/avr/include/util/delay.h **** {
 257:/usr/lib/avr/include/util/delay.h **** 	double __tmp ;
 258:/usr/lib/avr/include/util/delay.h **** #if __HAS_DELAY_CYCLES && defined(__OPTIMIZE__) && \
 259:/usr/lib/avr/include/util/delay.h ****   !defined(__DELAY_BACKWARD_COMPATIBLE__) &&	   \
 260:/usr/lib/avr/include/util/delay.h ****   __STDC_HOSTED__
 261:/usr/lib/avr/include/util/delay.h **** 	uint32_t __ticks_dc;
 262:/usr/lib/avr/include/util/delay.h **** 	extern void __builtin_avr_delay_cycles(unsigned long);
 263:/usr/lib/avr/include/util/delay.h **** 	__tmp = ((F_CPU) / 1e6) * __us;
 264:/usr/lib/avr/include/util/delay.h **** 
 265:/usr/lib/avr/include/util/delay.h **** 	#if defined(__DELAY_ROUND_DOWN__)
 266:/usr/lib/avr/include/util/delay.h **** 		__ticks_dc = (uint32_t)fabs(__tmp);
 267:/usr/lib/avr/include/util/delay.h **** 
 268:/usr/lib/avr/include/util/delay.h **** 	#elif defined(__DELAY_ROUND_CLOSEST__)
 269:/usr/lib/avr/include/util/delay.h **** 		__ticks_dc = (uint32_t)(fabs(__tmp)+0.5);
 270:/usr/lib/avr/include/util/delay.h **** 
 271:/usr/lib/avr/include/util/delay.h **** 	#else
 272:/usr/lib/avr/include/util/delay.h **** 		//round up by default
 273:/usr/lib/avr/include/util/delay.h **** 		__ticks_dc = (uint32_t)(ceil(fabs(__tmp)));
 274:/usr/lib/avr/include/util/delay.h **** 	#endif
 275:/usr/lib/avr/include/util/delay.h **** 
 276:/usr/lib/avr/include/util/delay.h **** 	__builtin_avr_delay_cycles(__ticks_dc);
 664               		.stabn	68,0,276,.LM80-.LFBB11
 665               	.LM80:
 666 0190 95E0      		ldi r25,lo8(5)
 667 0192 9A95      	1:	dec r25
 668 0194 01F4      		brne 1b
 669 0196 0000      		nop
 670 0198 28E0      		ldi r18,lo8(8)
 671 019a 30E0      		ldi r19,0
 672               	.L54:
 673               	.LBE114:
 674               	.LBE113:
 675               	.LBB115:
 676               		.stabs	"/home/student/avr_src/SimulIDE_1.0.0-SR1_Lin64/mtpS/mtpS.c",132,0,0,.Ltext2
 677               	.Ltext2:
 482:/home/student/avr_src/SimulIDE_1.0.0-SR1_Lin64/mtpS/mtpS.c **** 
 483:/home/student/avr_src/SimulIDE_1.0.0-SR1_Lin64/mtpS/mtpS.c **** 	_delay_us(1);
 484:/home/student/avr_src/SimulIDE_1.0.0-SR1_Lin64/mtpS/mtpS.c **** 	for(int i = 0; i <8; i++){
 485:/home/student/avr_src/SimulIDE_1.0.0-SR1_Lin64/mtpS/mtpS.c **** 		
 486:/home/student/avr_src/SimulIDE_1.0.0-SR1_Lin64/mtpS/mtpS.c **** 		if(byte & 0x80) AT24Cxx_SDA_HIGH(); //MSB
 678               		.stabn	68,0,486,.LM81-.LFBB11
 679               	.LM81:
 680 019c 87FF      		sbrs r24,7
 681 019e 00C0      		rjmp .L52
 682               		.stabn	68,0,486,.LM82-.LFBB11
 683               	.LM82:
 684 01a0 2C9A      		sbi 0x5,4
 685 01a2 00C0      		rjmp .L53
 686               	.L52:
 487:/home/student/avr_src/SimulIDE_1.0.0-SR1_Lin64/mtpS/mtpS.c **** 		else AT24Cxx_SDA_LOW(); //Clear
 687               		.stabn	68,0,487,.LM83-.LFBB11
 688               	.LM83:
 689 01a4 2C98      		cbi 0x5,4
 690               	.L53:
 488:/home/student/avr_src/SimulIDE_1.0.0-SR1_Lin64/mtpS/mtpS.c **** 		
 489:/home/student/avr_src/SimulIDE_1.0.0-SR1_Lin64/mtpS/mtpS.c **** 		AT24Cxx_SCL_HIGH(); //clock data
 691               		.stabn	68,0,489,.LM84-.LFBB11
 692               	.LM84:
 693 01a6 2D9A      		sbi 0x5,5
 490:/home/student/avr_src/SimulIDE_1.0.0-SR1_Lin64/mtpS/mtpS.c **** 		byte = byte << 1;
 694               		.stabn	68,0,490,.LM85-.LFBB11
 695               	.LM85:
 696 01a8 880F      		lsl r24
 697               	.LBB116:
 698               	.LBB117:
 699               		.stabs	"/usr/lib/avr/include/util/delay.h",132,0,0,.Ltext3
 700               	.Ltext3:
 701               		.stabn	68,0,276,.LM86-.LFBB11
 702               	.LM86:
 703 01aa 95E0      		ldi r25,lo8(5)
 704 01ac 9A95      	1:	dec r25
 705 01ae 01F4      		brne 1b
 706 01b0 0000      		nop
 707               	.LBE117:
 708               	.LBE116:
 709               		.stabs	"/home/student/avr_src/SimulIDE_1.0.0-SR1_Lin64/mtpS/mtpS.c",132,0,0,.Ltext4
 710               	.Ltext4:
 491:/home/student/avr_src/SimulIDE_1.0.0-SR1_Lin64/mtpS/mtpS.c **** 		_delay_us(1);
 492:/home/student/avr_src/SimulIDE_1.0.0-SR1_Lin64/mtpS/mtpS.c **** 		AT24Cxx_SCL_LOW();
 711               		.stabn	68,0,492,.LM87-.LFBB11
 712               	.LM87:
 713 01b2 2D98      		cbi 0x5,5
 714               	.LBB118:
 715               	.LBB119:
 716               		.stabs	"/usr/lib/avr/include/util/delay.h",132,0,0,.Ltext5
 717               	.Ltext5:
 718               		.stabn	68,0,276,.LM88-.LFBB11
 719               	.LM88:
 720 01b4 95E0      		ldi r25,lo8(5)
 721 01b6 9A95      	1:	dec r25
 722 01b8 01F4      		brne 1b
 723 01ba 0000      		nop
 724 01bc 2150      		subi r18,1
 725 01be 3109      		sbc r19,__zero_reg__
 726               	.LBE119:
 727               	.LBE118:
 728               		.stabs	"/home/student/avr_src/SimulIDE_1.0.0-SR1_Lin64/mtpS/mtpS.c",132,0,0,.Ltext6
 729               	.Ltext6:
 484:/home/student/avr_src/SimulIDE_1.0.0-SR1_Lin64/mtpS/mtpS.c **** 		
 730               		.stabn	68,0,484,.LM89-.LFBB11
 731               	.LM89:
 732 01c0 01F4      		brne .L54
 733               	.LBE115:
 493:/home/student/avr_src/SimulIDE_1.0.0-SR1_Lin64/mtpS/mtpS.c **** 		_delay_us(1);
 494:/home/student/avr_src/SimulIDE_1.0.0-SR1_Lin64/mtpS/mtpS.c **** 		
 495:/home/student/avr_src/SimulIDE_1.0.0-SR1_Lin64/mtpS/mtpS.c **** 	}
 496:/home/student/avr_src/SimulIDE_1.0.0-SR1_Lin64/mtpS/mtpS.c **** 	AT24Cxx_SDA_LOW();
 734               		.stabn	68,0,496,.LM90-.LFBB11
 735               	.LM90:
 736 01c2 2C98      		cbi 0x5,4
 737               	.LBB120:
 738               	.LBB121:
 739               		.stabs	"/usr/lib/avr/include/util/delay.h",132,0,0,.Ltext7
 740               	.Ltext7:
 741               		.stabn	68,0,276,.LM91-.LFBB11
 742               	.LM91:
 743 01c4 85E0      		ldi r24,lo8(5)
 744 01c6 8A95      	1:	dec r24
 745 01c8 01F4      		brne 1b
 746 01ca 0000      		nop
 747               	.LBE121:
 748               	.LBE120:
 749               		.stabs	"/home/student/avr_src/SimulIDE_1.0.0-SR1_Lin64/mtpS/mtpS.c",132,0,0,.Ltext8
 750               	.Ltext8:
 497:/home/student/avr_src/SimulIDE_1.0.0-SR1_Lin64/mtpS/mtpS.c **** 	_delay_us(1);
 498:/home/student/avr_src/SimulIDE_1.0.0-SR1_Lin64/mtpS/mtpS.c **** 	AT24Cxx_SCL_HIGH();
 751               		.stabn	68,0,498,.LM92-.LFBB11
 752               	.LM92:
 753 01cc 2D9A      		sbi 0x5,5
 754               	.LBB122:
 755               	.LBB123:
 756               		.stabs	"/usr/lib/avr/include/util/delay.h",132,0,0,.Ltext9
 757               	.Ltext9:
 758               		.stabn	68,0,276,.LM93-.LFBB11
 759               	.LM93:
 760 01ce 95E0      		ldi r25,lo8(5)
 761 01d0 9A95      	1:	dec r25
 762 01d2 01F4      		brne 1b
 763 01d4 0000      		nop
 764               	.LBE123:
 765               	.LBE122:
 766               		.stabs	"/home/student/avr_src/SimulIDE_1.0.0-SR1_Lin64/mtpS/mtpS.c",132,0,0,.Ltext10
 767               	.Ltext10:
 499:/home/student/avr_src/SimulIDE_1.0.0-SR1_Lin64/mtpS/mtpS.c **** 	_delay_us(1);
 500:/home/student/avr_src/SimulIDE_1.0.0-SR1_Lin64/mtpS/mtpS.c **** 	AT24Cxx_SCL_LOW();
 768               		.stabn	68,0,500,.LM94-.LFBB11
 769               	.LM94:
 770 01d6 2D98      		cbi 0x5,5
 771 01d8 0895      		ret
 772               		.size	write_AT24Cxx_i2c_LCDAddressing, .-write_AT24Cxx_i2c_LCDAddressing
 773               	.Lscope11:
 774               		.stabs	"",36,0,0,.Lscope11-.LFBB11
 775               		.stabd	78,0,0
 776               		.stabs	"AT24Cxx_i2c_start:F(0,49)",36,0,502,AT24Cxx_i2c_start
 777               	.global	AT24Cxx_i2c_start
 778               		.type	AT24Cxx_i2c_start, @function
 779               	AT24Cxx_i2c_start:
 780               		.stabd	46,0,0
 501:/home/student/avr_src/SimulIDE_1.0.0-SR1_Lin64/mtpS/mtpS.c **** }
 502:/home/student/avr_src/SimulIDE_1.0.0-SR1_Lin64/mtpS/mtpS.c **** void AT24Cxx_i2c_start(void) { //start condition
 781               		.stabn	68,0,502,.LM95-.LFBB12
 782               	.LM95:
 783               	.LFBB12:
 784               	/* prologue: function */
 785               	/* frame size = 0 */
 786               	/* stack size = 0 */
 787               	.L__stack_usage = 0
 503:/home/student/avr_src/SimulIDE_1.0.0-SR1_Lin64/mtpS/mtpS.c **** 
 504:/home/student/avr_src/SimulIDE_1.0.0-SR1_Lin64/mtpS/mtpS.c **** 	AT24Cxx_SDA_LOW(); //clear SDA
 788               		.stabn	68,0,504,.LM96-.LFBB12
 789               	.LM96:
 790 01da 2C98      		cbi 0x5,4
 791               	.LBB124:
 792               	.LBB125:
 793               		.stabs	"/usr/lib/avr/include/util/delay.h",132,0,0,.Ltext11
 794               	.Ltext11:
 795               		.stabn	68,0,276,.LM97-.LFBB12
 796               	.LM97:
 797 01dc 85E0      		ldi r24,lo8(5)
 798 01de 8A95      	1:	dec r24
 799 01e0 01F4      		brne 1b
 800 01e2 0000      		nop
 801               	.LBE125:
 802               	.LBE124:
 803               		.stabs	"/home/student/avr_src/SimulIDE_1.0.0-SR1_Lin64/mtpS/mtpS.c",132,0,0,.Ltext12
 804               	.Ltext12:
 505:/home/student/avr_src/SimulIDE_1.0.0-SR1_Lin64/mtpS/mtpS.c **** 	_delay_us(1);
 506:/home/student/avr_src/SimulIDE_1.0.0-SR1_Lin64/mtpS/mtpS.c **** 	AT24Cxx_SCL_LOW();
 805               		.stabn	68,0,506,.LM98-.LFBB12
 806               	.LM98:
 807 01e4 2D98      		cbi 0x5,5
 808               	.LBB126:
 809               	.LBB127:
 810               		.stabs	"/usr/lib/avr/include/util/delay.h",132,0,0,.Ltext13
 811               	.Ltext13:
 812               		.stabn	68,0,276,.LM99-.LFBB12
 813               	.LM99:
 814 01e6 85E0      		ldi r24,lo8(5)
 815 01e8 8A95      	1:	dec r24
 816 01ea 01F4      		brne 1b
 817 01ec 0000      		nop
 818 01ee 0895      		ret
 819               	.LBE127:
 820               	.LBE126:
 821               		.size	AT24Cxx_i2c_start, .-AT24Cxx_i2c_start
 822               	.Lscope12:
 823               		.stabs	"",36,0,0,.Lscope12-.LFBB12
 824               		.stabd	78,0,0
 825               		.stabs	"AT24Cxx_ACK_send:F(0,49)",36,0,510,AT24Cxx_ACK_send
 826               		.stabs	"ack_data:P(0,13)",64,0,510,24
 827               	.global	AT24Cxx_ACK_send
 828               		.type	AT24Cxx_ACK_send, @function
 829               	AT24Cxx_ACK_send:
 830               		.stabd	46,0,0
 831               		.stabs	"/home/student/avr_src/SimulIDE_1.0.0-SR1_Lin64/mtpS/mtpS.c",132,0,0,.Ltext14
 832               	.Ltext14:
 507:/home/student/avr_src/SimulIDE_1.0.0-SR1_Lin64/mtpS/mtpS.c **** 	_delay_us(1);
 508:/home/student/avr_src/SimulIDE_1.0.0-SR1_Lin64/mtpS/mtpS.c **** }
 509:/home/student/avr_src/SimulIDE_1.0.0-SR1_Lin64/mtpS/mtpS.c **** 
 510:/home/student/avr_src/SimulIDE_1.0.0-SR1_Lin64/mtpS/mtpS.c **** void AT24Cxx_ACK_send(unsigned char ack_data){
 833               		.stabn	68,0,510,.LM100-.LFBB13
 834               	.LM100:
 835               	.LFBB13:
 836               	/* prologue: function */
 837               	/* frame size = 0 */
 838               	/* stack size = 0 */
 839               	.L__stack_usage = 0
 840               	.LBB128:
 841               	.LBB129:
 842               		.stabs	"/usr/lib/avr/include/util/delay.h",132,0,0,.Ltext15
 843               	.Ltext15:
 844               		.stabn	68,0,276,.LM101-.LFBB13
 845               	.LM101:
 846 01f0 95E0      		ldi r25,lo8(5)
 847 01f2 9A95      	1:	dec r25
 848 01f4 01F4      		brne 1b
 849 01f6 0000      		nop
 850               	.LBE129:
 851               	.LBE128:
 852               		.stabs	"/home/student/avr_src/SimulIDE_1.0.0-SR1_Lin64/mtpS/mtpS.c",132,0,0,.Ltext16
 853               	.Ltext16:
 511:/home/student/avr_src/SimulIDE_1.0.0-SR1_Lin64/mtpS/mtpS.c **** 	_delay_us(1);
 512:/home/student/avr_src/SimulIDE_1.0.0-SR1_Lin64/mtpS/mtpS.c **** 	if(ack_data) AT24Cxx_SDA_HIGH(); //NACK
 854               		.stabn	68,0,512,.LM102-.LFBB13
 855               	.LM102:
 856 01f8 8823      		tst r24
 857 01fa 01F0      		breq .L58
 858               		.stabn	68,0,512,.LM103-.LFBB13
 859               	.LM103:
 860 01fc 2C9A      		sbi 0x5,4
 861 01fe 00C0      		rjmp .L59
 862               	.L58:
 513:/home/student/avr_src/SimulIDE_1.0.0-SR1_Lin64/mtpS/mtpS.c **** 	else AT24Cxx_SDA_LOW(); //ACK
 863               		.stabn	68,0,513,.LM104-.LFBB13
 864               	.LM104:
 865 0200 2C98      		cbi 0x5,4
 866               	.L59:
 867               	.LBB130:
 868               	.LBB131:
 869               		.stabs	"/usr/lib/avr/include/util/delay.h",132,0,0,.Ltext17
 870               	.Ltext17:
 871               		.stabn	68,0,276,.LM105-.LFBB13
 872               	.LM105:
 873 0202 85E0      		ldi r24,lo8(5)
 874 0204 8A95      	1:	dec r24
 875 0206 01F4      		brne 1b
 876 0208 0000      		nop
 877               	.LBE131:
 878               	.LBE130:
 879               		.stabs	"/home/student/avr_src/SimulIDE_1.0.0-SR1_Lin64/mtpS/mtpS.c",132,0,0,.Ltext18
 880               	.Ltext18:
 514:/home/student/avr_src/SimulIDE_1.0.0-SR1_Lin64/mtpS/mtpS.c **** 	_delay_us(1);
 515:/home/student/avr_src/SimulIDE_1.0.0-SR1_Lin64/mtpS/mtpS.c **** 	AT24Cxx_SDA_OUT(); //set SDA to Output
 881               		.stabn	68,0,515,.LM106-.LFBB13
 882               	.LM106:
 883 020a 249A      		sbi 0x4,4
 884               	.LBB132:
 885               	.LBB133:
 886               		.stabs	"/usr/lib/avr/include/util/delay.h",132,0,0,.Ltext19
 887               	.Ltext19:
 888               		.stabn	68,0,276,.LM107-.LFBB13
 889               	.LM107:
 890 020c 95E0      		ldi r25,lo8(5)
 891 020e 9A95      	1:	dec r25
 892 0210 01F4      		brne 1b
 893 0212 0000      		nop
 894               	.LBE133:
 895               	.LBE132:
 896               		.stabs	"/home/student/avr_src/SimulIDE_1.0.0-SR1_Lin64/mtpS/mtpS.c",132,0,0,.Ltext20
 897               	.Ltext20:
 516:/home/student/avr_src/SimulIDE_1.0.0-SR1_Lin64/mtpS/mtpS.c **** 	_delay_us(1);
 517:/home/student/avr_src/SimulIDE_1.0.0-SR1_Lin64/mtpS/mtpS.c **** 	AT24Cxx_SCL_HIGH(); //9th clk rising edge
 898               		.stabn	68,0,517,.LM108-.LFBB13
 899               	.LM108:
 900 0214 2D9A      		sbi 0x5,5
 901               	.LBB134:
 902               	.LBB135:
 903               		.stabs	"/usr/lib/avr/include/util/delay.h",132,0,0,.Ltext21
 904               	.Ltext21:
 905               		.stabn	68,0,276,.LM109-.LFBB13
 906               	.LM109:
 907 0216 85E0      		ldi r24,lo8(5)
 908 0218 8A95      	1:	dec r24
 909 021a 01F4      		brne 1b
 910 021c 0000      		nop
 911               	.LBE135:
 912               	.LBE134:
 913               		.stabs	"/home/student/avr_src/SimulIDE_1.0.0-SR1_Lin64/mtpS/mtpS.c",132,0,0,.Ltext22
 914               	.Ltext22:
 518:/home/student/avr_src/SimulIDE_1.0.0-SR1_Lin64/mtpS/mtpS.c **** 	_delay_us(1);
 519:/home/student/avr_src/SimulIDE_1.0.0-SR1_Lin64/mtpS/mtpS.c **** 	AT24Cxx_SCL_LOW();
 915               		.stabn	68,0,519,.LM110-.LFBB13
 916               	.LM110:
 917 021e 2D98      		cbi 0x5,5
 918 0220 0895      		ret
 919               		.size	AT24Cxx_ACK_send, .-AT24Cxx_ACK_send
 920               	.Lscope13:
 921               		.stabs	"",36,0,0,.Lscope13-.LFBB13
 922               		.stabd	78,0,0
 923               		.stabs	"AT24Cxx_i2c_stop:F(0,49)",36,0,522,AT24Cxx_i2c_stop
 924               	.global	AT24Cxx_i2c_stop
 925               		.type	AT24Cxx_i2c_stop, @function
 926               	AT24Cxx_i2c_stop:
 927               		.stabd	46,0,0
 520:/home/student/avr_src/SimulIDE_1.0.0-SR1_Lin64/mtpS/mtpS.c **** }
 521:/home/student/avr_src/SimulIDE_1.0.0-SR1_Lin64/mtpS/mtpS.c **** 
 522:/home/student/avr_src/SimulIDE_1.0.0-SR1_Lin64/mtpS/mtpS.c **** void AT24Cxx_i2c_stop(void){
 928               		.stabn	68,0,522,.LM111-.LFBB14
 929               	.LM111:
 930               	.LFBB14:
 931               	/* prologue: function */
 932               	/* frame size = 0 */
 933               	/* stack size = 0 */
 934               	.L__stack_usage = 0
 523:/home/student/avr_src/SimulIDE_1.0.0-SR1_Lin64/mtpS/mtpS.c **** 	//AT24Cxx_SDA_OUT(); //set SDA to output
 524:/home/student/avr_src/SimulIDE_1.0.0-SR1_Lin64/mtpS/mtpS.c **** 	AT24Cxx_SDA_LOW(); //clear SDA
 935               		.stabn	68,0,524,.LM112-.LFBB14
 936               	.LM112:
 937 0222 2C98      		cbi 0x5,4
 938               	.LBB136:
 939               	.LBB137:
 940               		.stabs	"/usr/lib/avr/include/util/delay.h",132,0,0,.Ltext23
 941               	.Ltext23:
 942               		.stabn	68,0,276,.LM113-.LFBB14
 943               	.LM113:
 944 0224 85E0      		ldi r24,lo8(5)
 945 0226 8A95      	1:	dec r24
 946 0228 01F4      		brne 1b
 947 022a 0000      		nop
 948               	.LBE137:
 949               	.LBE136:
 950               		.stabs	"/home/student/avr_src/SimulIDE_1.0.0-SR1_Lin64/mtpS/mtpS.c",132,0,0,.Ltext24
 951               	.Ltext24:
 525:/home/student/avr_src/SimulIDE_1.0.0-SR1_Lin64/mtpS/mtpS.c **** 	
 526:/home/student/avr_src/SimulIDE_1.0.0-SR1_Lin64/mtpS/mtpS.c **** 	_delay_us(1);
 527:/home/student/avr_src/SimulIDE_1.0.0-SR1_Lin64/mtpS/mtpS.c **** 	AT24Cxx_SCL_HIGH(); // set SCL High
 952               		.stabn	68,0,527,.LM114-.LFBB14
 953               	.LM114:
 954 022c 2D9A      		sbi 0x5,5
 955               	.LBB138:
 956               	.LBB139:
 957               		.stabs	"/usr/lib/avr/include/util/delay.h",132,0,0,.Ltext25
 958               	.Ltext25:
 959               		.stabn	68,0,276,.LM115-.LFBB14
 960               	.LM115:
 961 022e 85E0      		ldi r24,lo8(5)
 962 0230 8A95      	1:	dec r24
 963 0232 01F4      		brne 1b
 964 0234 0000      		nop
 965               	.LBE139:
 966               	.LBE138:
 967               		.stabs	"/home/student/avr_src/SimulIDE_1.0.0-SR1_Lin64/mtpS/mtpS.c",132,0,0,.Ltext26
 968               	.Ltext26:
 528:/home/student/avr_src/SimulIDE_1.0.0-SR1_Lin64/mtpS/mtpS.c **** 	_delay_us(1);
 529:/home/student/avr_src/SimulIDE_1.0.0-SR1_Lin64/mtpS/mtpS.c **** 	AT24Cxx_SDA_HIGH(); // set SDA High
 969               		.stabn	68,0,529,.LM116-.LFBB14
 970               	.LM116:
 971 0236 2C9A      		sbi 0x5,4
 972 0238 0895      		ret
 973               		.size	AT24Cxx_i2c_stop, .-AT24Cxx_i2c_stop
 974               	.Lscope14:
 975               		.stabs	"",36,0,0,.Lscope14-.LFBB14
 976               		.stabd	78,0,0
 977               		.stabs	"write_AT24Cxx_i2c_byte:F(0,49)",36,0,533,write_AT24Cxx_i2c_byte
 978               		.stabs	"byte:P(0,13)",64,0,533,24
 979               	.global	write_AT24Cxx_i2c_byte
 980               		.type	write_AT24Cxx_i2c_byte, @function
 981               	write_AT24Cxx_i2c_byte:
 982               		.stabd	46,0,0
 530:/home/student/avr_src/SimulIDE_1.0.0-SR1_Lin64/mtpS/mtpS.c **** 
 531:/home/student/avr_src/SimulIDE_1.0.0-SR1_Lin64/mtpS/mtpS.c **** }
 532:/home/student/avr_src/SimulIDE_1.0.0-SR1_Lin64/mtpS/mtpS.c **** 
 533:/home/student/avr_src/SimulIDE_1.0.0-SR1_Lin64/mtpS/mtpS.c **** void write_AT24Cxx_i2c_byte(unsigned char byte){
 983               		.stabn	68,0,533,.LM117-.LFBB15
 984               	.LM117:
 985               	.LFBB15:
 986               	/* prologue: function */
 987               	/* frame size = 0 */
 988               	/* stack size = 0 */
 989               	.L__stack_usage = 0
 990               	.LBB140:
 991               	.LBB141:
 992               		.stabs	"/usr/lib/avr/include/util/delay.h",132,0,0,.Ltext27
 993               	.Ltext27:
 994               		.stabn	68,0,276,.LM118-.LFBB15
 995               	.LM118:
 996 023a 95E0      		ldi r25,lo8(5)
 997 023c 9A95      	1:	dec r25
 998 023e 01F4      		brne 1b
 999 0240 0000      		nop
 1000               	.LBE141:
 1001               	.LBE140:
 1002               		.stabs	"/home/student/avr_src/SimulIDE_1.0.0-SR1_Lin64/mtpS/mtpS.c",132,0,0,.Ltext28
 1003               	.Ltext28:
 534:/home/student/avr_src/SimulIDE_1.0.0-SR1_Lin64/mtpS/mtpS.c **** 	_delay_us(1);
 535:/home/student/avr_src/SimulIDE_1.0.0-SR1_Lin64/mtpS/mtpS.c **** 	if(!(byte & E_BIT)) byte |= E_BIT;
 1004               		.stabn	68,0,535,.LM119-.LFBB15
 1005               	.LM119:
 1006 0242 8460      		ori r24,lo8(4)
 536:/home/student/avr_src/SimulIDE_1.0.0-SR1_Lin64/mtpS/mtpS.c **** 	if(!(byte & B_BIT)) byte |= B_BIT;
 1007               		.stabn	68,0,536,.LM120-.LFBB15
 1008               	.LM120:
 1009 0244 8860      		ori r24,lo8(8)
 537:/home/student/avr_src/SimulIDE_1.0.0-SR1_Lin64/mtpS/mtpS.c **** 	write_AT24Cxx_i2c_LCDAddressing(byte);
 1010               		.stabn	68,0,537,.LM121-.LFBB15
 1011               	.LM121:
 1012 0246 0C94 0000 		jmp write_AT24Cxx_i2c_LCDAddressing
 1013               		.size	write_AT24Cxx_i2c_byte, .-write_AT24Cxx_i2c_byte
 1014               	.Lscope15:
 1015               		.stabs	"",36,0,0,.Lscope15-.LFBB15
 1016               		.stabd	78,0,0
 1017               		.stabs	"LCD_Write:F(0,49)",36,0,435,LCD_Write
 1018               		.stabs	"data:P(0,13)",64,0,435,24
 1019               	.global	LCD_Write
 1020               		.type	LCD_Write, @function
 1021               	LCD_Write:
 1022               		.stabd	46,0,0
 435:/home/student/avr_src/SimulIDE_1.0.0-SR1_Lin64/mtpS/mtpS.c **** 	
 1023               		.stabn	68,0,435,.LM122-.LFBB16
 1024               	.LM122:
 1025               	.LFBB16:
 1026               	/* prologue: function */
 1027               	/* frame size = 0 */
 1028               	/* stack size = 0 */
 1029               	.L__stack_usage = 0
 1030               	.LBB142:
 1031               	.LBB143:
 1032               		.stabs	"/usr/lib/avr/include/util/delay.h",132,0,0,.Ltext29
 1033               	.Ltext29:
 1034               		.stabn	68,0,276,.LM123-.LFBB16
 1035               	.LM123:
 1036 024a 95E0      		ldi r25,lo8(5)
 1037 024c 9A95      	1:	dec r25
 1038 024e 01F4      		brne 1b
 1039 0250 0000      		nop
 1040               	.LBE143:
 1041               	.LBE142:
 1042               		.stabs	"/home/student/avr_src/SimulIDE_1.0.0-SR1_Lin64/mtpS/mtpS.c",132,0,0,.Ltext30
 1043               	.Ltext30:
 441:/home/student/avr_src/SimulIDE_1.0.0-SR1_Lin64/mtpS/mtpS.c **** 
 1044               		.stabn	68,0,441,.LM124-.LFBB16
 1045               	.LM124:
 1046 0252 0C94 0000 		jmp write_AT24Cxx_i2c_byte
 1047               		.size	LCD_Write, .-LCD_Write
 1048               	.Lscope16:
 1049               		.stabs	"",36,0,0,.Lscope16-.LFBB16
 1050               		.stabd	78,0,0
 1051               		.stabs	"I2C_LCD_init:F(0,49)",36,0,132,I2C_LCD_init
 1052               		.stabs	"address:P(0,13)",64,0,132,24
 1053               	.global	I2C_LCD_init
 1054               		.type	I2C_LCD_init, @function
 1055               	I2C_LCD_init:
 1056               		.stabd	46,0,0
 132:/home/student/avr_src/SimulIDE_1.0.0-SR1_Lin64/mtpS/mtpS.c **** 	cli();
 1057               		.stabn	68,0,132,.LM125-.LFBB17
 1058               	.LM125:
 1059               	.LFBB17:
 1060               	/* prologue: function */
 1061               	/* frame size = 0 */
 1062               	/* stack size = 0 */
 1063               	.L__stack_usage = 0
 133:/home/student/avr_src/SimulIDE_1.0.0-SR1_Lin64/mtpS/mtpS.c **** 
 1064               		.stabn	68,0,133,.LM126-.LFBB17
 1065               	.LM126:
 1066               	/* #APP */
 1067               	 ;  133 "/home/student/avr_src/SimulIDE_1.0.0-SR1_Lin64/mtpS/mtpS.c" 1
 1068 0256 F894      		cli
 1069               	 ;  0 "" 2
 135:/home/student/avr_src/SimulIDE_1.0.0-SR1_Lin64/mtpS/mtpS.c **** 	_delay_ms(18);
 1070               		.stabn	68,0,135,.LM127-.LFBB17
 1071               	.LM127:
 1072               	/* #NOAPP */
 1073 0258 88B1      		in r24,0x8
 1074 025a 8095      		com r24
 1075 025c 88B9      		out 0x8,r24
 1076               	.LBB144:
 1077               	.LBB145:
 1078               		.stabs	"/usr/lib/avr/include/util/delay.h",132,0,0,.Ltext31
 1079               	.Ltext31:
 187:/usr/lib/avr/include/util/delay.h **** 
 1080               		.stabn	68,0,187,.LM128-.LFBB17
 1081               	.LM128:
 1082 025e 2FEF      		ldi r18,lo8(57599)
 1083 0260 80EE      		ldi r24,hi8(57599)
 1084 0262 90E0      		ldi r25,hlo8(57599)
 1085 0264 2150      	1:	subi r18,1
 1086 0266 8040      		sbci r24,0
 1087 0268 9040      		sbci r25,0
 1088 026a 01F4      		brne 1b
 1089 026c 00C0      		rjmp .
 1090 026e 0000      		nop
 1091               	.LBE145:
 1092               	.LBE144:
 1093               		.stabs	"/home/student/avr_src/SimulIDE_1.0.0-SR1_Lin64/mtpS/mtpS.c",132,0,0,.Ltext32
 1094               	.Ltext32:
 137:/home/student/avr_src/SimulIDE_1.0.0-SR1_Lin64/mtpS/mtpS.c **** 	write_AT24Cxx_i2c_LCDAddressing(I2CLCD_ADDR  << 1); //write mode
 1095               		.stabn	68,0,137,.LM129-.LFBB17
 1096               	.LM129:
 1097 0270 0E94 0000 		call AT24Cxx_i2c_start
 138:/home/student/avr_src/SimulIDE_1.0.0-SR1_Lin64/mtpS/mtpS.c **** 	LCD_Write(0x20);
 1098               		.stabn	68,0,138,.LM130-.LFBB17
 1099               	.LM130:
 1100 0274 8EE4      		ldi r24,lo8(78)
 1101 0276 0E94 0000 		call write_AT24Cxx_i2c_LCDAddressing
 139:/home/student/avr_src/SimulIDE_1.0.0-SR1_Lin64/mtpS/mtpS.c **** 	_delay_ms(5);
 1102               		.stabn	68,0,139,.LM131-.LFBB17
 1103               	.LM131:
 1104 027a 80E2      		ldi r24,lo8(32)
 1105 027c 0E94 0000 		call LCD_Write
 1106               	.LBB146:
 1107               	.LBB147:
 1108               		.stabs	"/usr/lib/avr/include/util/delay.h",132,0,0,.Ltext33
 1109               	.Ltext33:
 187:/usr/lib/avr/include/util/delay.h **** 
 1110               		.stabn	68,0,187,.LM132-.LFBB17
 1111               	.LM132:
 1112 0280 8FE1      		ldi r24,lo8(19999)
 1113 0282 9EE4      		ldi r25,hi8(19999)
 1114 0284 0197      	1:	sbiw r24,1
 1115 0286 01F4      		brne 1b
 1116 0288 00C0      		rjmp .
 1117 028a 0000      		nop
 1118               	.LBE147:
 1119               	.LBE146:
 1120               		.stabs	"/home/student/avr_src/SimulIDE_1.0.0-SR1_Lin64/mtpS/mtpS.c",132,0,0,.Ltext34
 1121               	.Ltext34:
 141:/home/student/avr_src/SimulIDE_1.0.0-SR1_Lin64/mtpS/mtpS.c **** 	_delay_ms(5);
 1122               		.stabn	68,0,141,.LM133-.LFBB17
 1123               	.LM133:
 1124 028c 80E2      		ldi r24,lo8(32)
 1125 028e 0E94 0000 		call write_AT24Cxx_i2c_LCDAddressing
 1126               	.LBB148:
 1127               	.LBB149:
 1128               		.stabs	"/usr/lib/avr/include/util/delay.h",132,0,0,.Ltext35
 1129               	.Ltext35:
 187:/usr/lib/avr/include/util/delay.h **** 
 1130               		.stabn	68,0,187,.LM134-.LFBB17
 1131               	.LM134:
 1132 0292 8FE1      		ldi r24,lo8(19999)
 1133 0294 9EE4      		ldi r25,hi8(19999)
 1134 0296 0197      	1:	sbiw r24,1
 1135 0298 01F4      		brne 1b
 1136 029a 00C0      		rjmp .
 1137 029c 0000      		nop
 1138               	.LBE149:
 1139               	.LBE148:
 1140               		.stabs	"/home/student/avr_src/SimulIDE_1.0.0-SR1_Lin64/mtpS/mtpS.c",132,0,0,.Ltext36
 1141               	.Ltext36:
 144:/home/student/avr_src/SimulIDE_1.0.0-SR1_Lin64/mtpS/mtpS.c **** 	LCD_Write(0x00);
 1142               		.stabn	68,0,144,.LM135-.LFBB17
 1143               	.LM135:
 1144 029e 80E3      		ldi r24,lo8(48)
 1145 02a0 0E94 0000 		call write_AT24Cxx_i2c_LCDAddressing
 145:/home/student/avr_src/SimulIDE_1.0.0-SR1_Lin64/mtpS/mtpS.c **** 	_delay_ms(5);
 1146               		.stabn	68,0,145,.LM136-.LFBB17
 1147               	.LM136:
 1148 02a4 80E0      		ldi r24,0
 1149 02a6 0E94 0000 		call LCD_Write
 1150               	.LBB150:
 1151               	.LBB151:
 1152               		.stabs	"/usr/lib/avr/include/util/delay.h",132,0,0,.Ltext37
 1153               	.Ltext37:
 187:/usr/lib/avr/include/util/delay.h **** 
 1154               		.stabn	68,0,187,.LM137-.LFBB17
 1155               	.LM137:
 1156 02aa 8FE1      		ldi r24,lo8(19999)
 1157 02ac 9EE4      		ldi r25,hi8(19999)
 1158 02ae 0197      	1:	sbiw r24,1
 1159 02b0 01F4      		brne 1b
 1160 02b2 00C0      		rjmp .
 1161 02b4 0000      		nop
 1162               	.LBE151:
 1163               	.LBE150:
 1164               		.stabs	"/home/student/avr_src/SimulIDE_1.0.0-SR1_Lin64/mtpS/mtpS.c",132,0,0,.Ltext38
 1165               	.Ltext38:
 148:/home/student/avr_src/SimulIDE_1.0.0-SR1_Lin64/mtpS/mtpS.c **** 	write_AT24Cxx_i2c_LCDAddressing(0x00);
 1166               		.stabn	68,0,148,.LM138-.LFBB17
 1167               	.LM138:
 1168 02b6 80E0      		ldi r24,0
 1169 02b8 0E94 0000 		call LCD_Write
 149:/home/student/avr_src/SimulIDE_1.0.0-SR1_Lin64/mtpS/mtpS.c ****     _delay_ms(5);
 1170               		.stabn	68,0,149,.LM139-.LFBB17
 1171               	.LM139:
 1172 02bc 80E0      		ldi r24,0
 1173 02be 0E94 0000 		call write_AT24Cxx_i2c_LCDAddressing
 1174               	.LBB152:
 1175               	.LBB153:
 1176               		.stabs	"/usr/lib/avr/include/util/delay.h",132,0,0,.Ltext39
 1177               	.Ltext39:
 187:/usr/lib/avr/include/util/delay.h **** 
 1178               		.stabn	68,0,187,.LM140-.LFBB17
 1179               	.LM140:
 1180 02c2 8FE1      		ldi r24,lo8(19999)
 1181 02c4 9EE4      		ldi r25,hi8(19999)
 1182 02c6 0197      	1:	sbiw r24,1
 1183 02c8 01F4      		brne 1b
 1184 02ca 00C0      		rjmp .
 1185 02cc 0000      		nop
 1186               	.LBE153:
 1187               	.LBE152:
 1188               		.stabs	"/home/student/avr_src/SimulIDE_1.0.0-SR1_Lin64/mtpS/mtpS.c",132,0,0,.Ltext40
 1189               	.Ltext40:
 152:/home/student/avr_src/SimulIDE_1.0.0-SR1_Lin64/mtpS/mtpS.c **** 	write_AT24Cxx_i2c_LCDAddressing(0xE0);
 1190               		.stabn	68,0,152,.LM141-.LFBB17
 1191               	.LM141:
 1192 02ce 80EE      		ldi r24,lo8(-32)
 1193 02d0 0E94 0000 		call LCD_Write
 153:/home/student/avr_src/SimulIDE_1.0.0-SR1_Lin64/mtpS/mtpS.c **** 	_delay_ms(5);
 1194               		.stabn	68,0,153,.LM142-.LFBB17
 1195               	.LM142:
 1196 02d4 80EE      		ldi r24,lo8(-32)
 1197 02d6 0E94 0000 		call write_AT24Cxx_i2c_LCDAddressing
 1198               	.LBB154:
 1199               	.LBB155:
 1200               		.stabs	"/usr/lib/avr/include/util/delay.h",132,0,0,.Ltext41
 1201               	.Ltext41:
 187:/usr/lib/avr/include/util/delay.h **** 
 1202               		.stabn	68,0,187,.LM143-.LFBB17
 1203               	.LM143:
 1204 02da 8FE1      		ldi r24,lo8(19999)
 1205 02dc 9EE4      		ldi r25,hi8(19999)
 1206 02de 0197      	1:	sbiw r24,1
 1207 02e0 01F4      		brne 1b
 1208 02e2 00C0      		rjmp .
 1209 02e4 0000      		nop
 1210               	.LBE155:
 1211               	.LBE154:
 1212               		.stabs	"/home/student/avr_src/SimulIDE_1.0.0-SR1_Lin64/mtpS/mtpS.c",132,0,0,.Ltext42
 1213               	.Ltext42:
 156:/home/student/avr_src/SimulIDE_1.0.0-SR1_Lin64/mtpS/mtpS.c **** 	write_AT24Cxx_i2c_LCDAddressing(0x00);
 1214               		.stabn	68,0,156,.LM144-.LFBB17
 1215               	.LM144:
 1216 02e6 80E0      		ldi r24,0
 1217 02e8 0E94 0000 		call LCD_Write
 157:/home/student/avr_src/SimulIDE_1.0.0-SR1_Lin64/mtpS/mtpS.c **** 	_delay_ms(5);
 1218               		.stabn	68,0,157,.LM145-.LFBB17
 1219               	.LM145:
 1220 02ec 80E0      		ldi r24,0
 1221 02ee 0E94 0000 		call write_AT24Cxx_i2c_LCDAddressing
 1222               	.LBB156:
 1223               	.LBB157:
 1224               		.stabs	"/usr/lib/avr/include/util/delay.h",132,0,0,.Ltext43
 1225               	.Ltext43:
 187:/usr/lib/avr/include/util/delay.h **** 
 1226               		.stabn	68,0,187,.LM146-.LFBB17
 1227               	.LM146:
 1228 02f2 8FE1      		ldi r24,lo8(19999)
 1229 02f4 9EE4      		ldi r25,hi8(19999)
 1230 02f6 0197      	1:	sbiw r24,1
 1231 02f8 01F4      		brne 1b
 1232 02fa 00C0      		rjmp .
 1233 02fc 0000      		nop
 1234               	.LBE157:
 1235               	.LBE156:
 1236               		.stabs	"/home/student/avr_src/SimulIDE_1.0.0-SR1_Lin64/mtpS/mtpS.c",132,0,0,.Ltext44
 1237               	.Ltext44:
 160:/home/student/avr_src/SimulIDE_1.0.0-SR1_Lin64/mtpS/mtpS.c **** 	write_AT24Cxx_i2c_LCDAddressing(0x60);
 1238               		.stabn	68,0,160,.LM147-.LFBB17
 1239               	.LM147:
 1240 02fe 80E6      		ldi r24,lo8(96)
 1241 0300 0E94 0000 		call LCD_Write
 161:/home/student/avr_src/SimulIDE_1.0.0-SR1_Lin64/mtpS/mtpS.c **** 	_delay_ms(5);
 1242               		.stabn	68,0,161,.LM148-.LFBB17
 1243               	.LM148:
 1244 0304 80E6      		ldi r24,lo8(96)
 1245 0306 0E94 0000 		call write_AT24Cxx_i2c_LCDAddressing
 1246               	.LBB158:
 1247               	.LBB159:
 1248               		.stabs	"/usr/lib/avr/include/util/delay.h",132,0,0,.Ltext45
 1249               	.Ltext45:
 187:/usr/lib/avr/include/util/delay.h **** 
 1250               		.stabn	68,0,187,.LM149-.LFBB17
 1251               	.LM149:
 1252 030a 8FE1      		ldi r24,lo8(19999)
 1253 030c 9EE4      		ldi r25,hi8(19999)
 1254 030e 0197      	1:	sbiw r24,1
 1255 0310 01F4      		brne 1b
 1256 0312 00C0      		rjmp .
 1257 0314 0000      		nop
 1258               	.LBE159:
 1259               	.LBE158:
 1260               		.stabs	"/home/student/avr_src/SimulIDE_1.0.0-SR1_Lin64/mtpS/mtpS.c",132,0,0,.Ltext46
 1261               	.Ltext46:
 163:/home/student/avr_src/SimulIDE_1.0.0-SR1_Lin64/mtpS/mtpS.c **** 	PORTC ^= 0xff;
 1262               		.stabn	68,0,163,.LM150-.LFBB17
 1263               	.LM150:
 1264 0316 0E94 0000 		call AT24Cxx_i2c_stop
 164:/home/student/avr_src/SimulIDE_1.0.0-SR1_Lin64/mtpS/mtpS.c **** 	sei();
 1265               		.stabn	68,0,164,.LM151-.LFBB17
 1266               	.LM151:
 1267 031a 88B1      		in r24,0x8
 1268 031c 8095      		com r24
 1269 031e 88B9      		out 0x8,r24
 165:/home/student/avr_src/SimulIDE_1.0.0-SR1_Lin64/mtpS/mtpS.c **** 	
 1270               		.stabn	68,0,165,.LM152-.LFBB17
 1271               	.LM152:
 1272               	/* #APP */
 1273               	 ;  165 "/home/student/avr_src/SimulIDE_1.0.0-SR1_Lin64/mtpS/mtpS.c" 1
 1274 0320 7894      		sei
 1275               	 ;  0 "" 2
 1276               	/* #NOAPP */
 1277 0322 0895      		ret
 1278               		.size	I2C_LCD_init, .-I2C_LCD_init
 1279               	.Lscope17:
 1280               		.stabs	"",36,0,0,.Lscope17-.LFBB17
 1281               		.stabd	78,0,0
 1282               		.stabs	"key_scan:F(0,13)",36,0,320,key_scan
 1283               	.global	key_scan
 1284               		.type	key_scan, @function
 1285               	key_scan:
 1286               		.stabd	46,0,0
 320:/home/student/avr_src/SimulIDE_1.0.0-SR1_Lin64/mtpS/mtpS.c **** 
 1287               		.stabn	68,0,320,.LM153-.LFBB18
 1288               	.LM153:
 1289               	.LFBB18:
 1290 0324 CF93      		push r28
 1291 0326 DF93      		push r29
 1292               	/* prologue: function */
 1293               	/* frame size = 0 */
 1294               	/* stack size = 2 */
 1295               	.L__stack_usage = 2
 324:/home/student/avr_src/SimulIDE_1.0.0-SR1_Lin64/mtpS/mtpS.c ****     PORTD &= ~(0x70);
 1296               		.stabn	68,0,324,.LM154-.LFBB18
 1297               	.LM154:
 1298 0328 8091 0000 		lds r24,key_flag
 1299 032c 8111      		cpse r24,__zero_reg__
 1300 032e 00C0      		rjmp .L69
 325:/home/student/avr_src/SimulIDE_1.0.0-SR1_Lin64/mtpS/mtpS.c ****     new_key = (PINB) & 0x0f;
 1301               		.stabn	68,0,325,.LM155-.LFBB18
 1302               	.LM155:
 1303 0330 8BB1      		in r24,0xb
 1304 0332 8F78      		andi r24,lo8(-113)
 1305 0334 8BB9      		out 0xb,r24
 326:/home/student/avr_src/SimulIDE_1.0.0-SR1_Lin64/mtpS/mtpS.c **** 
 1306               		.stabn	68,0,326,.LM156-.LFBB18
 1307               	.LM156:
 1308 0336 83B1      		in r24,0x3
 1309 0338 8F70      		andi r24,lo8(15)
 1310 033a 8093 0000 		sts new_key,r24
 329:/home/student/avr_src/SimulIDE_1.0.0-SR1_Lin64/mtpS/mtpS.c ****         old_key = new_key;
 1311               		.stabn	68,0,329,.LM157-.LFBB18
 1312               	.LM157:
 1313 033e 9091 0000 		lds r25,new_key
 1314 0342 8091 0000 		lds r24,old_key
 1315 0346 9817      		cp r25,r24
 1316 0348 01F0      		breq .L68
 330:/home/student/avr_src/SimulIDE_1.0.0-SR1_Lin64/mtpS/mtpS.c ****         return -1;
 1317               		.stabn	68,0,330,.LM158-.LFBB18
 1318               	.LM158:
 1319 034a 8091 0000 		lds r24,new_key
 1320 034e 8093 0000 		sts old_key,r24
 331:/home/student/avr_src/SimulIDE_1.0.0-SR1_Lin64/mtpS/mtpS.c ****     }
 1321               		.stabn	68,0,331,.LM159-.LFBB18
 1322               	.LM159:
 1323 0352 00C0      		rjmp .L69
 1324               	.L68:
 334:/home/student/avr_src/SimulIDE_1.0.0-SR1_Lin64/mtpS/mtpS.c ****         //pin 1 ,3, 5 => D4, D5, D6 / pin 2,7,6,4 => D0, D1, D2, D3
 1325               		.stabn	68,0,334,.LM160-.LFBB18
 1326               	.LM160:
 1327 0354 8091 0000 		lds r24,pressing_flag
 1328 0358 8823      		tst r24
 1329 035a 01F0      		breq .L70
 336:/home/student/avr_src/SimulIDE_1.0.0-SR1_Lin64/mtpS/mtpS.c ****                              //because if one of btns is pressed, it can get signals 
 1330               		.stabn	68,0,336,.LM161-.LFBB18
 1331               	.LM161:
 1332 035c 8091 0000 		lds r24,new_key
 1333 0360 8F30      		cpi r24,lo8(15)
 1334 0362 01F4      		brne .L69
 338:/home/student/avr_src/SimulIDE_1.0.0-SR1_Lin64/mtpS/mtpS.c ****             return -1;
 1335               		.stabn	68,0,338,.LM162-.LFBB18
 1336               	.LM162:
 1337 0364 1092 0000 		sts pressing_flag,__zero_reg__
 339:/home/student/avr_src/SimulIDE_1.0.0-SR1_Lin64/mtpS/mtpS.c ****         }
 1338               		.stabn	68,0,339,.LM163-.LFBB18
 1339               	.LM163:
 1340 0368 00C0      		rjmp .L69
 1341               	.L70:
 345:/home/student/avr_src/SimulIDE_1.0.0-SR1_Lin64/mtpS/mtpS.c ****             return -1;
 1342               		.stabn	68,0,345,.LM164-.LFBB18
 1343               	.LM164:
 1344 036a 8091 0000 		lds r24,new_key
 1345 036e 8F30      		cpi r24,lo8(15)
 1346 0370 01F0      		breq .L69
 1347 0372 C0E0      		ldi r28,0
 1348 0374 D0E0      		ldi r29,0
 1349 0376 90E1      		ldi r25,lo8(16)
 1350               	.L72:
 1351               	.LBB160:
 350:/home/student/avr_src/SimulIDE_1.0.0-SR1_Lin64/mtpS/mtpS.c ****                 PORTD &= ~(bit_shift); //to check specific raw, Ex) raw 1 -> D5, D6 must be HIGH st
 1352               		.stabn	68,0,350,.LM165-.LFBB18
 1353               	.LM165:
 1354 0378 8BB1      		in r24,0xb
 1355 037a 8067      		ori r24,lo8(112)
 1356 037c 8BB9      		out 0xb,r24
 351:/home/student/avr_src/SimulIDE_1.0.0-SR1_Lin64/mtpS/mtpS.c **** 									   //in addition if pin of PORTD is on, PINB won't be low state
 1357               		.stabn	68,0,351,.LM166-.LFBB18
 1358               	.LM166:
 1359 037e 2BB1      		in r18,0xb
 1360 0380 892F      		mov r24,r25
 1361 0382 8095      		com r24
 1362 0384 2823      		and r18,r24
 1363 0386 2BB9      		out 0xb,r18
 355:/home/student/avr_src/SimulIDE_1.0.0-SR1_Lin64/mtpS/mtpS.c **** 				DDRD |= 0x70; 
 1364               		.stabn	68,0,355,.LM167-.LFBB18
 1365               	.LM167:
 1366 0388 2AB1      		in r18,0xa
 1367 038a 8223      		and r24,r18
 1368 038c 8AB9      		out 0xa,r24
 356:/home/student/avr_src/SimulIDE_1.0.0-SR1_Lin64/mtpS/mtpS.c **** 				
 1369               		.stabn	68,0,356,.LM168-.LFBB18
 1370               	.LM168:
 1371 038e 8AB1      		in r24,0xa
 1372 0390 8067      		ori r24,lo8(112)
 1373 0392 8AB9      		out 0xa,r24
 358:/home/student/avr_src/SimulIDE_1.0.0-SR1_Lin64/mtpS/mtpS.c ****                 if(new_key == 0x0f){ // + when raw is LOW
 1374               		.stabn	68,0,358,.LM169-.LFBB18
 1375               	.LM169:
 1376 0394 83B1      		in r24,0x3
 1377 0396 8F70      		andi r24,lo8(15)
 1378 0398 8093 0000 		sts new_key,r24
 359:/home/student/avr_src/SimulIDE_1.0.0-SR1_Lin64/mtpS/mtpS.c ****                   
 1379               		.stabn	68,0,359,.LM170-.LFBB18
 1380               	.LM170:
 1381 039c 8091 0000 		lds r24,new_key
 1382 03a0 8F30      		cpi r24,lo8(15)
 1383 03a2 01F4      		brne .L71
 361:/home/student/avr_src/SimulIDE_1.0.0-SR1_Lin64/mtpS/mtpS.c ****                     continue;
 1384               		.stabn	68,0,361,.LM171-.LFBB18
 1385               	.LM171:
 1386 03a4 990F      		lsl r25
 349:/home/student/avr_src/SimulIDE_1.0.0-SR1_Lin64/mtpS/mtpS.c ****                 PORTD |= 0x70; 
 1387               		.stabn	68,0,349,.LM172-.LFBB18
 1388               	.LM172:
 1389 03a6 2196      		adiw r28,1
 1390 03a8 C330      		cpi r28,3
 1391 03aa D105      		cpc r29,__zero_reg__
 1392 03ac 01F4      		brne .L72
 1393               	.LBE160:
 377:/home/student/avr_src/SimulIDE_1.0.0-SR1_Lin64/mtpS/mtpS.c **** 
 1394               		.stabn	68,0,377,.LM173-.LFBB18
 1395               	.LM173:
 1396 03ae 00C0      		rjmp .L66
 1397               	.L71:
 1398               	.LBB161:
 365:/home/student/avr_src/SimulIDE_1.0.0-SR1_Lin64/mtpS/mtpS.c **** 					lcd_flag = 1;
 1399               		.stabn	68,0,365,.LM174-.LFBB18
 1400               	.LM174:
 1401 03b0 8091 0000 		lds r24,lcd_flag
 1402 03b4 8111      		cpse r24,__zero_reg__
 1403 03b6 00C0      		rjmp .L74
 365:/home/student/avr_src/SimulIDE_1.0.0-SR1_Lin64/mtpS/mtpS.c **** 					lcd_flag = 1;
 1404               		.stabn	68,0,365,.LM175-.LFBB18
 1405               	.LM175:
 1406 03b8 87E2      		ldi r24,lo8(39)
 1407 03ba 0E94 0000 		call I2C_LCD_init
 1408               	.L74:
 366:/home/student/avr_src/SimulIDE_1.0.0-SR1_Lin64/mtpS/mtpS.c ****                     pressing_flag = 1;
 1409               		.stabn	68,0,366,.LM176-.LFBB18
 1410               	.LM176:
 1411 03be 81E0      		ldi r24,lo8(1)
 1412 03c0 8093 0000 		sts lcd_flag,r24
 367:/home/student/avr_src/SimulIDE_1.0.0-SR1_Lin64/mtpS/mtpS.c ****                     key_flag = 1;
 1413               		.stabn	68,0,367,.LM177-.LFBB18
 1414               	.LM177:
 1415 03c4 8093 0000 		sts pressing_flag,r24
 368:/home/student/avr_src/SimulIDE_1.0.0-SR1_Lin64/mtpS/mtpS.c ****                     return key_analysis(new_key, Raw);
 1416               		.stabn	68,0,368,.LM178-.LFBB18
 1417               	.LM178:
 1418 03c8 8093 0000 		sts key_flag,r24
 369:/home/student/avr_src/SimulIDE_1.0.0-SR1_Lin64/mtpS/mtpS.c ****                 }
 1419               		.stabn	68,0,369,.LM179-.LFBB18
 1420               	.LM179:
 1421 03cc 8091 0000 		lds r24,new_key
 1422 03d0 6C2F      		mov r22,r28
 1423               	/* epilogue start */
 1424               	.LBE161:
 377:/home/student/avr_src/SimulIDE_1.0.0-SR1_Lin64/mtpS/mtpS.c **** 
 1425               		.stabn	68,0,377,.LM180-.LFBB18
 1426               	.LM180:
 1427 03d2 DF91      		pop r29
 1428 03d4 CF91      		pop r28
 1429               	.LBB162:
 369:/home/student/avr_src/SimulIDE_1.0.0-SR1_Lin64/mtpS/mtpS.c ****                 }
 1430               		.stabn	68,0,369,.LM181-.LFBB18
 1431               	.LM181:
 1432 03d6 0C94 0000 		jmp key_analysis
 1433               	.L69:
 1434 03da 8FEF      		ldi r24,lo8(-1)
 1435               	.L66:
 1436               	/* epilogue start */
 1437               	.LBE162:
 377:/home/student/avr_src/SimulIDE_1.0.0-SR1_Lin64/mtpS/mtpS.c **** 
 1438               		.stabn	68,0,377,.LM182-.LFBB18
 1439               	.LM182:
 1440 03dc DF91      		pop r29
 1441 03de CF91      		pop r28
 1442 03e0 0895      		ret
 1443               		.size	key_scan, .-key_scan
 1444               		.stabs	"bit_shift:r(0,13)",64,0,323,25
 1445               		.stabn	192,0,0,.LFBB18-.LFBB18
 1446               		.stabs	"Raw:r(0,1)",64,0,349,28
 1447               		.stabn	192,0,0,.LBB160-.LFBB18
 1448               		.stabn	224,0,0,.LBE160-.LFBB18
 1449               		.stabs	"Raw:r(0,1)",64,0,349,28
 1450               		.stabn	192,0,0,.LBB161-.LFBB18
 1451               		.stabn	224,0,0,.LBE161-.LFBB18
 1452               		.stabs	"Raw:r(0,1)",64,0,349,28
 1453               		.stabn	192,0,0,.LBB162-.LFBB18
 1454               		.stabn	224,0,0,.LBE162-.LFBB18
 1455               		.stabn	224,0,0,.Lscope18-.LFBB18
 1456               	.Lscope18:
 1457               		.stabs	"",36,0,0,.Lscope18-.LFBB18
 1458               		.stabd	78,0,0
 1459               		.stabs	"LCD_CharWrite:F(0,49)",36,0,445,LCD_CharWrite
 1460               	.global	LCD_CharWrite
 1461               		.type	LCD_CharWrite, @function
 1462               	LCD_CharWrite:
 1463               		.stabd	46,0,0
 445:/home/student/avr_src/SimulIDE_1.0.0-SR1_Lin64/mtpS/mtpS.c **** 	
 1464               		.stabn	68,0,445,.LM183-.LFBB19
 1465               	.LM183:
 1466               	.LFBB19:
 1467 03e2 CF93      		push r28
 1468 03e4 DF93      		push r29
 1469               	/* prologue: function */
 1470               	/* frame size = 0 */
 1471               	/* stack size = 2 */
 1472               	.L__stack_usage = 2
 1473 03e6 EC01      		movw r28,r24
 447:/home/student/avr_src/SimulIDE_1.0.0-SR1_Lin64/mtpS/mtpS.c **** 
 1474               		.stabn	68,0,447,.LM184-.LFBB19
 1475               	.LM184:
 1476               	/* #APP */
 1477               	 ;  447 "/home/student/avr_src/SimulIDE_1.0.0-SR1_Lin64/mtpS/mtpS.c" 1
 1478 03e8 F894      		cli
 1479               	 ;  0 "" 2
 1480               	/* #NOAPP */
 1481               	.LBB163:
 1482               	.LBB164:
 1483               		.stabs	"/usr/lib/avr/include/util/delay.h",132,0,0,.Ltext47
 1484               	.Ltext47:
 1485               		.stabn	68,0,276,.LM185-.LFBB19
 1486               	.LM185:
 1487 03ea 85E0      		ldi r24,lo8(5)
 1488 03ec 8A95      	1:	dec r24
 1489 03ee 01F4      		brne 1b
 1490 03f0 0000      		nop
 1491               	.LBE164:
 1492               	.LBE163:
 1493               		.stabs	"/home/student/avr_src/SimulIDE_1.0.0-SR1_Lin64/mtpS/mtpS.c",132,0,0,.Ltext48
 1494               	.Ltext48:
 450:/home/student/avr_src/SimulIDE_1.0.0-SR1_Lin64/mtpS/mtpS.c **** 	write_AT24Cxx_i2c_LCDAddressing((I2CLCD_ADDR << 1)); 
 1495               		.stabn	68,0,450,.LM186-.LFBB19
 1496               	.LM186:
 1497 03f2 0E94 0000 		call AT24Cxx_i2c_start
 451:/home/student/avr_src/SimulIDE_1.0.0-SR1_Lin64/mtpS/mtpS.c **** 	unsigned char upperbits = byte>>8 & 0xFF;
 1498               		.stabn	68,0,451,.LM187-.LFBB19
 1499               	.LM187:
 1500 03f6 8EE4      		ldi r24,lo8(78)
 1501 03f8 0E94 0000 		call write_AT24Cxx_i2c_LCDAddressing
 1502               	.LBB165:
 1503               	.LBB166:
 538:/home/student/avr_src/SimulIDE_1.0.0-SR1_Lin64/mtpS/mtpS.c **** 
 539:/home/student/avr_src/SimulIDE_1.0.0-SR1_Lin64/mtpS/mtpS.c **** }
 540:/home/student/avr_src/SimulIDE_1.0.0-SR1_Lin64/mtpS/mtpS.c **** void LCD_NEBIT(unsigned char byte){
 541:/home/student/avr_src/SimulIDE_1.0.0-SR1_Lin64/mtpS/mtpS.c **** 	write_AT24Cxx_i2c_LCDAddressing(byte);
 1504               		.stabn	68,0,541,.LM188-.LFBB19
 1505               	.LM188:
 1506 03fc 8D2F      		mov r24,r29
 1507 03fe 0E94 0000 		call write_AT24Cxx_i2c_LCDAddressing
 1508               	.LBE166:
 1509               	.LBE165:
 455:/home/student/avr_src/SimulIDE_1.0.0-SR1_Lin64/mtpS/mtpS.c **** 	LCD_NEBIT(lowerbits);
 1510               		.stabn	68,0,455,.LM189-.LFBB19
 1511               	.LM189:
 1512 0402 8D2F      		mov r24,r29
 1513 0404 0E94 0000 		call write_AT24Cxx_i2c_byte
 1514               	.LBB167:
 1515               	.LBB168:
 1516               		.stabn	68,0,541,.LM190-.LFBB19
 1517               	.LM190:
 1518 0408 8C2F      		mov r24,r28
 1519 040a 0E94 0000 		call write_AT24Cxx_i2c_LCDAddressing
 1520               	.LBE168:
 1521               	.LBE167:
 457:/home/student/avr_src/SimulIDE_1.0.0-SR1_Lin64/mtpS/mtpS.c **** 	AT24Cxx_i2c_stop();
 1522               		.stabn	68,0,457,.LM191-.LFBB19
 1523               	.LM191:
 1524 040e 8C2F      		mov r24,r28
 1525 0410 0E94 0000 		call write_AT24Cxx_i2c_byte
 458:/home/student/avr_src/SimulIDE_1.0.0-SR1_Lin64/mtpS/mtpS.c **** 	sei();
 1526               		.stabn	68,0,458,.LM192-.LFBB19
 1527               	.LM192:
 1528 0414 0E94 0000 		call AT24Cxx_i2c_stop
 459:/home/student/avr_src/SimulIDE_1.0.0-SR1_Lin64/mtpS/mtpS.c **** }
 1529               		.stabn	68,0,459,.LM193-.LFBB19
 1530               	.LM193:
 1531               	/* #APP */
 1532               	 ;  459 "/home/student/avr_src/SimulIDE_1.0.0-SR1_Lin64/mtpS/mtpS.c" 1
 1533 0418 7894      		sei
 1534               	 ;  0 "" 2
 1535               	/* epilogue start */
 460:/home/student/avr_src/SimulIDE_1.0.0-SR1_Lin64/mtpS/mtpS.c **** 
 1536               		.stabn	68,0,460,.LM194-.LFBB19
 1537               	.LM194:
 1538               	/* #NOAPP */
 1539 041a DF91      		pop r29
 1540 041c CF91      		pop r28
 1541 041e 0895      		ret
 1542               		.size	LCD_CharWrite, .-LCD_CharWrite
 1543               	.Lscope19:
 1544               		.stabs	"",36,0,0,.Lscope19-.LFBB19
 1545               		.stabd	78,0,0
 1546               		.stabs	"__vector_11:F(0,49)",36,0,182,__vector_11
 1547               	.global	__vector_11
 1548               		.type	__vector_11, @function
 1549               	__vector_11:
 1550               		.stabd	46,0,0
 182:/home/student/avr_src/SimulIDE_1.0.0-SR1_Lin64/mtpS/mtpS.c **** 
 1551               		.stabn	68,0,182,.LM195-.LFBB20
 1552               	.LM195:
 1553               	.LFBB20:
 1554 0420 1F92      		push r1
 1555 0422 0F92      		push r0
 1556 0424 0FB6      		in r0,__SREG__
 1557 0426 0F92      		push r0
 1558 0428 1124      		clr __zero_reg__
 1559 042a 2F93      		push r18
 1560 042c 3F93      		push r19
 1561 042e 4F93      		push r20
 1562 0430 5F93      		push r21
 1563 0432 6F93      		push r22
 1564 0434 7F93      		push r23
 1565 0436 8F93      		push r24
 1566 0438 9F93      		push r25
 1567 043a AF93      		push r26
 1568 043c BF93      		push r27
 1569 043e EF93      		push r30
 1570 0440 FF93      		push r31
 1571               	/* prologue: Signal */
 1572               	/* frame size = 0 */
 1573               	/* stack size = 15 */
 1574               	.L__stack_usage = 15
 185:/home/student/avr_src/SimulIDE_1.0.0-SR1_Lin64/mtpS/mtpS.c **** 
 1575               		.stabn	68,0,185,.LM196-.LFBB20
 1576               	.LM196:
 1577 0442 0E94 0000 		call key_scan
 1578 0446 8093 0000 		sts key_data,r24
 189:/home/student/avr_src/SimulIDE_1.0.0-SR1_Lin64/mtpS/mtpS.c **** 		
 1579               		.stabn	68,0,189,.LM197-.LFBB20
 1580               	.LM197:
 1581 044a 8091 0000 		lds r24,key_flag
 1582 044e 8823      		tst r24
 1583 0450 01F4      		brne .+2
 1584 0452 00C0      		rjmp .L82
 191:/home/student/avr_src/SimulIDE_1.0.0-SR1_Lin64/mtpS/mtpS.c **** 
 1585               		.stabn	68,0,191,.LM198-.LFBB20
 1586               	.LM198:
 1587 0454 1092 0000 		sts key_flag,__zero_reg__
 193:/home/student/avr_src/SimulIDE_1.0.0-SR1_Lin64/mtpS/mtpS.c ****             return ;
 1588               		.stabn	68,0,193,.LM199-.LFBB20
 1589               	.LM199:
 1590 0458 8091 0000 		lds r24,key_data
 1591 045c 8F3F      		cpi r24,lo8(-1)
 1592 045e 01F4      		brne .+2
 1593 0460 00C0      		rjmp .L81
 197:/home/student/avr_src/SimulIDE_1.0.0-SR1_Lin64/mtpS/mtpS.c ****             //key_data += 32; // 42 -> *
 1594               		.stabn	68,0,197,.LM200-.LFBB20
 1595               	.LM200:
 1596 0462 8091 0000 		lds r24,key_data
 1597 0466 8A30      		cpi r24,lo8(10)
 1598 0468 01F4      		brne .L84
 199:/home/student/avr_src/SimulIDE_1.0.0-SR1_Lin64/mtpS/mtpS.c ****         }
 1599               		.stabn	68,0,199,.LM201-.LFBB20
 1600               	.LM201:
 1601 046a 87E2      		ldi r24,lo8(39)
 1602 046c 0E94 0000 		call I2C_LCD_init
 1603               	.L84:
 201:/home/student/avr_src/SimulIDE_1.0.0-SR1_Lin64/mtpS/mtpS.c ****             //key_data += 24; // 35 -> #
 1604               		.stabn	68,0,201,.LM202-.LFBB20
 1605               	.LM202:
 1606 0470 8091 0000 		lds r24,key_data
 1607 0474 8B30      		cpi r24,lo8(11)
 1608 0476 01F4      		brne .L85
 203:/home/student/avr_src/SimulIDE_1.0.0-SR1_Lin64/mtpS/mtpS.c **** 			_delay_us(38);
 1609               		.stabn	68,0,203,.LM203-.LFBB20
 1610               	.LM203:
 1611 0478 80E1      		ldi r24,lo8(16)
 1612 047a 90E0      		ldi r25,0
 1613 047c 0E94 0000 		call LCD_CharWrite
 1614               	.LBB189:
 1615               	.LBB190:
 1616               		.stabs	"/usr/lib/avr/include/util/delay.h",132,0,0,.Ltext49
 1617               	.Ltext49:
 1618               		.stabn	68,0,276,.LM204-.LFBB20
 1619               	.LM204:
 1620 0480 8AEC      		ldi r24,lo8(-54)
 1621 0482 8A95      	1:	dec r24
 1622 0484 01F4      		brne 1b
 1623 0486 00C0      		rjmp .
 1624               	.LBE190:
 1625               	.LBE189:
 1626               		.stabs	"/home/student/avr_src/SimulIDE_1.0.0-SR1_Lin64/mtpS/mtpS.c",132,0,0,.Ltext50
 1627               	.Ltext50:
 205:/home/student/avr_src/SimulIDE_1.0.0-SR1_Lin64/mtpS/mtpS.c **** 			_delay_ms(5);
 1628               		.stabn	68,0,205,.LM205-.LFBB20
 1629               	.LM205:
 1630 0488 80E3      		ldi r24,lo8(48)
 1631 048a 90E0      		ldi r25,0
 1632 048c 0E94 0000 		call LCD_CharWrite
 1633               	.LBB191:
 1634               	.LBB192:
 1635               		.stabs	"/usr/lib/avr/include/util/delay.h",132,0,0,.Ltext51
 1636               	.Ltext51:
 187:/usr/lib/avr/include/util/delay.h **** 
 1637               		.stabn	68,0,187,.LM206-.LFBB20
 1638               	.LM206:
 1639 0490 8FE1      		ldi r24,lo8(19999)
 1640 0492 9EE4      		ldi r25,hi8(19999)
 1641 0494 0197      	1:	sbiw r24,1
 1642 0496 01F4      		brne 1b
 1643 0498 00C0      		rjmp .
 1644 049a 0000      		nop
 1645               	.LBE192:
 1646               	.LBE191:
 1647               		.stabs	"/home/student/avr_src/SimulIDE_1.0.0-SR1_Lin64/mtpS/mtpS.c",132,0,0,.Ltext52
 1648               	.Ltext52:
 208:/home/student/avr_src/SimulIDE_1.0.0-SR1_Lin64/mtpS/mtpS.c **** 			_delay_ms(5);
 1649               		.stabn	68,0,208,.LM207-.LFBB20
 1650               	.LM207:
 1651 049c 87E2      		ldi r24,lo8(39)
 1652 049e 0E94 0000 		call I2C_LCD_init
 1653               	.LBB193:
 1654               	.LBB194:
 1655               		.stabs	"/usr/lib/avr/include/util/delay.h",132,0,0,.Ltext53
 1656               	.Ltext53:
 187:/usr/lib/avr/include/util/delay.h **** 
 1657               		.stabn	68,0,187,.LM208-.LFBB20
 1658               	.LM208:
 1659 04a2 8FE1      		ldi r24,lo8(19999)
 1660 04a4 9EE4      		ldi r25,hi8(19999)
 1661 04a6 0197      	1:	sbiw r24,1
 1662 04a8 01F4      		brne 1b
 1663 04aa 00C0      		rjmp .
 1664 04ac 0000      		nop
 1665               	.LBE194:
 1666               	.LBE193:
 1667               		.stabs	"/home/student/avr_src/SimulIDE_1.0.0-SR1_Lin64/mtpS/mtpS.c",132,0,0,.Ltext54
 1668               	.Ltext54:
 211:/home/student/avr_src/SimulIDE_1.0.0-SR1_Lin64/mtpS/mtpS.c **** 			_delay_us(38);
 1669               		.stabn	68,0,211,.LM209-.LFBB20
 1670               	.LM209:
 1671 04ae 80E1      		ldi r24,lo8(16)
 1672 04b0 90E0      		ldi r25,0
 1673 04b2 0E94 0000 		call LCD_CharWrite
 1674               	.LBB195:
 1675               	.LBB196:
 1676               		.stabs	"/usr/lib/avr/include/util/delay.h",132,0,0,.Ltext55
 1677               	.Ltext55:
 1678               		.stabn	68,0,276,.LM210-.LFBB20
 1679               	.LM210:
 1680 04b6 9AEC      		ldi r25,lo8(-54)
 1681 04b8 9A95      	1:	dec r25
 1682 04ba 01F4      		brne 1b
 1683 04bc 00C0      		rjmp .
 1684               	.LBE196:
 1685               	.LBE195:
 1686               		.stabs	"/home/student/avr_src/SimulIDE_1.0.0-SR1_Lin64/mtpS/mtpS.c",132,0,0,.Ltext56
 1687               	.Ltext56:
 213:/home/student/avr_src/SimulIDE_1.0.0-SR1_Lin64/mtpS/mtpS.c **** 			_delay_ms(10);
 1688               		.stabn	68,0,213,.LM211-.LFBB20
 1689               	.LM211:
 1690 04be 80E3      		ldi r24,lo8(48)
 1691 04c0 90E0      		ldi r25,0
 1692 04c2 0E94 0000 		call LCD_CharWrite
 1693               	.LBB197:
 1694               	.LBB198:
 1695               		.stabs	"/usr/lib/avr/include/util/delay.h",132,0,0,.Ltext57
 1696               	.Ltext57:
 187:/usr/lib/avr/include/util/delay.h **** 
 1697               		.stabn	68,0,187,.LM212-.LFBB20
 1698               	.LM212:
 1699 04c6 8FE3      		ldi r24,lo8(-25537)
 1700 04c8 9CE9      		ldi r25,hi8(-25537)
 1701 04ca 0197      	1:	sbiw r24,1
 1702 04cc 01F4      		brne 1b
 1703 04ce 00C0      		rjmp .
 1704 04d0 0000      		nop
 1705               	.LBE198:
 1706               	.LBE197:
 1707               		.stabs	"/home/student/avr_src/SimulIDE_1.0.0-SR1_Lin64/mtpS/mtpS.c",132,0,0,.Ltext58
 1708               	.Ltext58:
 216:/home/student/avr_src/SimulIDE_1.0.0-SR1_Lin64/mtpS/mtpS.c **** 			_delay_ms(10);
 1709               		.stabn	68,0,216,.LM213-.LFBB20
 1710               	.LM213:
 1711 04d2 87E2      		ldi r24,lo8(39)
 1712 04d4 0E94 0000 		call I2C_LCD_init
 1713               	.LBB199:
 1714               	.LBB200:
 1715               		.stabs	"/usr/lib/avr/include/util/delay.h",132,0,0,.Ltext59
 1716               	.Ltext59:
 187:/usr/lib/avr/include/util/delay.h **** 
 1717               		.stabn	68,0,187,.LM214-.LFBB20
 1718               	.LM214:
 1719 04d8 8FE3      		ldi r24,lo8(-25537)
 1720 04da 9CE9      		ldi r25,hi8(-25537)
 1721 04dc 0197      	1:	sbiw r24,1
 1722 04de 01F4      		brne 1b
 1723 04e0 00C0      		rjmp .
 1724 04e2 0000      		nop
 1725               	.LBE200:
 1726               	.LBE199:
 1727               		.stabs	"/home/student/avr_src/SimulIDE_1.0.0-SR1_Lin64/mtpS/mtpS.c",132,0,0,.Ltext60
 1728               	.Ltext60:
 218:/home/student/avr_src/SimulIDE_1.0.0-SR1_Lin64/mtpS/mtpS.c **** 
 1729               		.stabn	68,0,218,.LM215-.LFBB20
 1730               	.LM215:
 1731 04e4 87E2      		ldi r24,lo8(39)
 1732 04e6 0E94 0000 		call I2C_LCD_init
 1733               	.L85:
 225:/home/student/avr_src/SimulIDE_1.0.0-SR1_Lin64/mtpS/mtpS.c **** 			LCD_CharWrite(num2lcdbyte(1));
 1734               		.stabn	68,0,225,.LM216-.LFBB20
 1735               	.LM216:
 1736 04ea 8091 0000 		lds r24,key_data
 1737 04ee 8130      		cpi r24,lo8(1)
 1738 04f0 01F4      		brne .L86
 226:/home/student/avr_src/SimulIDE_1.0.0-SR1_Lin64/mtpS/mtpS.c **** 			//key_data += '0';
 1739               		.stabn	68,0,226,.LM217-.LFBB20
 1740               	.LM217:
 1741 04f2 81E1      		ldi r24,lo8(17)
 1742 04f4 91E3      		ldi r25,lo8(49)
 1743 04f6 0E94 0000 		call LCD_CharWrite
 1744               	.L86:
 229:/home/student/avr_src/SimulIDE_1.0.0-SR1_Lin64/mtpS/mtpS.c **** 			LCD_CharWrite(num2lcdbyte(2));
 1745               		.stabn	68,0,229,.LM218-.LFBB20
 1746               	.LM218:
 1747 04fa 8091 0000 		lds r24,key_data
 1748 04fe 8230      		cpi r24,lo8(2)
 1749 0500 01F4      		brne .L87
 230:/home/student/avr_src/SimulIDE_1.0.0-SR1_Lin64/mtpS/mtpS.c **** 			//key_data += '0';
 1750               		.stabn	68,0,230,.LM219-.LFBB20
 1751               	.LM219:
 1752 0502 81E2      		ldi r24,lo8(33)
 1753 0504 91E3      		ldi r25,lo8(49)
 1754 0506 0E94 0000 		call LCD_CharWrite
 1755               	.L87:
 233:/home/student/avr_src/SimulIDE_1.0.0-SR1_Lin64/mtpS/mtpS.c **** 			LCD_CharWrite(num2lcdbyte(3));
 1756               		.stabn	68,0,233,.LM220-.LFBB20
 1757               	.LM220:
 1758 050a 8091 0000 		lds r24,key_data
 1759 050e 8330      		cpi r24,lo8(3)
 1760 0510 01F4      		brne .L88
 234:/home/student/avr_src/SimulIDE_1.0.0-SR1_Lin64/mtpS/mtpS.c **** 			//key_data += '0';
 1761               		.stabn	68,0,234,.LM221-.LFBB20
 1762               	.LM221:
 1763 0512 81E3      		ldi r24,lo8(49)
 1764 0514 91E3      		ldi r25,lo8(49)
 1765 0516 0E94 0000 		call LCD_CharWrite
 1766               	.L88:
 237:/home/student/avr_src/SimulIDE_1.0.0-SR1_Lin64/mtpS/mtpS.c **** 			LCD_CharWrite(num2lcdbyte(4));
 1767               		.stabn	68,0,237,.LM222-.LFBB20
 1768               	.LM222:
 1769 051a 8091 0000 		lds r24,key_data
 1770 051e 8430      		cpi r24,lo8(4)
 1771 0520 01F4      		brne .L89
 238:/home/student/avr_src/SimulIDE_1.0.0-SR1_Lin64/mtpS/mtpS.c **** 			//key_data += '0';
 1772               		.stabn	68,0,238,.LM223-.LFBB20
 1773               	.LM223:
 1774 0522 81E4      		ldi r24,lo8(65)
 1775 0524 91E3      		ldi r25,lo8(49)
 1776 0526 0E94 0000 		call LCD_CharWrite
 1777               	.L89:
 241:/home/student/avr_src/SimulIDE_1.0.0-SR1_Lin64/mtpS/mtpS.c **** 			
 1778               		.stabn	68,0,241,.LM224-.LFBB20
 1779               	.LM224:
 1780 052a 8091 0000 		lds r24,key_data
 1781 052e 8530      		cpi r24,lo8(5)
 1782 0530 01F4      		brne .L90
 243:/home/student/avr_src/SimulIDE_1.0.0-SR1_Lin64/mtpS/mtpS.c **** 			//key_data += '0';
 1783               		.stabn	68,0,243,.LM225-.LFBB20
 1784               	.LM225:
 1785 0532 81E5      		ldi r24,lo8(81)
 1786 0534 91E3      		ldi r25,lo8(49)
 1787 0536 0E94 0000 		call LCD_CharWrite
 1788               	.L90:
 246:/home/student/avr_src/SimulIDE_1.0.0-SR1_Lin64/mtpS/mtpS.c **** 			
 1789               		.stabn	68,0,246,.LM226-.LFBB20
 1790               	.LM226:
 1791 053a 8091 0000 		lds r24,key_data
 1792 053e 8630      		cpi r24,lo8(6)
 1793 0540 01F4      		brne .L91
 248:/home/student/avr_src/SimulIDE_1.0.0-SR1_Lin64/mtpS/mtpS.c **** 			//key_data += '0';
 1794               		.stabn	68,0,248,.LM227-.LFBB20
 1795               	.LM227:
 1796 0542 81E6      		ldi r24,lo8(97)
 1797 0544 91E3      		ldi r25,lo8(49)
 1798 0546 0E94 0000 		call LCD_CharWrite
 1799               	.L91:
 251:/home/student/avr_src/SimulIDE_1.0.0-SR1_Lin64/mtpS/mtpS.c **** 			
 1800               		.stabn	68,0,251,.LM228-.LFBB20
 1801               	.LM228:
 1802 054a 8091 0000 		lds r24,key_data
 1803 054e 8730      		cpi r24,lo8(7)
 1804 0550 01F4      		brne .L92
 253:/home/student/avr_src/SimulIDE_1.0.0-SR1_Lin64/mtpS/mtpS.c **** 			//key_data += '0';
 1805               		.stabn	68,0,253,.LM229-.LFBB20
 1806               	.LM229:
 1807 0552 81E7      		ldi r24,lo8(113)
 1808 0554 91E3      		ldi r25,lo8(49)
 1809 0556 0E94 0000 		call LCD_CharWrite
 1810               	.L92:
 256:/home/student/avr_src/SimulIDE_1.0.0-SR1_Lin64/mtpS/mtpS.c **** 			
 1811               		.stabn	68,0,256,.LM230-.LFBB20
 1812               	.LM230:
 1813 055a 8091 0000 		lds r24,key_data
 1814 055e 8830      		cpi r24,lo8(8)
 1815 0560 01F4      		brne .L93
 258:/home/student/avr_src/SimulIDE_1.0.0-SR1_Lin64/mtpS/mtpS.c **** 			//key_data += '0';
 1816               		.stabn	68,0,258,.LM231-.LFBB20
 1817               	.LM231:
 1818 0562 81E8      		ldi r24,lo8(-127)
 1819 0564 91E3      		ldi r25,lo8(49)
 1820 0566 0E94 0000 		call LCD_CharWrite
 1821               	.L93:
 261:/home/student/avr_src/SimulIDE_1.0.0-SR1_Lin64/mtpS/mtpS.c **** 			
 1822               		.stabn	68,0,261,.LM232-.LFBB20
 1823               	.LM232:
 1824 056a 8091 0000 		lds r24,key_data
 1825 056e 8930      		cpi r24,lo8(9)
 1826 0570 01F4      		brne .L94
 263:/home/student/avr_src/SimulIDE_1.0.0-SR1_Lin64/mtpS/mtpS.c **** 			//key_data += '0';
 1827               		.stabn	68,0,263,.LM233-.LFBB20
 1828               	.LM233:
 1829 0572 81E9      		ldi r24,lo8(-111)
 1830 0574 91E3      		ldi r25,lo8(49)
 1831 0576 0E94 0000 		call LCD_CharWrite
 1832               	.L94:
 266:/home/student/avr_src/SimulIDE_1.0.0-SR1_Lin64/mtpS/mtpS.c **** 			
 1833               		.stabn	68,0,266,.LM234-.LFBB20
 1834               	.LM234:
 1835 057a 8091 0000 		lds r24,key_data
 1836 057e 8111      		cpse r24,__zero_reg__
 1837 0580 00C0      		rjmp .L95
 268:/home/student/avr_src/SimulIDE_1.0.0-SR1_Lin64/mtpS/mtpS.c **** 			//key_data += '0';
 1838               		.stabn	68,0,268,.LM235-.LFBB20
 1839               	.LM235:
 1840 0582 81E0      		ldi r24,lo8(1)
 1841 0584 91E3      		ldi r25,lo8(49)
 1842 0586 0E94 0000 		call LCD_CharWrite
 1843               	.L95:
 271:/home/student/avr_src/SimulIDE_1.0.0-SR1_Lin64/mtpS/mtpS.c **** 
 1844               		.stabn	68,0,271,.LM236-.LFBB20
 1845               	.LM236:
 1846 058a 80EF      		ldi r24,lo8(-16)
 1847 058c 90E0      		ldi r25,0
 1848 058e 0E94 0000 		call LCD_CharWrite
 273:/home/student/avr_src/SimulIDE_1.0.0-SR1_Lin64/mtpS/mtpS.c ****         //Tx_char(key_data);
 1849               		.stabn	68,0,273,.LM237-.LFBB20
 1850               	.LM237:
 1851 0592 459A      		sbi 0x8,5
 1852 0594 00C0      		rjmp .L81
 1853               	.L82:
 280:/home/student/avr_src/SimulIDE_1.0.0-SR1_Lin64/mtpS/mtpS.c ****   			PORTC &= ~0x01;
 1854               		.stabn	68,0,280,.LM238-.LFBB20
 1855               	.LM238:
 1856 0596 4598      		cbi 0x8,5
 281:/home/student/avr_src/SimulIDE_1.0.0-SR1_Lin64/mtpS/mtpS.c ****         }
 1857               		.stabn	68,0,281,.LM239-.LFBB20
 1858               	.LM239:
 1859 0598 4098      		cbi 0x8,0
 1860               	.L81:
 1861               	/* epilogue start */
 284:/home/student/avr_src/SimulIDE_1.0.0-SR1_Lin64/mtpS/mtpS.c **** 
 1862               		.stabn	68,0,284,.LM240-.LFBB20
 1863               	.LM240:
 1864 059a FF91      		pop r31
 1865 059c EF91      		pop r30
 1866 059e BF91      		pop r27
 1867 05a0 AF91      		pop r26
 1868 05a2 9F91      		pop r25
 1869 05a4 8F91      		pop r24
 1870 05a6 7F91      		pop r23
 1871 05a8 6F91      		pop r22
 1872 05aa 5F91      		pop r21
 1873 05ac 4F91      		pop r20
 1874 05ae 3F91      		pop r19
 1875 05b0 2F91      		pop r18
 1876 05b2 0F90      		pop r0
 1877 05b4 0FBE      		out __SREG__,r0
 1878 05b6 0F90      		pop r0
 1879 05b8 1F90      		pop r1
 1880 05ba 1895      		reti
 1881               		.size	__vector_11, .-__vector_11
 1882               	.Lscope20:
 1883               		.stabs	"",36,0,0,.Lscope20-.LFBB20
 1884               		.stabd	78,0,0
 1885               		.stabs	"LCD_NEBIT:F(0,49)",36,0,540,LCD_NEBIT
 1886               		.stabs	"byte:P(0,13)",64,0,540,24
 1887               	.global	LCD_NEBIT
 1888               		.type	LCD_NEBIT, @function
 1889               	LCD_NEBIT:
 1890               		.stabd	46,0,0
 540:/home/student/avr_src/SimulIDE_1.0.0-SR1_Lin64/mtpS/mtpS.c **** 	write_AT24Cxx_i2c_LCDAddressing(byte);
 1891               		.stabn	68,0,540,.LM241-.LFBB21
 1892               	.LM241:
 1893               	.LFBB21:
 1894               	/* prologue: function */
 1895               	/* frame size = 0 */
 1896               	/* stack size = 0 */
 1897               	.L__stack_usage = 0
 1898               		.stabn	68,0,541,.LM242-.LFBB21
 1899               	.LM242:
 1900 05bc 0C94 0000 		jmp write_AT24Cxx_i2c_LCDAddressing
 1901               		.size	LCD_NEBIT, .-LCD_NEBIT
 1902               	.Lscope21:
 1903               		.stabs	"",36,0,0,.Lscope21-.LFBB21
 1904               		.stabd	78,0,0
 1905               	.global	ASCII_Table
 1906               		.data
 1907               		.type	ASCII_Table, @object
 1908               		.size	ASCII_Table, 16
 1909               	ASCII_Table:
 1910 0000 30        		.byte	48
 1911 0001 31        		.byte	49
 1912 0002 32        		.byte	50
 1913 0003 33        		.byte	51
 1914 0004 34        		.byte	52
 1915 0005 35        		.byte	53
 1916 0006 36        		.byte	54
 1917 0007 37        		.byte	55
 1918 0008 38        		.byte	56
 1919 0009 39        		.byte	57
 1920 000a 41        		.byte	65
 1921 000b 42        		.byte	66
 1922 000c 43        		.byte	67
 1923 000d 44        		.byte	68
 1924 000e 45        		.byte	69
 1925 000f 46        		.byte	70
 1926               		.comm	digit,3,1
 1927               	.global	Wait_time
 1928               		.section .bss
 1929               		.type	Wait_time, @object
 1930               		.size	Wait_time, 1
 1931               	Wait_time:
 1932 0000 00        		.zero	1
 1933               	.global	flag_time
 1934               		.type	flag_time, @object
 1935               		.size	flag_time, 1
 1936               	flag_time:
 1937 0001 00        		.zero	1
 1938               		.comm	old_key,1,1
 1939               	.global	current_key
 1940               		.type	current_key, @object
 1941               		.size	current_key, 1
 1942               	current_key:
 1943 0002 00        		.zero	1
 1944               	.global	keyNum
 1945               		.type	keyNum, @object
 1946               		.size	keyNum, 1
 1947               	keyNum:
 1948 0003 00        		.zero	1
 1949               	.global	pressing_flag
 1950               		.type	pressing_flag, @object
 1951               		.size	pressing_flag, 1
 1952               	pressing_flag:
 1953 0004 00        		.zero	1
 1954               	.global	key_data
 1955               		.type	key_data, @object
 1956               		.size	key_data, 1
 1957               	key_data:
 1958 0005 00        		.zero	1
 1959               	.global	new_key
 1960               		.type	new_key, @object
 1961               		.size	new_key, 1
 1962               	new_key:
 1963 0006 00        		.zero	1
 1964               	.global	key_flag
 1965               		.type	key_flag, @object
 1966               		.size	key_flag, 1
 1967               	key_flag:
 1968 0007 00        		.zero	1
 1969               	.global	addr
 1970               		.type	addr, @object
 1971               		.size	addr, 1
 1972               	addr:
 1973 0008 00        		.zero	1
 1974               	.global	lcd_flag
 1975               		.type	lcd_flag, @object
 1976               		.size	lcd_flag, 1
 1977               	lcd_flag:
 1978 0009 00        		.zero	1
 1979               	.global	job
 1980               		.type	job, @object
 1981               		.size	job, 1
 1982               	job:
 1983 000a 00        		.zero	1
 1984               		.stabs	"job:G(0,50)=B(0,13)",32,0,33,0
 1985               		.stabs	"lcd_flag:G(0,50)",32,0,34,0
 1986               		.stabs	"addr:G(0,50)",32,0,35,0
 1987               		.stabs	"key_flag:G(0,50)",32,0,36,0
 1988               		.stabs	"new_key:G(0,50)",32,0,37,0
 1989               		.stabs	"key_data:G(0,50)",32,0,38,0
 1990               		.stabs	"pressing_flag:G(0,50)",32,0,39,0
 1991               		.stabs	"keyNum:G(0,50)",32,0,40,0
 1992               		.stabs	"current_key:G(0,50)",32,0,41,0
 1993               		.stabs	"old_key:G(0,50)",32,0,42,0
 1994               		.stabs	"flag_time:G(0,50)",32,0,43,0
 1995               		.stabs	"Wait_time:G(0,50)",32,0,44,0
 1996               		.stabs	"digit:G(0,51)=ar(0,52)=r(0,52);0;0177777;;0;2;(0,50)",32,0,45,0
 1997               		.stabs	"ASCII_Table:G(0,53)=ar(0,52);0;15;(0,50)",32,0,46,0
 1998               		.text
 1999               		.stabs	"",100,0,0,.Letext0
 2000               	.Letext0:
 2001               		.ident	"GCC: (GNU) 5.4.0"
 2002               	.global __do_copy_data
 2003               	.global __do_clear_bss
DEFINED SYMBOLS
                            *ABS*:0000000000000000 mtpS.c
     /tmp/ccWTXOL5.s:2      *ABS*:000000000000003e __SP_H__
     /tmp/ccWTXOL5.s:3      *ABS*:000000000000003d __SP_L__
     /tmp/ccWTXOL5.s:4      *ABS*:000000000000003f __SREG__
     /tmp/ccWTXOL5.s:5      *ABS*:0000000000000000 __tmp_reg__
     /tmp/ccWTXOL5.s:6      *ABS*:0000000000000001 __zero_reg__
     /tmp/ccWTXOL5.s:107    .text:0000000000000000 Timer1_init
     /tmp/ccWTXOL5.s:145    .text:0000000000000026 Port_init
     /tmp/ccWTXOL5.s:173    .text:0000000000000032 LED_ON
     /tmp/ccWTXOL5.s:200    .text:0000000000000040 LED_OFF
     /tmp/ccWTXOL5.s:232    .text:0000000000000054 __vector_14
     /tmp/ccWTXOL5.s:1931   .bss:0000000000000000 Wait_time
     /tmp/ccWTXOL5.s:267    .text:0000000000000072 USART_init
     /tmp/ccWTXOL5.s:303    .text.startup:0000000000000000 main
     /tmp/ccWTXOL5.s:339    .text:0000000000000092 Tx_char
     /tmp/ccWTXOL5.s:367    .text:00000000000000a0 key_analysis
     /tmp/ccWTXOL5.s:1967   .bss:0000000000000007 key_flag
     /tmp/ccWTXOL5.s:519    .text:0000000000000126 num2lcdbyte
     /tmp/ccWTXOL5.s:651    .text:0000000000000190 write_AT24Cxx_i2c_LCDAddressing
     /tmp/ccWTXOL5.s:779    .text:00000000000001da AT24Cxx_i2c_start
     /tmp/ccWTXOL5.s:829    .text:00000000000001f0 AT24Cxx_ACK_send
     /tmp/ccWTXOL5.s:926    .text:0000000000000222 AT24Cxx_i2c_stop
     /tmp/ccWTXOL5.s:981    .text:000000000000023a write_AT24Cxx_i2c_byte
     /tmp/ccWTXOL5.s:1021   .text:000000000000024a LCD_Write
     /tmp/ccWTXOL5.s:1055   .text:0000000000000256 I2C_LCD_init
     /tmp/ccWTXOL5.s:1285   .text:0000000000000324 key_scan
     /tmp/ccWTXOL5.s:1962   .bss:0000000000000006 new_key
                            *COM*:0000000000000001 old_key
     /tmp/ccWTXOL5.s:1952   .bss:0000000000000004 pressing_flag
     /tmp/ccWTXOL5.s:1977   .bss:0000000000000009 lcd_flag
     /tmp/ccWTXOL5.s:1462   .text:00000000000003e2 LCD_CharWrite
     /tmp/ccWTXOL5.s:1549   .text:0000000000000420 __vector_11
     /tmp/ccWTXOL5.s:1957   .bss:0000000000000005 key_data
     /tmp/ccWTXOL5.s:1889   .text:00000000000005bc LCD_NEBIT
     /tmp/ccWTXOL5.s:1909   .data:0000000000000000 ASCII_Table
                            *COM*:0000000000000003 digit
     /tmp/ccWTXOL5.s:1936   .bss:0000000000000001 flag_time
     /tmp/ccWTXOL5.s:1942   .bss:0000000000000002 current_key
     /tmp/ccWTXOL5.s:1947   .bss:0000000000000003 keyNum
     /tmp/ccWTXOL5.s:1972   .bss:0000000000000008 addr
     /tmp/ccWTXOL5.s:1982   .bss:000000000000000a job

UNDEFINED SYMBOLS
__do_copy_data
__do_clear_bss
