   1               		.file	"Timer.c"
   2               	__SP_H__ = 0x3e
   3               	__SP_L__ = 0x3d
   4               	__SREG__ = 0x3f
   5               	__tmp_reg__ = 0
   6               	__zero_reg__ = 1
   7               		.stabs	"/home/student/build-avr_linux_compiler-Desktop-Debug/",100,0,2,.Ltext0
   8               		.stabs	"/home/student/avr_src/SimulIDE_1.0.0-SR1_Lin64/Timer/Timer.c",100,0,2,.Ltext0
   9               		.text
  10               	.Ltext0:
  11               		.stabs	"gcc2_compiled.",60,0,0,0
  12               		.stabs	"int:t(0,1)=r(0,1);-32768;32767;",128,0,0,0
  13               		.stabs	"char:t(0,2)=r(0,2);0;127;",128,0,0,0
  14               		.stabs	"long int:t(0,3)=@s32;r(0,3);020000000000;017777777777;",128,0,0,0
  15               		.stabs	"unsigned int:t(0,4)=r(0,4);0;0177777;",128,0,0,0
  16               		.stabs	"long unsigned int:t(0,5)=@s32;r(0,5);0;037777777777;",128,0,0,0
  17               		.stabs	"__int128:t(0,6)=@s128;r(0,6);02000000000000000000000000000000000000000000;0177777777777777
  18               		.stabs	"__int128 unsigned:t(0,7)=@s128;r(0,7);0;03777777777777777777777777777777777777777777;",128
  19               		.stabs	"long long int:t(0,8)=@s64;r(0,8);01000000000000000000000;00777777777777777777777;",128,0,0
  20               		.stabs	"long long unsigned int:t(0,9)=@s64;r(0,9);0;01777777777777777777777;",128,0,0,0
  21               		.stabs	"short int:t(0,10)=r(0,10);-32768;32767;",128,0,0,0
  22               		.stabs	"short unsigned int:t(0,11)=r(0,11);0;0177777;",128,0,0,0
  23               		.stabs	"signed char:t(0,12)=@s8;r(0,12);-128;127;",128,0,0,0
  24               		.stabs	"unsigned char:t(0,13)=@s8;r(0,13);0;255;",128,0,0,0
  25               		.stabs	"float:t(0,14)=r(0,1);4;0;",128,0,0,0
  26               		.stabs	"double:t(0,15)=r(0,1);4;0;",128,0,0,0
  27               		.stabs	"long double:t(0,16)=r(0,1);4;0;",128,0,0,0
  28               		.stabs	"short _Fract:t(0,17)=r(0,1);1;0;",128,0,0,0
  29               		.stabs	"_Fract:t(0,18)=r(0,1);2;0;",128,0,0,0
  30               		.stabs	"long _Fract:t(0,19)=r(0,1);4;0;",128,0,0,0
  31               		.stabs	"long long _Fract:t(0,20)=r(0,1);8;0;",128,0,0,0
  32               		.stabs	"unsigned short _Fract:t(0,21)=r(0,1);1;0;",128,0,0,0
  33               		.stabs	"unsigned _Fract:t(0,22)=r(0,1);2;0;",128,0,0,0
  34               		.stabs	"unsigned long _Fract:t(0,23)=r(0,1);4;0;",128,0,0,0
  35               		.stabs	"unsigned long long _Fract:t(0,24)=r(0,1);8;0;",128,0,0,0
  36               		.stabs	"_Sat short _Fract:t(0,25)=r(0,1);1;0;",128,0,0,0
  37               		.stabs	"_Sat _Fract:t(0,26)=r(0,1);2;0;",128,0,0,0
  38               		.stabs	"_Sat long _Fract:t(0,27)=r(0,1);4;0;",128,0,0,0
  39               		.stabs	"_Sat long long _Fract:t(0,28)=r(0,1);8;0;",128,0,0,0
  40               		.stabs	"_Sat unsigned short _Fract:t(0,29)=r(0,1);1;0;",128,0,0,0
  41               		.stabs	"_Sat unsigned _Fract:t(0,30)=r(0,1);2;0;",128,0,0,0
  42               		.stabs	"_Sat unsigned long _Fract:t(0,31)=r(0,1);4;0;",128,0,0,0
  43               		.stabs	"_Sat unsigned long long _Fract:t(0,32)=r(0,1);8;0;",128,0,0,0
  44               		.stabs	"short _Accum:t(0,33)=r(0,1);2;0;",128,0,0,0
  45               		.stabs	"_Accum:t(0,34)=r(0,1);4;0;",128,0,0,0
  46               		.stabs	"long _Accum:t(0,35)=r(0,1);8;0;",128,0,0,0
  47               		.stabs	"long long _Accum:t(0,36)=r(0,1);8;0;",128,0,0,0
  48               		.stabs	"unsigned short _Accum:t(0,37)=r(0,1);2;0;",128,0,0,0
  49               		.stabs	"unsigned _Accum:t(0,38)=r(0,1);4;0;",128,0,0,0
  50               		.stabs	"unsigned long _Accum:t(0,39)=r(0,1);8;0;",128,0,0,0
  51               		.stabs	"unsigned long long _Accum:t(0,40)=r(0,1);8;0;",128,0,0,0
  52               		.stabs	"_Sat short _Accum:t(0,41)=r(0,1);2;0;",128,0,0,0
  53               		.stabs	"_Sat _Accum:t(0,42)=r(0,1);4;0;",128,0,0,0
  54               		.stabs	"_Sat long _Accum:t(0,43)=r(0,1);8;0;",128,0,0,0
  55               		.stabs	"_Sat long long _Accum:t(0,44)=r(0,1);8;0;",128,0,0,0
  56               		.stabs	"_Sat unsigned short _Accum:t(0,45)=r(0,1);2;0;",128,0,0,0
  57               		.stabs	"_Sat unsigned _Accum:t(0,46)=r(0,1);4;0;",128,0,0,0
  58               		.stabs	"_Sat unsigned long _Accum:t(0,47)=r(0,1);8;0;",128,0,0,0
  59               		.stabs	"_Sat unsigned long long _Accum:t(0,48)=r(0,1);8;0;",128,0,0,0
  60               		.stabs	"void:t(0,49)=(0,49)",128,0,0,0
  61               		.stabs	"/usr/lib/avr/include/avr/io.h",130,0,0,0
  62               		.stabs	"/usr/lib/avr/include/avr/sfr_defs.h",130,0,0,0
  63               		.stabs	"/usr/lib/avr/include/inttypes.h",130,0,0,0
  64               		.stabs	"/usr/lib/gcc/avr/5.4.0/include/stdint.h",130,0,0,0
  65               		.stabs	"/usr/lib/avr/include/stdint.h",130,0,0,0
  66               		.stabs	"int8_t:t(5,1)=(0,12)",128,0,125,0
  67               		.stabs	"uint8_t:t(5,2)=(0,13)",128,0,126,0
  68               		.stabs	"int16_t:t(5,3)=(0,1)",128,0,127,0
  69               		.stabs	"uint16_t:t(5,4)=(0,4)",128,0,128,0
  70               		.stabs	"int32_t:t(5,5)=(0,3)",128,0,129,0
  71               		.stabs	"uint32_t:t(5,6)=(0,5)",128,0,130,0
  72               		.stabs	"int64_t:t(5,7)=(0,8)",128,0,132,0
  73               		.stabs	"uint64_t:t(5,8)=(0,9)",128,0,133,0
  74               		.stabs	"intptr_t:t(5,9)=(5,3)",128,0,146,0
  75               		.stabs	"uintptr_t:t(5,10)=(5,4)",128,0,151,0
  76               		.stabs	"int_least8_t:t(5,11)=(5,1)",128,0,163,0
  77               		.stabs	"uint_least8_t:t(5,12)=(5,2)",128,0,168,0
  78               		.stabs	"int_least16_t:t(5,13)=(5,3)",128,0,173,0
  79               		.stabs	"uint_least16_t:t(5,14)=(5,4)",128,0,178,0
  80               		.stabs	"int_least32_t:t(5,15)=(5,5)",128,0,183,0
  81               		.stabs	"uint_least32_t:t(5,16)=(5,6)",128,0,188,0
  82               		.stabs	"int_least64_t:t(5,17)=(5,7)",128,0,196,0
  83               		.stabs	"uint_least64_t:t(5,18)=(5,8)",128,0,203,0
  84               		.stabs	"int_fast8_t:t(5,19)=(5,1)",128,0,217,0
  85               		.stabs	"uint_fast8_t:t(5,20)=(5,2)",128,0,222,0
  86               		.stabs	"int_fast16_t:t(5,21)=(5,3)",128,0,227,0
  87               		.stabs	"uint_fast16_t:t(5,22)=(5,4)",128,0,232,0
  88               		.stabs	"int_fast32_t:t(5,23)=(5,5)",128,0,237,0
  89               		.stabs	"uint_fast32_t:t(5,24)=(5,6)",128,0,242,0
  90               		.stabs	"int_fast64_t:t(5,25)=(5,7)",128,0,250,0
  91               		.stabs	"uint_fast64_t:t(5,26)=(5,8)",128,0,257,0
  92               		.stabs	"intmax_t:t(5,27)=(5,7)",128,0,277,0
  93               		.stabs	"uintmax_t:t(5,28)=(5,8)",128,0,282,0
  94               		.stabn	162,0,0,0
  95               		.stabn	162,0,0,0
  96               		.stabs	"int_farptr_t:t(3,1)=(5,5)",128,0,77,0
  97               		.stabs	"uint_farptr_t:t(3,2)=(5,6)",128,0,81,0
  98               		.stabn	162,0,0,0
  99               		.stabn	162,0,0,0
 100               		.stabs	"/usr/lib/avr/include/avr/fuse.h",130,0,0,0
 101               		.stabs	"__fuse_t:t(6,1)=(6,2)=s3low:(0,13),0,8;high:(0,13),8,8;extended:(0,13),16,8;;",128,0,244,0
 102               		.stabn	162,0,0,0
 103               		.stabn	162,0,0,0
 104               		.stabs	"CursorPoint:T(0,50)=s2x:(0,1),0,16;;",128,0,0,0
 105               		.stabs	"TIME_SETTING:F(0,49)",36,0,132,TIME_SETTING
 106               		.stabs	"m:P(0,13)",64,0,132,24
 107               		.stabs	"s:P(0,13)",64,0,132,22
 108               	.global	TIME_SETTING
 109               		.type	TIME_SETTING, @function
 110               	TIME_SETTING:
 111               		.stabd	46,0,0
   1:/home/student/avr_src/SimulIDE_1.0.0-SR1_Lin64/Timer/Timer.c **** #ifndef F_CPU
   2:/home/student/avr_src/SimulIDE_1.0.0-SR1_Lin64/Timer/Timer.c **** #define F_CPU 16000000UL // or whatever may be your frequency
   3:/home/student/avr_src/SimulIDE_1.0.0-SR1_Lin64/Timer/Timer.c **** #endif
   4:/home/student/avr_src/SimulIDE_1.0.0-SR1_Lin64/Timer/Timer.c **** //====================================================
   5:/home/student/avr_src/SimulIDE_1.0.0-SR1_Lin64/Timer/Timer.c **** #include <avr/io.h>
   6:/home/student/avr_src/SimulIDE_1.0.0-SR1_Lin64/Timer/Timer.c **** #include <util/delay.h>
   7:/home/student/avr_src/SimulIDE_1.0.0-SR1_Lin64/Timer/Timer.c **** #include <avr/interrupt.h>
   8:/home/student/avr_src/SimulIDE_1.0.0-SR1_Lin64/Timer/Timer.c **** //====================================================
   9:/home/student/avr_src/SimulIDE_1.0.0-SR1_Lin64/Timer/Timer.c **** #define AT24CxxPORT PORTB
  10:/home/student/avr_src/SimulIDE_1.0.0-SR1_Lin64/Timer/Timer.c **** #define AT24CxxDDR DDRB
  11:/home/student/avr_src/SimulIDE_1.0.0-SR1_Lin64/Timer/Timer.c **** #define AT24CxxPIN PINB
  12:/home/student/avr_src/SimulIDE_1.0.0-SR1_Lin64/Timer/Timer.c **** #define AT24Cxx_SCL 0b00100000
  13:/home/student/avr_src/SimulIDE_1.0.0-SR1_Lin64/Timer/Timer.c **** #define AT24Cxx_SDA 0b00010000
  14:/home/student/avr_src/SimulIDE_1.0.0-SR1_Lin64/Timer/Timer.c **** #define E_BIT 0x04 //location of E BIT
  15:/home/student/avr_src/SimulIDE_1.0.0-SR1_Lin64/Timer/Timer.c **** #define B_BIT 0x08 //location of bright
  16:/home/student/avr_src/SimulIDE_1.0.0-SR1_Lin64/Timer/Timer.c **** #define I2CLCD_ADDR 0x27
  17:/home/student/avr_src/SimulIDE_1.0.0-SR1_Lin64/Timer/Timer.c **** #define ACK 0x00 // ACK LOW
  18:/home/student/avr_src/SimulIDE_1.0.0-SR1_Lin64/Timer/Timer.c **** #define NACK 0x01 // NACK HIGH
  19:/home/student/avr_src/SimulIDE_1.0.0-SR1_Lin64/Timer/Timer.c **** #define EEP_WRITE_WAIT 10 // write wait time
  20:/home/student/avr_src/SimulIDE_1.0.0-SR1_Lin64/Timer/Timer.c **** #define AT24Cxx_SDA_HIGH() (AT24CxxPORT |= AT24Cxx_SDA)
  21:/home/student/avr_src/SimulIDE_1.0.0-SR1_Lin64/Timer/Timer.c **** #define AT24Cxx_SDA_LOW() (AT24CxxPORT &= ~AT24Cxx_SDA)
  22:/home/student/avr_src/SimulIDE_1.0.0-SR1_Lin64/Timer/Timer.c **** #define AT24Cxx_SCL_HIGH() (AT24CxxPORT |= AT24Cxx_SCL)
  23:/home/student/avr_src/SimulIDE_1.0.0-SR1_Lin64/Timer/Timer.c **** #define AT24Cxx_SCL_LOW() (AT24CxxPORT &= ~(AT24Cxx_SCL))
  24:/home/student/avr_src/SimulIDE_1.0.0-SR1_Lin64/Timer/Timer.c **** #define AT24Cxx_SDA_IN() (AT24CxxDDR &= ~AT24Cxx_SDA)
  25:/home/student/avr_src/SimulIDE_1.0.0-SR1_Lin64/Timer/Timer.c **** #define AT24Cxx_SDA_OUT() (AT24CxxDDR |= AT24Cxx_SDA)
  26:/home/student/avr_src/SimulIDE_1.0.0-SR1_Lin64/Timer/Timer.c **** //====================================================
  27:/home/student/avr_src/SimulIDE_1.0.0-SR1_Lin64/Timer/Timer.c **** volatile unsigned char job = 0; //Timer job flag
  28:/home/student/avr_src/SimulIDE_1.0.0-SR1_Lin64/Timer/Timer.c **** volatile unsigned char sel_flag = 0; //Time selector
  29:/home/student/avr_src/SimulIDE_1.0.0-SR1_Lin64/Timer/Timer.c **** volatile unsigned char lcd_flag = 0; //lcd on check flag
  30:/home/student/avr_src/SimulIDE_1.0.0-SR1_Lin64/Timer/Timer.c **** volatile unsigned char end_flag = 0; //timer end flag
  31:/home/student/avr_src/SimulIDE_1.0.0-SR1_Lin64/Timer/Timer.c **** volatile unsigned char addr = 0; 
  32:/home/student/avr_src/SimulIDE_1.0.0-SR1_Lin64/Timer/Timer.c **** volatile unsigned char key_flag = 0; //key check flag
  33:/home/student/avr_src/SimulIDE_1.0.0-SR1_Lin64/Timer/Timer.c **** volatile unsigned char new_key = 0;
  34:/home/student/avr_src/SimulIDE_1.0.0-SR1_Lin64/Timer/Timer.c **** volatile unsigned char key_data = 0;
  35:/home/student/avr_src/SimulIDE_1.0.0-SR1_Lin64/Timer/Timer.c **** volatile unsigned char pressing_flag = 0;
  36:/home/student/avr_src/SimulIDE_1.0.0-SR1_Lin64/Timer/Timer.c **** volatile unsigned char keyNum = 0;
  37:/home/student/avr_src/SimulIDE_1.0.0-SR1_Lin64/Timer/Timer.c **** volatile unsigned char current_key = 0;
  38:/home/student/avr_src/SimulIDE_1.0.0-SR1_Lin64/Timer/Timer.c **** volatile unsigned char old_key;
  39:/home/student/avr_src/SimulIDE_1.0.0-SR1_Lin64/Timer/Timer.c **** volatile unsigned char flag_time = 0;
  40:/home/student/avr_src/SimulIDE_1.0.0-SR1_Lin64/Timer/Timer.c **** volatile unsigned char Wait_time = 0;
  41:/home/student/avr_src/SimulIDE_1.0.0-SR1_Lin64/Timer/Timer.c **** volatile unsigned char timer_start_flag = 0;
  42:/home/student/avr_src/SimulIDE_1.0.0-SR1_Lin64/Timer/Timer.c **** volatile uint16_t time_1s = 0; // 100 : 1s
  43:/home/student/avr_src/SimulIDE_1.0.0-SR1_Lin64/Timer/Timer.c **** volatile uint16_t time_10ms = 0; 
  44:/home/student/avr_src/SimulIDE_1.0.0-SR1_Lin64/Timer/Timer.c **** volatile uint16_t time_tmp = 0;
  45:/home/student/avr_src/SimulIDE_1.0.0-SR1_Lin64/Timer/Timer.c **** volatile unsigned char min = 0;
  46:/home/student/avr_src/SimulIDE_1.0.0-SR1_Lin64/Timer/Timer.c **** volatile unsigned char sec = 0;
  47:/home/student/avr_src/SimulIDE_1.0.0-SR1_Lin64/Timer/Timer.c **** volatile unsigned char test = 1;
  48:/home/student/avr_src/SimulIDE_1.0.0-SR1_Lin64/Timer/Timer.c **** //====================================================
  49:/home/student/avr_src/SimulIDE_1.0.0-SR1_Lin64/Timer/Timer.c **** void Timer0_init();
  50:/home/student/avr_src/SimulIDE_1.0.0-SR1_Lin64/Timer/Timer.c **** void Timer1_init();
  51:/home/student/avr_src/SimulIDE_1.0.0-SR1_Lin64/Timer/Timer.c **** void Port_init();
  52:/home/student/avr_src/SimulIDE_1.0.0-SR1_Lin64/Timer/Timer.c **** void USART_init();
  53:/home/student/avr_src/SimulIDE_1.0.0-SR1_Lin64/Timer/Timer.c **** void setup_watchdog();
  54:/home/student/avr_src/SimulIDE_1.0.0-SR1_Lin64/Timer/Timer.c **** //====================================================
  55:/home/student/avr_src/SimulIDE_1.0.0-SR1_Lin64/Timer/Timer.c **** void Tx_char(unsigned char data);
  56:/home/student/avr_src/SimulIDE_1.0.0-SR1_Lin64/Timer/Timer.c **** unsigned char key_scan(void);
  57:/home/student/avr_src/SimulIDE_1.0.0-SR1_Lin64/Timer/Timer.c **** unsigned char key_analysis(unsigned char key, unsigned char Raw);
  58:/home/student/avr_src/SimulIDE_1.0.0-SR1_Lin64/Timer/Timer.c **** unsigned char read_AT24Cxx_i2c_byte(void);
  59:/home/student/avr_src/SimulIDE_1.0.0-SR1_Lin64/Timer/Timer.c **** unsigned char AT24Cxx_Read(unsigned char address, unsigned char sub_addr1, unsigned char sub_addr2)
  60:/home/student/avr_src/SimulIDE_1.0.0-SR1_Lin64/Timer/Timer.c **** void AT24Cxx_i2c_init(void);
  61:/home/student/avr_src/SimulIDE_1.0.0-SR1_Lin64/Timer/Timer.c **** void AT24Cxx_i2c_start(void);
  62:/home/student/avr_src/SimulIDE_1.0.0-SR1_Lin64/Timer/Timer.c **** void AT24Cxx_ACK_send(unsigned char ack_data);
  63:/home/student/avr_src/SimulIDE_1.0.0-SR1_Lin64/Timer/Timer.c **** void AT24Cxx_i2c_stop(void);
  64:/home/student/avr_src/SimulIDE_1.0.0-SR1_Lin64/Timer/Timer.c **** void write_AT24Cxx_i2c_byte(unsigned char byte);
  65:/home/student/avr_src/SimulIDE_1.0.0-SR1_Lin64/Timer/Timer.c **** void write_AT24Cxx_i2cControl(unsigned char byte);
  66:/home/student/avr_src/SimulIDE_1.0.0-SR1_Lin64/Timer/Timer.c **** void LCD_Write(unsigned char byte);
  67:/home/student/avr_src/SimulIDE_1.0.0-SR1_Lin64/Timer/Timer.c **** void write_AT24Cxx_i2c_LCDAddressing(unsigned char byte);
  68:/home/student/avr_src/SimulIDE_1.0.0-SR1_Lin64/Timer/Timer.c **** void LCD_NEBIT(unsigned char byte);
  69:/home/student/avr_src/SimulIDE_1.0.0-SR1_Lin64/Timer/Timer.c **** void I2C_LCD_init(unsigned char data);
  70:/home/student/avr_src/SimulIDE_1.0.0-SR1_Lin64/Timer/Timer.c **** void LCD_clear(void);
  71:/home/student/avr_src/SimulIDE_1.0.0-SR1_Lin64/Timer/Timer.c **** void LCD_CharWrite(uint16_t byte);
  72:/home/student/avr_src/SimulIDE_1.0.0-SR1_Lin64/Timer/Timer.c **** void I2C_LCD_Reset();
  73:/home/student/avr_src/SimulIDE_1.0.0-SR1_Lin64/Timer/Timer.c **** void I2C_LCD_Erase();
  74:/home/student/avr_src/SimulIDE_1.0.0-SR1_Lin64/Timer/Timer.c **** void I2C_LCD_MoveLeft(unsigned char cnt);
  75:/home/student/avr_src/SimulIDE_1.0.0-SR1_Lin64/Timer/Timer.c **** void I2C_LCD_MoveRight(unsigned char cnt);
  76:/home/student/avr_src/SimulIDE_1.0.0-SR1_Lin64/Timer/Timer.c **** void I2C_LCD_SELECT();
  77:/home/student/avr_src/SimulIDE_1.0.0-SR1_Lin64/Timer/Timer.c **** void I2C_Timer_Default();
  78:/home/student/avr_src/SimulIDE_1.0.0-SR1_Lin64/Timer/Timer.c **** void I2C_Timer_act();
  79:/home/student/avr_src/SimulIDE_1.0.0-SR1_Lin64/Timer/Timer.c **** void I2C_Timer_act_ms();
  80:/home/student/avr_src/SimulIDE_1.0.0-SR1_Lin64/Timer/Timer.c **** void I2C_Timer_test();
  81:/home/student/avr_src/SimulIDE_1.0.0-SR1_Lin64/Timer/Timer.c **** void TIME_SETTING(unsigned char m, unsigned char s);
  82:/home/student/avr_src/SimulIDE_1.0.0-SR1_Lin64/Timer/Timer.c **** uint16_t num2lcdbyte(unsigned char num);
  83:/home/student/avr_src/SimulIDE_1.0.0-SR1_Lin64/Timer/Timer.c **** 
  84:/home/student/avr_src/SimulIDE_1.0.0-SR1_Lin64/Timer/Timer.c **** //====================================================
  85:/home/student/avr_src/SimulIDE_1.0.0-SR1_Lin64/Timer/Timer.c **** struct CursorPoint
  86:/home/student/avr_src/SimulIDE_1.0.0-SR1_Lin64/Timer/Timer.c **** {
  87:/home/student/avr_src/SimulIDE_1.0.0-SR1_Lin64/Timer/Timer.c **** 	int x;
  88:/home/student/avr_src/SimulIDE_1.0.0-SR1_Lin64/Timer/Timer.c **** }CursorPoint;
  89:/home/student/avr_src/SimulIDE_1.0.0-SR1_Lin64/Timer/Timer.c **** 
  90:/home/student/avr_src/SimulIDE_1.0.0-SR1_Lin64/Timer/Timer.c **** //====================================================
  91:/home/student/avr_src/SimulIDE_1.0.0-SR1_Lin64/Timer/Timer.c **** int main(void){
  92:/home/student/avr_src/SimulIDE_1.0.0-SR1_Lin64/Timer/Timer.c **** 	sei(); //must be set first position
  93:/home/student/avr_src/SimulIDE_1.0.0-SR1_Lin64/Timer/Timer.c ****     Port_init();
  94:/home/student/avr_src/SimulIDE_1.0.0-SR1_Lin64/Timer/Timer.c **** 	I2C_LCD_init(0x27);
  95:/home/student/avr_src/SimulIDE_1.0.0-SR1_Lin64/Timer/Timer.c **** 	I2C_LCD_Reset();
  96:/home/student/avr_src/SimulIDE_1.0.0-SR1_Lin64/Timer/Timer.c **** 	I2C_Timer_Default();
  97:/home/student/avr_src/SimulIDE_1.0.0-SR1_Lin64/Timer/Timer.c ****     USART_init();
  98:/home/student/avr_src/SimulIDE_1.0.0-SR1_Lin64/Timer/Timer.c **** 	Timer1_init();
  99:/home/student/avr_src/SimulIDE_1.0.0-SR1_Lin64/Timer/Timer.c **** 	TIME_SETTING(1,2);
 100:/home/student/avr_src/SimulIDE_1.0.0-SR1_Lin64/Timer/Timer.c **** 	while(1){
 101:/home/student/avr_src/SimulIDE_1.0.0-SR1_Lin64/Timer/Timer.c **** 		PORTC ^= 0x01;
 102:/home/student/avr_src/SimulIDE_1.0.0-SR1_Lin64/Timer/Timer.c **** 		if(end_flag) {
 103:/home/student/avr_src/SimulIDE_1.0.0-SR1_Lin64/Timer/Timer.c **** 			end_flag = 0;
 104:/home/student/avr_src/SimulIDE_1.0.0-SR1_Lin64/Timer/Timer.c **** 			timer_start_flag = 0;
 105:/home/student/avr_src/SimulIDE_1.0.0-SR1_Lin64/Timer/Timer.c **** 			TIME_SETTING(1,2);
 106:/home/student/avr_src/SimulIDE_1.0.0-SR1_Lin64/Timer/Timer.c **** 			I2C_Timer_Default();
 107:/home/student/avr_src/SimulIDE_1.0.0-SR1_Lin64/Timer/Timer.c **** 			job = 0;
 108:/home/student/avr_src/SimulIDE_1.0.0-SR1_Lin64/Timer/Timer.c **** 		}
 109:/home/student/avr_src/SimulIDE_1.0.0-SR1_Lin64/Timer/Timer.c **** 		switch (job) //can append command and set timer here
 110:/home/student/avr_src/SimulIDE_1.0.0-SR1_Lin64/Timer/Timer.c **** 		{
 111:/home/student/avr_src/SimulIDE_1.0.0-SR1_Lin64/Timer/Timer.c **** 		case 0:
 112:/home/student/avr_src/SimulIDE_1.0.0-SR1_Lin64/Timer/Timer.c **** 			if(timer_start_flag) {
 113:/home/student/avr_src/SimulIDE_1.0.0-SR1_Lin64/Timer/Timer.c **** 				time_1s = 100;
 114:/home/student/avr_src/SimulIDE_1.0.0-SR1_Lin64/Timer/Timer.c **** 				job++;
 115:/home/student/avr_src/SimulIDE_1.0.0-SR1_Lin64/Timer/Timer.c **** 			}
 116:/home/student/avr_src/SimulIDE_1.0.0-SR1_Lin64/Timer/Timer.c **** 			break;
 117:/home/student/avr_src/SimulIDE_1.0.0-SR1_Lin64/Timer/Timer.c **** 		case 1:
 118:/home/student/avr_src/SimulIDE_1.0.0-SR1_Lin64/Timer/Timer.c **** 			if(time_1s) break;
 119:/home/student/avr_src/SimulIDE_1.0.0-SR1_Lin64/Timer/Timer.c **** 			else job++;
 120:/home/student/avr_src/SimulIDE_1.0.0-SR1_Lin64/Timer/Timer.c **** 		case 2:
 121:/home/student/avr_src/SimulIDE_1.0.0-SR1_Lin64/Timer/Timer.c **** 			I2C_Timer_act();
 122:/home/student/avr_src/SimulIDE_1.0.0-SR1_Lin64/Timer/Timer.c **** 			job++;
 123:/home/student/avr_src/SimulIDE_1.0.0-SR1_Lin64/Timer/Timer.c **** 		case 3:
 124:/home/student/avr_src/SimulIDE_1.0.0-SR1_Lin64/Timer/Timer.c **** 			if(end_flag) job++;
 125:/home/student/avr_src/SimulIDE_1.0.0-SR1_Lin64/Timer/Timer.c **** 			else job = 0;
 126:/home/student/avr_src/SimulIDE_1.0.0-SR1_Lin64/Timer/Timer.c **** 		default:
 127:/home/student/avr_src/SimulIDE_1.0.0-SR1_Lin64/Timer/Timer.c **** 			break;
 128:/home/student/avr_src/SimulIDE_1.0.0-SR1_Lin64/Timer/Timer.c **** 		}
 129:/home/student/avr_src/SimulIDE_1.0.0-SR1_Lin64/Timer/Timer.c **** 	}
 130:/home/student/avr_src/SimulIDE_1.0.0-SR1_Lin64/Timer/Timer.c **** }
 131:/home/student/avr_src/SimulIDE_1.0.0-SR1_Lin64/Timer/Timer.c **** //===================================================
 132:/home/student/avr_src/SimulIDE_1.0.0-SR1_Lin64/Timer/Timer.c **** void TIME_SETTING(unsigned char m, unsigned char s){
 112               		.stabn	68,0,132,.LM0-.LFBB1
 113               	.LM0:
 114               	.LFBB1:
 115               	/* prologue: function */
 116               	/* frame size = 0 */
 117               	/* stack size = 0 */
 118               	.L__stack_usage = 0
 133:/home/student/avr_src/SimulIDE_1.0.0-SR1_Lin64/Timer/Timer.c **** 	min = m;
 119               		.stabn	68,0,133,.LM1-.LFBB1
 120               	.LM1:
 121 0000 8093 0000 		sts min,r24
 134:/home/student/avr_src/SimulIDE_1.0.0-SR1_Lin64/Timer/Timer.c **** 	sec = s;
 122               		.stabn	68,0,134,.LM2-.LFBB1
 123               	.LM2:
 124 0004 6093 0000 		sts sec,r22
 125 0008 0895      		ret
 126               		.size	TIME_SETTING, .-TIME_SETTING
 127               	.Lscope1:
 128               		.stabs	"",36,0,0,.Lscope1-.LFBB1
 129               		.stabd	78,0,0
 130               		.stabs	"Timer1_init:F(0,49)",36,0,137,Timer1_init
 131               	.global	Timer1_init
 132               		.type	Timer1_init, @function
 133               	Timer1_init:
 134               		.stabd	46,0,0
 135:/home/student/avr_src/SimulIDE_1.0.0-SR1_Lin64/Timer/Timer.c **** }
 136:/home/student/avr_src/SimulIDE_1.0.0-SR1_Lin64/Timer/Timer.c **** //===================================================
 137:/home/student/avr_src/SimulIDE_1.0.0-SR1_Lin64/Timer/Timer.c **** void Timer1_init(){
 135               		.stabn	68,0,137,.LM3-.LFBB2
 136               	.LM3:
 137               	.LFBB2:
 138               	/* prologue: function */
 139               	/* frame size = 0 */
 140               	/* stack size = 0 */
 141               	.L__stack_usage = 0
 138:/home/student/avr_src/SimulIDE_1.0.0-SR1_Lin64/Timer/Timer.c **** 
 139:/home/student/avr_src/SimulIDE_1.0.0-SR1_Lin64/Timer/Timer.c ****     TCCR1B =  (1 << WGM12) | (0 << CS12) | (1 << CS11) | (1 << CS10);
 142               		.stabn	68,0,139,.LM4-.LFBB2
 143               	.LM4:
 144 000a 8BE0      		ldi r24,lo8(11)
 145 000c 8093 8100 		sts 129,r24
 140:/home/student/avr_src/SimulIDE_1.0.0-SR1_Lin64/Timer/Timer.c **** 	TCNT1 = 0;
 146               		.stabn	68,0,140,.LM5-.LFBB2
 147               	.LM5:
 148 0010 1092 8500 		sts 132+1,__zero_reg__
 149 0014 1092 8400 		sts 132,__zero_reg__
 141:/home/student/avr_src/SimulIDE_1.0.0-SR1_Lin64/Timer/Timer.c ****     OCR1A = 0x09c4; 
 150               		.stabn	68,0,141,.LM6-.LFBB2
 151               	.LM6:
 152 0018 84EC      		ldi r24,lo8(-60)
 153 001a 99E0      		ldi r25,lo8(9)
 154 001c 9093 8900 		sts 136+1,r25
 155 0020 8093 8800 		sts 136,r24
 142:/home/student/avr_src/SimulIDE_1.0.0-SR1_Lin64/Timer/Timer.c ****     TIMSK1 |= (1 << TOIE1) | (1 << OCIE1A);
 156               		.stabn	68,0,142,.LM7-.LFBB2
 157               	.LM7:
 158 0024 EFE6      		ldi r30,lo8(111)
 159 0026 F0E0      		ldi r31,0
 160 0028 8081      		ld r24,Z
 161 002a 8360      		ori r24,lo8(3)
 162 002c 8083      		st Z,r24
 163 002e 0895      		ret
 164               		.size	Timer1_init, .-Timer1_init
 165               	.Lscope2:
 166               		.stabs	"",36,0,0,.Lscope2-.LFBB2
 167               		.stabd	78,0,0
 168               		.stabs	"Port_init:F(0,49)",36,0,145,Port_init
 169               	.global	Port_init
 170               		.type	Port_init, @function
 171               	Port_init:
 172               		.stabd	46,0,0
 143:/home/student/avr_src/SimulIDE_1.0.0-SR1_Lin64/Timer/Timer.c **** }
 144:/home/student/avr_src/SimulIDE_1.0.0-SR1_Lin64/Timer/Timer.c **** 
 145:/home/student/avr_src/SimulIDE_1.0.0-SR1_Lin64/Timer/Timer.c **** void Port_init(){
 173               		.stabn	68,0,145,.LM8-.LFBB3
 174               	.LM8:
 175               	.LFBB3:
 176               	/* prologue: function */
 177               	/* frame size = 0 */
 178               	/* stack size = 0 */
 179               	.L__stack_usage = 0
 146:/home/student/avr_src/SimulIDE_1.0.0-SR1_Lin64/Timer/Timer.c ****     //set B0~D4 as input,  D5, D6, D7 pins are set high to find key vals 
 147:/home/student/avr_src/SimulIDE_1.0.0-SR1_Lin64/Timer/Timer.c ****     DDRD = 0b01110000;
 180               		.stabn	68,0,147,.LM9-.LFBB3
 181               	.LM9:
 182 0030 80E7      		ldi r24,lo8(112)
 183 0032 8AB9      		out 0xa,r24
 148:/home/student/avr_src/SimulIDE_1.0.0-SR1_Lin64/Timer/Timer.c ****     PORTD = 0b00000000;
 184               		.stabn	68,0,148,.LM10-.LFBB3
 185               	.LM10:
 186 0034 1BB8      		out 0xb,__zero_reg__
 149:/home/student/avr_src/SimulIDE_1.0.0-SR1_Lin64/Timer/Timer.c ****     DDRB = 0b00110000;
 187               		.stabn	68,0,149,.LM11-.LFBB3
 188               	.LM11:
 189 0036 80E3      		ldi r24,lo8(48)
 190 0038 84B9      		out 0x4,r24
 191 003a 0895      		ret
 192               		.size	Port_init, .-Port_init
 193               	.Lscope3:
 194               		.stabs	"",36,0,0,.Lscope3-.LFBB3
 195               		.stabd	78,0,0
 196               		.stabs	"USART_init:F(0,49)",36,0,458,USART_init
 197               	.global	USART_init
 198               		.type	USART_init, @function
 199               	USART_init:
 200               		.stabd	46,0,0
 150:/home/student/avr_src/SimulIDE_1.0.0-SR1_Lin64/Timer/Timer.c **** 
 151:/home/student/avr_src/SimulIDE_1.0.0-SR1_Lin64/Timer/Timer.c **** 
 152:/home/student/avr_src/SimulIDE_1.0.0-SR1_Lin64/Timer/Timer.c **** }
 153:/home/student/avr_src/SimulIDE_1.0.0-SR1_Lin64/Timer/Timer.c **** //====================================================
 154:/home/student/avr_src/SimulIDE_1.0.0-SR1_Lin64/Timer/Timer.c **** void I2C_LCD_Erase(){
 155:/home/student/avr_src/SimulIDE_1.0.0-SR1_Lin64/Timer/Timer.c **** 	LCD_CharWrite(0x0040);
 156:/home/student/avr_src/SimulIDE_1.0.0-SR1_Lin64/Timer/Timer.c **** 	LCD_CharWrite(0xA101);
 157:/home/student/avr_src/SimulIDE_1.0.0-SR1_Lin64/Timer/Timer.c ****     LCD_CharWrite(0x0040);
 158:/home/student/avr_src/SimulIDE_1.0.0-SR1_Lin64/Timer/Timer.c ****     LCD_CharWrite(0xA101);
 159:/home/student/avr_src/SimulIDE_1.0.0-SR1_Lin64/Timer/Timer.c ****     LCD_CharWrite(0x0060);
 160:/home/student/avr_src/SimulIDE_1.0.0-SR1_Lin64/Timer/Timer.c **** }
 161:/home/student/avr_src/SimulIDE_1.0.0-SR1_Lin64/Timer/Timer.c **** 
 162:/home/student/avr_src/SimulIDE_1.0.0-SR1_Lin64/Timer/Timer.c **** void I2C_LCD_Reset(){
 163:/home/student/avr_src/SimulIDE_1.0.0-SR1_Lin64/Timer/Timer.c **** 	cli();
 164:/home/student/avr_src/SimulIDE_1.0.0-SR1_Lin64/Timer/Timer.c ****     LCD_CharWrite(0x0010);
 165:/home/student/avr_src/SimulIDE_1.0.0-SR1_Lin64/Timer/Timer.c **** 	_delay_us(38);
 166:/home/student/avr_src/SimulIDE_1.0.0-SR1_Lin64/Timer/Timer.c **** 	LCD_CharWrite(0x0010);
 167:/home/student/avr_src/SimulIDE_1.0.0-SR1_Lin64/Timer/Timer.c **** 	_delay_us(38);
 168:/home/student/avr_src/SimulIDE_1.0.0-SR1_Lin64/Timer/Timer.c **** 	LCD_CharWrite(0x0030);
 169:/home/student/avr_src/SimulIDE_1.0.0-SR1_Lin64/Timer/Timer.c **** 	_delay_us(38);
 170:/home/student/avr_src/SimulIDE_1.0.0-SR1_Lin64/Timer/Timer.c **** 
 171:/home/student/avr_src/SimulIDE_1.0.0-SR1_Lin64/Timer/Timer.c **** 	I2C_LCD_init(0x27);
 172:/home/student/avr_src/SimulIDE_1.0.0-SR1_Lin64/Timer/Timer.c **** 	_delay_us(38);
 173:/home/student/avr_src/SimulIDE_1.0.0-SR1_Lin64/Timer/Timer.c **** 
 174:/home/student/avr_src/SimulIDE_1.0.0-SR1_Lin64/Timer/Timer.c **** 	LCD_CharWrite(0x0010);
 175:/home/student/avr_src/SimulIDE_1.0.0-SR1_Lin64/Timer/Timer.c **** 	_delay_us(38);
 176:/home/student/avr_src/SimulIDE_1.0.0-SR1_Lin64/Timer/Timer.c **** 	LCD_CharWrite(0x0030);
 177:/home/student/avr_src/SimulIDE_1.0.0-SR1_Lin64/Timer/Timer.c **** 
 178:/home/student/avr_src/SimulIDE_1.0.0-SR1_Lin64/Timer/Timer.c **** 	_delay_us(38);
 179:/home/student/avr_src/SimulIDE_1.0.0-SR1_Lin64/Timer/Timer.c **** 
 180:/home/student/avr_src/SimulIDE_1.0.0-SR1_Lin64/Timer/Timer.c **** 	I2C_LCD_init(0x27);
 181:/home/student/avr_src/SimulIDE_1.0.0-SR1_Lin64/Timer/Timer.c **** 	_delay_us(38);
 182:/home/student/avr_src/SimulIDE_1.0.0-SR1_Lin64/Timer/Timer.c **** 	I2C_LCD_init(0x27);
 183:/home/student/avr_src/SimulIDE_1.0.0-SR1_Lin64/Timer/Timer.c **** 	LCD_CharWrite(0x20C0);
 184:/home/student/avr_src/SimulIDE_1.0.0-SR1_Lin64/Timer/Timer.c **** 	LCD_CharWrite(0x0020);
 185:/home/student/avr_src/SimulIDE_1.0.0-SR1_Lin64/Timer/Timer.c **** 	I2C_LCD_init(0x27);
 186:/home/student/avr_src/SimulIDE_1.0.0-SR1_Lin64/Timer/Timer.c ****     
 187:/home/student/avr_src/SimulIDE_1.0.0-SR1_Lin64/Timer/Timer.c **** 	sei();
 188:/home/student/avr_src/SimulIDE_1.0.0-SR1_Lin64/Timer/Timer.c ****     LCD_CharWrite(0x00C0);
 189:/home/student/avr_src/SimulIDE_1.0.0-SR1_Lin64/Timer/Timer.c **** }
 190:/home/student/avr_src/SimulIDE_1.0.0-SR1_Lin64/Timer/Timer.c **** void I2C_LCD_init(unsigned char address){
 191:/home/student/avr_src/SimulIDE_1.0.0-SR1_Lin64/Timer/Timer.c **** 	cli();
 192:/home/student/avr_src/SimulIDE_1.0.0-SR1_Lin64/Timer/Timer.c **** 
 193:/home/student/avr_src/SimulIDE_1.0.0-SR1_Lin64/Timer/Timer.c **** 	_delay_ms(18);
 194:/home/student/avr_src/SimulIDE_1.0.0-SR1_Lin64/Timer/Timer.c **** 	AT24Cxx_i2c_start();
 195:/home/student/avr_src/SimulIDE_1.0.0-SR1_Lin64/Timer/Timer.c **** 	write_AT24Cxx_i2c_LCDAddressing(address  << 1); //write mode
 196:/home/student/avr_src/SimulIDE_1.0.0-SR1_Lin64/Timer/Timer.c **** 	LCD_Write(0x20);
 197:/home/student/avr_src/SimulIDE_1.0.0-SR1_Lin64/Timer/Timer.c **** 
 198:/home/student/avr_src/SimulIDE_1.0.0-SR1_Lin64/Timer/Timer.c **** 
 199:/home/student/avr_src/SimulIDE_1.0.0-SR1_Lin64/Timer/Timer.c **** 	_delay_ms(2);
 200:/home/student/avr_src/SimulIDE_1.0.0-SR1_Lin64/Timer/Timer.c **** 	write_AT24Cxx_i2c_LCDAddressing(0x20);
 201:/home/student/avr_src/SimulIDE_1.0.0-SR1_Lin64/Timer/Timer.c **** 	_delay_ms(2);
 202:/home/student/avr_src/SimulIDE_1.0.0-SR1_Lin64/Timer/Timer.c **** 
 203:/home/student/avr_src/SimulIDE_1.0.0-SR1_Lin64/Timer/Timer.c **** 	write_AT24Cxx_i2c_LCDAddressing(0x30);
 204:/home/student/avr_src/SimulIDE_1.0.0-SR1_Lin64/Timer/Timer.c **** 	LCD_Write(0x00);
 205:/home/student/avr_src/SimulIDE_1.0.0-SR1_Lin64/Timer/Timer.c **** 	_delay_us(38);
 206:/home/student/avr_src/SimulIDE_1.0.0-SR1_Lin64/Timer/Timer.c **** 
 207:/home/student/avr_src/SimulIDE_1.0.0-SR1_Lin64/Timer/Timer.c **** 	LCD_Write(0x00);
 208:/home/student/avr_src/SimulIDE_1.0.0-SR1_Lin64/Timer/Timer.c **** 	write_AT24Cxx_i2c_LCDAddressing(0x00);
 209:/home/student/avr_src/SimulIDE_1.0.0-SR1_Lin64/Timer/Timer.c ****     _delay_us(38);
 210:/home/student/avr_src/SimulIDE_1.0.0-SR1_Lin64/Timer/Timer.c **** 
 211:/home/student/avr_src/SimulIDE_1.0.0-SR1_Lin64/Timer/Timer.c **** 	LCD_Write(0xE0);
 212:/home/student/avr_src/SimulIDE_1.0.0-SR1_Lin64/Timer/Timer.c **** 	write_AT24Cxx_i2c_LCDAddressing(0xE0);
 213:/home/student/avr_src/SimulIDE_1.0.0-SR1_Lin64/Timer/Timer.c **** 	_delay_us(38);
 214:/home/student/avr_src/SimulIDE_1.0.0-SR1_Lin64/Timer/Timer.c **** 
 215:/home/student/avr_src/SimulIDE_1.0.0-SR1_Lin64/Timer/Timer.c **** 	LCD_Write(0x00);
 216:/home/student/avr_src/SimulIDE_1.0.0-SR1_Lin64/Timer/Timer.c **** 	write_AT24Cxx_i2c_LCDAddressing(0x00);
 217:/home/student/avr_src/SimulIDE_1.0.0-SR1_Lin64/Timer/Timer.c **** 	_delay_us(38);
 218:/home/student/avr_src/SimulIDE_1.0.0-SR1_Lin64/Timer/Timer.c **** 
 219:/home/student/avr_src/SimulIDE_1.0.0-SR1_Lin64/Timer/Timer.c **** 	LCD_Write(0x60);
 220:/home/student/avr_src/SimulIDE_1.0.0-SR1_Lin64/Timer/Timer.c **** 	write_AT24Cxx_i2c_LCDAddressing(0x60);
 221:/home/student/avr_src/SimulIDE_1.0.0-SR1_Lin64/Timer/Timer.c **** 	_delay_us(38);
 222:/home/student/avr_src/SimulIDE_1.0.0-SR1_Lin64/Timer/Timer.c **** 
 223:/home/student/avr_src/SimulIDE_1.0.0-SR1_Lin64/Timer/Timer.c **** 	AT24Cxx_i2c_stop();
 224:/home/student/avr_src/SimulIDE_1.0.0-SR1_Lin64/Timer/Timer.c ****     _delay_us(40);
 225:/home/student/avr_src/SimulIDE_1.0.0-SR1_Lin64/Timer/Timer.c **** 	sei();
 226:/home/student/avr_src/SimulIDE_1.0.0-SR1_Lin64/Timer/Timer.c **** 	
 227:/home/student/avr_src/SimulIDE_1.0.0-SR1_Lin64/Timer/Timer.c **** }
 228:/home/student/avr_src/SimulIDE_1.0.0-SR1_Lin64/Timer/Timer.c **** //====================================================
 229:/home/student/avr_src/SimulIDE_1.0.0-SR1_Lin64/Timer/Timer.c **** void I2C_Timer_Default(){
 230:/home/student/avr_src/SimulIDE_1.0.0-SR1_Lin64/Timer/Timer.c **** 	I2C_LCD_Reset();
 231:/home/student/avr_src/SimulIDE_1.0.0-SR1_Lin64/Timer/Timer.c ****     LCD_CharWrite(0x2101);
 232:/home/student/avr_src/SimulIDE_1.0.0-SR1_Lin64/Timer/Timer.c ****     LCD_CharWrite(0x2101);
 233:/home/student/avr_src/SimulIDE_1.0.0-SR1_Lin64/Timer/Timer.c ****     LCD_CharWrite(0x2101);
 234:/home/student/avr_src/SimulIDE_1.0.0-SR1_Lin64/Timer/Timer.c ****     LCD_CharWrite(0x2101);
 235:/home/student/avr_src/SimulIDE_1.0.0-SR1_Lin64/Timer/Timer.c ****     LCD_CharWrite(num2lcdbyte(0));
 236:/home/student/avr_src/SimulIDE_1.0.0-SR1_Lin64/Timer/Timer.c ****     LCD_CharWrite(num2lcdbyte(0));
 237:/home/student/avr_src/SimulIDE_1.0.0-SR1_Lin64/Timer/Timer.c **** 	LCD_CharWrite(0x31A1);
 238:/home/student/avr_src/SimulIDE_1.0.0-SR1_Lin64/Timer/Timer.c ****     LCD_CharWrite(num2lcdbyte(0));
 239:/home/student/avr_src/SimulIDE_1.0.0-SR1_Lin64/Timer/Timer.c ****     LCD_CharWrite(num2lcdbyte(0));
 240:/home/student/avr_src/SimulIDE_1.0.0-SR1_Lin64/Timer/Timer.c ****     LCD_CharWrite(0x31A1);
 241:/home/student/avr_src/SimulIDE_1.0.0-SR1_Lin64/Timer/Timer.c ****     LCD_CharWrite(num2lcdbyte(0));
 242:/home/student/avr_src/SimulIDE_1.0.0-SR1_Lin64/Timer/Timer.c ****     LCD_CharWrite(num2lcdbyte(0));
 243:/home/student/avr_src/SimulIDE_1.0.0-SR1_Lin64/Timer/Timer.c **** 	LCD_CharWrite(0x00C0);
 244:/home/student/avr_src/SimulIDE_1.0.0-SR1_Lin64/Timer/Timer.c **** 	I2C_LCD_MoveLeft(4);
 245:/home/student/avr_src/SimulIDE_1.0.0-SR1_Lin64/Timer/Timer.c **** 
 246:/home/student/avr_src/SimulIDE_1.0.0-SR1_Lin64/Timer/Timer.c **** }
 247:/home/student/avr_src/SimulIDE_1.0.0-SR1_Lin64/Timer/Timer.c **** 
 248:/home/student/avr_src/SimulIDE_1.0.0-SR1_Lin64/Timer/Timer.c **** void I2C_Timer_act(){
 249:/home/student/avr_src/SimulIDE_1.0.0-SR1_Lin64/Timer/Timer.c **** 		/*------- Minutes Part start -------*/
 250:/home/student/avr_src/SimulIDE_1.0.0-SR1_Lin64/Timer/Timer.c **** 		if(min >= 1){
 251:/home/student/avr_src/SimulIDE_1.0.0-SR1_Lin64/Timer/Timer.c **** 			I2C_LCD_MoveLeft(3);
 252:/home/student/avr_src/SimulIDE_1.0.0-SR1_Lin64/Timer/Timer.c **** 			LCD_CharWrite(num2lcdbyte(min));
 253:/home/student/avr_src/SimulIDE_1.0.0-SR1_Lin64/Timer/Timer.c **** 			I2C_LCD_MoveRight(2);
 254:/home/student/avr_src/SimulIDE_1.0.0-SR1_Lin64/Timer/Timer.c **** 			LCD_CharWrite(0x00C0);
 255:/home/student/avr_src/SimulIDE_1.0.0-SR1_Lin64/Timer/Timer.c **** 			LCD_CharWrite(0x00C0);
 256:/home/student/avr_src/SimulIDE_1.0.0-SR1_Lin64/Timer/Timer.c **** 		}
 257:/home/student/avr_src/SimulIDE_1.0.0-SR1_Lin64/Timer/Timer.c **** 		/*-------- Minutes part end --------*/
 258:/home/student/avr_src/SimulIDE_1.0.0-SR1_Lin64/Timer/Timer.c **** 
 259:/home/student/avr_src/SimulIDE_1.0.0-SR1_Lin64/Timer/Timer.c **** 		/*-------- Second part start -------*/
 260:/home/student/avr_src/SimulIDE_1.0.0-SR1_Lin64/Timer/Timer.c **** 		if(sec == 1){
 261:/home/student/avr_src/SimulIDE_1.0.0-SR1_Lin64/Timer/Timer.c **** 			if(min){
 262:/home/student/avr_src/SimulIDE_1.0.0-SR1_Lin64/Timer/Timer.c **** 				if (min == 1){
 263:/home/student/avr_src/SimulIDE_1.0.0-SR1_Lin64/Timer/Timer.c **** 					I2C_LCD_MoveLeft(3);
 264:/home/student/avr_src/SimulIDE_1.0.0-SR1_Lin64/Timer/Timer.c **** 					LCD_CharWrite(num2lcdbyte(0));
 265:/home/student/avr_src/SimulIDE_1.0.0-SR1_Lin64/Timer/Timer.c **** 					I2C_LCD_MoveRight(2);
 266:/home/student/avr_src/SimulIDE_1.0.0-SR1_Lin64/Timer/Timer.c **** 					LCD_CharWrite(0x00C0);
 267:/home/student/avr_src/SimulIDE_1.0.0-SR1_Lin64/Timer/Timer.c **** 					LCD_CharWrite(0x00C0);
 268:/home/student/avr_src/SimulIDE_1.0.0-SR1_Lin64/Timer/Timer.c **** 				}
 269:/home/student/avr_src/SimulIDE_1.0.0-SR1_Lin64/Timer/Timer.c **** 				LCD_CharWrite(num2lcdbyte(0));
 270:/home/student/avr_src/SimulIDE_1.0.0-SR1_Lin64/Timer/Timer.c **** 				I2C_LCD_MoveLeft(1);
 271:/home/student/avr_src/SimulIDE_1.0.0-SR1_Lin64/Timer/Timer.c **** 				time_10ms = 99;
 272:/home/student/avr_src/SimulIDE_1.0.0-SR1_Lin64/Timer/Timer.c **** 				sec = 60;
 273:/home/student/avr_src/SimulIDE_1.0.0-SR1_Lin64/Timer/Timer.c **** 				min--;
 274:/home/student/avr_src/SimulIDE_1.0.0-SR1_Lin64/Timer/Timer.c **** 			}
 275:/home/student/avr_src/SimulIDE_1.0.0-SR1_Lin64/Timer/Timer.c **** 			else {
 276:/home/student/avr_src/SimulIDE_1.0.0-SR1_Lin64/Timer/Timer.c **** 				end_flag = 1;
 277:/home/student/avr_src/SimulIDE_1.0.0-SR1_Lin64/Timer/Timer.c **** 				// LCD_CharWrite(num2lcdbyte(0));
 278:/home/student/avr_src/SimulIDE_1.0.0-SR1_Lin64/Timer/Timer.c **** 				// I2C_LCD_MoveLeft(1);
 279:/home/student/avr_src/SimulIDE_1.0.0-SR1_Lin64/Timer/Timer.c **** 			}
 280:/home/student/avr_src/SimulIDE_1.0.0-SR1_Lin64/Timer/Timer.c **** 		}
 281:/home/student/avr_src/SimulIDE_1.0.0-SR1_Lin64/Timer/Timer.c **** 		else if(sec == 60){
 282:/home/student/avr_src/SimulIDE_1.0.0-SR1_Lin64/Timer/Timer.c **** 			I2C_LCD_MoveLeft(1);
 283:/home/student/avr_src/SimulIDE_1.0.0-SR1_Lin64/Timer/Timer.c **** 			LCD_CharWrite(num2lcdbyte((5)));
 284:/home/student/avr_src/SimulIDE_1.0.0-SR1_Lin64/Timer/Timer.c **** 			LCD_CharWrite(num2lcdbyte((sec-1)%10));
 285:/home/student/avr_src/SimulIDE_1.0.0-SR1_Lin64/Timer/Timer.c **** 			I2C_LCD_MoveLeft(1);
 286:/home/student/avr_src/SimulIDE_1.0.0-SR1_Lin64/Timer/Timer.c **** 			LCD_CharWrite(0x00C0);
 287:/home/student/avr_src/SimulIDE_1.0.0-SR1_Lin64/Timer/Timer.c **** 			LCD_CharWrite(0x00C0);
 288:/home/student/avr_src/SimulIDE_1.0.0-SR1_Lin64/Timer/Timer.c **** 			time_10ms = 99;
 289:/home/student/avr_src/SimulIDE_1.0.0-SR1_Lin64/Timer/Timer.c **** 			--sec;
 290:/home/student/avr_src/SimulIDE_1.0.0-SR1_Lin64/Timer/Timer.c **** 		}
 291:/home/student/avr_src/SimulIDE_1.0.0-SR1_Lin64/Timer/Timer.c **** 		else if(sec != 10){
 292:/home/student/avr_src/SimulIDE_1.0.0-SR1_Lin64/Timer/Timer.c **** 			if(sec % 10 == 0){
 293:/home/student/avr_src/SimulIDE_1.0.0-SR1_Lin64/Timer/Timer.c **** 				I2C_LCD_MoveLeft(1);
 294:/home/student/avr_src/SimulIDE_1.0.0-SR1_Lin64/Timer/Timer.c **** 				LCD_CharWrite(num2lcdbyte((sec/10 -1)));
 295:/home/student/avr_src/SimulIDE_1.0.0-SR1_Lin64/Timer/Timer.c **** 			}
 296:/home/student/avr_src/SimulIDE_1.0.0-SR1_Lin64/Timer/Timer.c **** 			else{
 297:/home/student/avr_src/SimulIDE_1.0.0-SR1_Lin64/Timer/Timer.c **** 				I2C_LCD_MoveLeft(1);
 298:/home/student/avr_src/SimulIDE_1.0.0-SR1_Lin64/Timer/Timer.c **** 				LCD_CharWrite(num2lcdbyte((sec/10)));
 299:/home/student/avr_src/SimulIDE_1.0.0-SR1_Lin64/Timer/Timer.c **** 			}
 300:/home/student/avr_src/SimulIDE_1.0.0-SR1_Lin64/Timer/Timer.c **** 			LCD_CharWrite(num2lcdbyte((sec-1)%10));
 301:/home/student/avr_src/SimulIDE_1.0.0-SR1_Lin64/Timer/Timer.c **** 			I2C_LCD_MoveLeft(1);
 302:/home/student/avr_src/SimulIDE_1.0.0-SR1_Lin64/Timer/Timer.c **** 			LCD_CharWrite(0x00C0);
 303:/home/student/avr_src/SimulIDE_1.0.0-SR1_Lin64/Timer/Timer.c **** 			LCD_CharWrite(0x00C0);
 304:/home/student/avr_src/SimulIDE_1.0.0-SR1_Lin64/Timer/Timer.c **** 			time_10ms = 99;
 305:/home/student/avr_src/SimulIDE_1.0.0-SR1_Lin64/Timer/Timer.c **** 			--sec;
 306:/home/student/avr_src/SimulIDE_1.0.0-SR1_Lin64/Timer/Timer.c **** 		}
 307:/home/student/avr_src/SimulIDE_1.0.0-SR1_Lin64/Timer/Timer.c **** 		else if(sec == 10){
 308:/home/student/avr_src/SimulIDE_1.0.0-SR1_Lin64/Timer/Timer.c **** 			I2C_LCD_MoveLeft(1);
 309:/home/student/avr_src/SimulIDE_1.0.0-SR1_Lin64/Timer/Timer.c **** 			LCD_CharWrite(num2lcdbyte((0)));
 310:/home/student/avr_src/SimulIDE_1.0.0-SR1_Lin64/Timer/Timer.c **** 			LCD_CharWrite(num2lcdbyte((sec-1)%10));
 311:/home/student/avr_src/SimulIDE_1.0.0-SR1_Lin64/Timer/Timer.c **** 			I2C_LCD_MoveLeft(1);
 312:/home/student/avr_src/SimulIDE_1.0.0-SR1_Lin64/Timer/Timer.c **** 			LCD_CharWrite(0x00C0);
 313:/home/student/avr_src/SimulIDE_1.0.0-SR1_Lin64/Timer/Timer.c **** 			LCD_CharWrite(0x00C0);
 314:/home/student/avr_src/SimulIDE_1.0.0-SR1_Lin64/Timer/Timer.c **** 			time_10ms = 99;
 315:/home/student/avr_src/SimulIDE_1.0.0-SR1_Lin64/Timer/Timer.c **** 			--sec;
 316:/home/student/avr_src/SimulIDE_1.0.0-SR1_Lin64/Timer/Timer.c **** 		}
 317:/home/student/avr_src/SimulIDE_1.0.0-SR1_Lin64/Timer/Timer.c **** 		/*-------- Second part end -------*/
 318:/home/student/avr_src/SimulIDE_1.0.0-SR1_Lin64/Timer/Timer.c **** 
 319:/home/student/avr_src/SimulIDE_1.0.0-SR1_Lin64/Timer/Timer.c **** 		
 320:/home/student/avr_src/SimulIDE_1.0.0-SR1_Lin64/Timer/Timer.c **** 	
 321:/home/student/avr_src/SimulIDE_1.0.0-SR1_Lin64/Timer/Timer.c **** }
 322:/home/student/avr_src/SimulIDE_1.0.0-SR1_Lin64/Timer/Timer.c **** //====================================================
 323:/home/student/avr_src/SimulIDE_1.0.0-SR1_Lin64/Timer/Timer.c **** void I2C_LCD_MoveLeft(unsigned char cnt){
 324:/home/student/avr_src/SimulIDE_1.0.0-SR1_Lin64/Timer/Timer.c **** 	
 325:/home/student/avr_src/SimulIDE_1.0.0-SR1_Lin64/Timer/Timer.c ****     while(cnt){
 326:/home/student/avr_src/SimulIDE_1.0.0-SR1_Lin64/Timer/Timer.c **** 		LCD_CharWrite(0x1000);
 327:/home/student/avr_src/SimulIDE_1.0.0-SR1_Lin64/Timer/Timer.c **** 		cnt--;
 328:/home/student/avr_src/SimulIDE_1.0.0-SR1_Lin64/Timer/Timer.c **** 	}
 329:/home/student/avr_src/SimulIDE_1.0.0-SR1_Lin64/Timer/Timer.c ****     LCD_CharWrite(0x0060);
 330:/home/student/avr_src/SimulIDE_1.0.0-SR1_Lin64/Timer/Timer.c ****     LCD_CharWrite(0x00E0); //must add current state
 331:/home/student/avr_src/SimulIDE_1.0.0-SR1_Lin64/Timer/Timer.c **** }
 332:/home/student/avr_src/SimulIDE_1.0.0-SR1_Lin64/Timer/Timer.c **** 
 333:/home/student/avr_src/SimulIDE_1.0.0-SR1_Lin64/Timer/Timer.c **** void I2C_LCD_MoveRight(unsigned char cnt){
 334:/home/student/avr_src/SimulIDE_1.0.0-SR1_Lin64/Timer/Timer.c **** 	while(cnt){
 335:/home/student/avr_src/SimulIDE_1.0.0-SR1_Lin64/Timer/Timer.c **** 		LCD_CharWrite(0x1040);
 336:/home/student/avr_src/SimulIDE_1.0.0-SR1_Lin64/Timer/Timer.c **** 		cnt--;
 337:/home/student/avr_src/SimulIDE_1.0.0-SR1_Lin64/Timer/Timer.c **** 	}
 338:/home/student/avr_src/SimulIDE_1.0.0-SR1_Lin64/Timer/Timer.c ****     LCD_CharWrite(0x00E0); //must add current state
 339:/home/student/avr_src/SimulIDE_1.0.0-SR1_Lin64/Timer/Timer.c **** }
 340:/home/student/avr_src/SimulIDE_1.0.0-SR1_Lin64/Timer/Timer.c **** 
 341:/home/student/avr_src/SimulIDE_1.0.0-SR1_Lin64/Timer/Timer.c **** void I2C_LCD_SELECT(){
 342:/home/student/avr_src/SimulIDE_1.0.0-SR1_Lin64/Timer/Timer.c **** 	sel_flag ^= 1;
 343:/home/student/avr_src/SimulIDE_1.0.0-SR1_Lin64/Timer/Timer.c **** 	if(sel_flag){
 344:/home/student/avr_src/SimulIDE_1.0.0-SR1_Lin64/Timer/Timer.c **** 		LCD_CharWrite(0x00F0);
 345:/home/student/avr_src/SimulIDE_1.0.0-SR1_Lin64/Timer/Timer.c **** 		LCD_CharWrite(0x00F0);
 346:/home/student/avr_src/SimulIDE_1.0.0-SR1_Lin64/Timer/Timer.c **** 	} 
 347:/home/student/avr_src/SimulIDE_1.0.0-SR1_Lin64/Timer/Timer.c **** 	else {
 348:/home/student/avr_src/SimulIDE_1.0.0-SR1_Lin64/Timer/Timer.c **** 		LCD_CharWrite(0x00E0);
 349:/home/student/avr_src/SimulIDE_1.0.0-SR1_Lin64/Timer/Timer.c **** 		LCD_CharWrite(0x00E0);
 350:/home/student/avr_src/SimulIDE_1.0.0-SR1_Lin64/Timer/Timer.c **** 	}
 351:/home/student/avr_src/SimulIDE_1.0.0-SR1_Lin64/Timer/Timer.c **** }
 352:/home/student/avr_src/SimulIDE_1.0.0-SR1_Lin64/Timer/Timer.c **** 
 353:/home/student/avr_src/SimulIDE_1.0.0-SR1_Lin64/Timer/Timer.c **** //====================================================
 354:/home/student/avr_src/SimulIDE_1.0.0-SR1_Lin64/Timer/Timer.c **** ISR(TIMER1_COMPA_vect){
 355:/home/student/avr_src/SimulIDE_1.0.0-SR1_Lin64/Timer/Timer.c **** 	if(time_1s) time_1s--;
 356:/home/student/avr_src/SimulIDE_1.0.0-SR1_Lin64/Timer/Timer.c **** 	if(time_10ms) time_10ms--;
 357:/home/student/avr_src/SimulIDE_1.0.0-SR1_Lin64/Timer/Timer.c **** 	PORTC ^= 0x01;
 358:/home/student/avr_src/SimulIDE_1.0.0-SR1_Lin64/Timer/Timer.c **** 
 359:/home/student/avr_src/SimulIDE_1.0.0-SR1_Lin64/Timer/Timer.c **** 
 360:/home/student/avr_src/SimulIDE_1.0.0-SR1_Lin64/Timer/Timer.c **** 	if(timer_start_flag && time_10ms){
 361:/home/student/avr_src/SimulIDE_1.0.0-SR1_Lin64/Timer/Timer.c **** 		
 362:/home/student/avr_src/SimulIDE_1.0.0-SR1_Lin64/Timer/Timer.c **** 		I2C_LCD_MoveRight(2);
 363:/home/student/avr_src/SimulIDE_1.0.0-SR1_Lin64/Timer/Timer.c **** 		LCD_CharWrite(num2lcdbyte(time_10ms/10));
 364:/home/student/avr_src/SimulIDE_1.0.0-SR1_Lin64/Timer/Timer.c **** 		LCD_CharWrite(num2lcdbyte(time_10ms % 10));
 365:/home/student/avr_src/SimulIDE_1.0.0-SR1_Lin64/Timer/Timer.c **** 		I2C_LCD_MoveLeft(4);
 366:/home/student/avr_src/SimulIDE_1.0.0-SR1_Lin64/Timer/Timer.c **** 		LCD_CharWrite(0x00C0);
 367:/home/student/avr_src/SimulIDE_1.0.0-SR1_Lin64/Timer/Timer.c **** 		LCD_CharWrite(0x00C0);
 368:/home/student/avr_src/SimulIDE_1.0.0-SR1_Lin64/Timer/Timer.c **** 		return;
 369:/home/student/avr_src/SimulIDE_1.0.0-SR1_Lin64/Timer/Timer.c **** 	}
 370:/home/student/avr_src/SimulIDE_1.0.0-SR1_Lin64/Timer/Timer.c **** 
 371:/home/student/avr_src/SimulIDE_1.0.0-SR1_Lin64/Timer/Timer.c ****    	//**NOTE: Timer must perform only the role of timer otherwise, global variables will be reset *
 372:/home/student/avr_src/SimulIDE_1.0.0-SR1_Lin64/Timer/Timer.c ****     key_data = key_scan();
 373:/home/student/avr_src/SimulIDE_1.0.0-SR1_Lin64/Timer/Timer.c **** 	
 374:/home/student/avr_src/SimulIDE_1.0.0-SR1_Lin64/Timer/Timer.c **** 	if(sel_flag && key_flag){
 375:/home/student/avr_src/SimulIDE_1.0.0-SR1_Lin64/Timer/Timer.c **** 		key_flag = 0;
 376:/home/student/avr_src/SimulIDE_1.0.0-SR1_Lin64/Timer/Timer.c **** 		if(key_data == 0xff){
 377:/home/student/avr_src/SimulIDE_1.0.0-SR1_Lin64/Timer/Timer.c ****             return;
 378:/home/student/avr_src/SimulIDE_1.0.0-SR1_Lin64/Timer/Timer.c **** 		}
 379:/home/student/avr_src/SimulIDE_1.0.0-SR1_Lin64/Timer/Timer.c **** 		if(key_data == 2){
 380:/home/student/avr_src/SimulIDE_1.0.0-SR1_Lin64/Timer/Timer.c **** 			LCD_CharWrite(num2lcdbyte(2));
 381:/home/student/avr_src/SimulIDE_1.0.0-SR1_Lin64/Timer/Timer.c ****         	LCD_CharWrite(0x1000);
 382:/home/student/avr_src/SimulIDE_1.0.0-SR1_Lin64/Timer/Timer.c ****         	LCD_CharWrite(0x00F0);
 383:/home/student/avr_src/SimulIDE_1.0.0-SR1_Lin64/Timer/Timer.c **** 		}
 384:/home/student/avr_src/SimulIDE_1.0.0-SR1_Lin64/Timer/Timer.c **** 		if(key_data == 8){	
 385:/home/student/avr_src/SimulIDE_1.0.0-SR1_Lin64/Timer/Timer.c **** 			LCD_CharWrite(num2lcdbyte(8));
 386:/home/student/avr_src/SimulIDE_1.0.0-SR1_Lin64/Timer/Timer.c **** 			LCD_CharWrite(0x1000);
 387:/home/student/avr_src/SimulIDE_1.0.0-SR1_Lin64/Timer/Timer.c ****             LCD_CharWrite(0x00F0);
 388:/home/student/avr_src/SimulIDE_1.0.0-SR1_Lin64/Timer/Timer.c **** 		}
 389:/home/student/avr_src/SimulIDE_1.0.0-SR1_Lin64/Timer/Timer.c **** 		if(key_data == 5){
 390:/home/student/avr_src/SimulIDE_1.0.0-SR1_Lin64/Timer/Timer.c **** 			I2C_LCD_SELECT();
 391:/home/student/avr_src/SimulIDE_1.0.0-SR1_Lin64/Timer/Timer.c **** 		}
 392:/home/student/avr_src/SimulIDE_1.0.0-SR1_Lin64/Timer/Timer.c **** 	}
 393:/home/student/avr_src/SimulIDE_1.0.0-SR1_Lin64/Timer/Timer.c **** 
 394:/home/student/avr_src/SimulIDE_1.0.0-SR1_Lin64/Timer/Timer.c ****     if(key_flag && !sel_flag){
 395:/home/student/avr_src/SimulIDE_1.0.0-SR1_Lin64/Timer/Timer.c **** 		key_flag = 0;
 396:/home/student/avr_src/SimulIDE_1.0.0-SR1_Lin64/Timer/Timer.c **** 		if(key_data == 0xff){
 397:/home/student/avr_src/SimulIDE_1.0.0-SR1_Lin64/Timer/Timer.c ****             return;
 398:/home/student/avr_src/SimulIDE_1.0.0-SR1_Lin64/Timer/Timer.c **** 		}
 399:/home/student/avr_src/SimulIDE_1.0.0-SR1_Lin64/Timer/Timer.c **** 
 400:/home/student/avr_src/SimulIDE_1.0.0-SR1_Lin64/Timer/Timer.c ****         if(key_data == 10){
 401:/home/student/avr_src/SimulIDE_1.0.0-SR1_Lin64/Timer/Timer.c **** 			I2C_Timer_Default();
 402:/home/student/avr_src/SimulIDE_1.0.0-SR1_Lin64/Timer/Timer.c ****         }
 403:/home/student/avr_src/SimulIDE_1.0.0-SR1_Lin64/Timer/Timer.c ****         if(key_data == 11){
 404:/home/student/avr_src/SimulIDE_1.0.0-SR1_Lin64/Timer/Timer.c **** 			timer_start_flag ^= 1;
 405:/home/student/avr_src/SimulIDE_1.0.0-SR1_Lin64/Timer/Timer.c **** 		}                                                       
 406:/home/student/avr_src/SimulIDE_1.0.0-SR1_Lin64/Timer/Timer.c **** 		if(key_data == 1){
 407:/home/student/avr_src/SimulIDE_1.0.0-SR1_Lin64/Timer/Timer.c **** 			LCD_CharWrite(0x00E0);
 408:/home/student/avr_src/SimulIDE_1.0.0-SR1_Lin64/Timer/Timer.c ****             LCD_CharWrite(0x00E0);
 409:/home/student/avr_src/SimulIDE_1.0.0-SR1_Lin64/Timer/Timer.c **** 			//key_data += '0';
 410:/home/student/avr_src/SimulIDE_1.0.0-SR1_Lin64/Timer/Timer.c **** 		}
 411:/home/student/avr_src/SimulIDE_1.0.0-SR1_Lin64/Timer/Timer.c **** 		
 412:/home/student/avr_src/SimulIDE_1.0.0-SR1_Lin64/Timer/Timer.c **** 		if(key_data == 3){
 413:/home/student/avr_src/SimulIDE_1.0.0-SR1_Lin64/Timer/Timer.c **** 			I2C_Timer_act();
 414:/home/student/avr_src/SimulIDE_1.0.0-SR1_Lin64/Timer/Timer.c **** 		}
 415:/home/student/avr_src/SimulIDE_1.0.0-SR1_Lin64/Timer/Timer.c **** 		if(key_data == 4){
 416:/home/student/avr_src/SimulIDE_1.0.0-SR1_Lin64/Timer/Timer.c **** 			I2C_LCD_MoveLeft(1);
 417:/home/student/avr_src/SimulIDE_1.0.0-SR1_Lin64/Timer/Timer.c **** 		}
 418:/home/student/avr_src/SimulIDE_1.0.0-SR1_Lin64/Timer/Timer.c **** 		if(key_data == 5){
 419:/home/student/avr_src/SimulIDE_1.0.0-SR1_Lin64/Timer/Timer.c **** 			I2C_LCD_SELECT();
 420:/home/student/avr_src/SimulIDE_1.0.0-SR1_Lin64/Timer/Timer.c **** 		}
 421:/home/student/avr_src/SimulIDE_1.0.0-SR1_Lin64/Timer/Timer.c **** 		if(key_data == 6){
 422:/home/student/avr_src/SimulIDE_1.0.0-SR1_Lin64/Timer/Timer.c **** 			I2C_LCD_MoveRight(1);
 423:/home/student/avr_src/SimulIDE_1.0.0-SR1_Lin64/Timer/Timer.c **** 		}
 424:/home/student/avr_src/SimulIDE_1.0.0-SR1_Lin64/Timer/Timer.c **** 		if(key_data == 7){
 425:/home/student/avr_src/SimulIDE_1.0.0-SR1_Lin64/Timer/Timer.c **** 			LCD_CharWrite(num2lcdbyte(7));
 426:/home/student/avr_src/SimulIDE_1.0.0-SR1_Lin64/Timer/Timer.c ****             LCD_CharWrite(0x00E0);
 427:/home/student/avr_src/SimulIDE_1.0.0-SR1_Lin64/Timer/Timer.c **** 			//key_data += '0';
 428:/home/student/avr_src/SimulIDE_1.0.0-SR1_Lin64/Timer/Timer.c **** 		}
 429:/home/student/avr_src/SimulIDE_1.0.0-SR1_Lin64/Timer/Timer.c **** 		
 430:/home/student/avr_src/SimulIDE_1.0.0-SR1_Lin64/Timer/Timer.c **** 		if(key_data == 9){
 431:/home/student/avr_src/SimulIDE_1.0.0-SR1_Lin64/Timer/Timer.c **** 			LCD_CharWrite(num2lcdbyte(9));
 432:/home/student/avr_src/SimulIDE_1.0.0-SR1_Lin64/Timer/Timer.c ****             LCD_CharWrite(0x00E0);
 433:/home/student/avr_src/SimulIDE_1.0.0-SR1_Lin64/Timer/Timer.c **** 			//key_data += '0';
 434:/home/student/avr_src/SimulIDE_1.0.0-SR1_Lin64/Timer/Timer.c **** 		}
 435:/home/student/avr_src/SimulIDE_1.0.0-SR1_Lin64/Timer/Timer.c **** 		if(key_data == 0){
 436:/home/student/avr_src/SimulIDE_1.0.0-SR1_Lin64/Timer/Timer.c **** 			
 437:/home/student/avr_src/SimulIDE_1.0.0-SR1_Lin64/Timer/Timer.c **** 			LCD_CharWrite(num2lcdbyte(0));
 438:/home/student/avr_src/SimulIDE_1.0.0-SR1_Lin64/Timer/Timer.c ****             LCD_CharWrite(0x00E0);
 439:/home/student/avr_src/SimulIDE_1.0.0-SR1_Lin64/Timer/Timer.c **** 		}
 440:/home/student/avr_src/SimulIDE_1.0.0-SR1_Lin64/Timer/Timer.c **** 		// LCD_CharWrite(0xF0);
 441:/home/student/avr_src/SimulIDE_1.0.0-SR1_Lin64/Timer/Timer.c **** 		
 442:/home/student/avr_src/SimulIDE_1.0.0-SR1_Lin64/Timer/Timer.c **** 
 443:/home/student/avr_src/SimulIDE_1.0.0-SR1_Lin64/Timer/Timer.c **** 		PORTC |= 0b00100000;
 444:/home/student/avr_src/SimulIDE_1.0.0-SR1_Lin64/Timer/Timer.c ****         //Tx_char(key_data);
 445:/home/student/avr_src/SimulIDE_1.0.0-SR1_Lin64/Timer/Timer.c ****         //Tx_char(' ');
 446:/home/student/avr_src/SimulIDE_1.0.0-SR1_Lin64/Timer/Timer.c ****         //LED_ON();
 447:/home/student/avr_src/SimulIDE_1.0.0-SR1_Lin64/Timer/Timer.c ****         }
 448:/home/student/avr_src/SimulIDE_1.0.0-SR1_Lin64/Timer/Timer.c ****         else{
 449:/home/student/avr_src/SimulIDE_1.0.0-SR1_Lin64/Timer/Timer.c ****             //LED_OFF();
 450:/home/student/avr_src/SimulIDE_1.0.0-SR1_Lin64/Timer/Timer.c **** 			PORTC &= ~0b00100000;
 451:/home/student/avr_src/SimulIDE_1.0.0-SR1_Lin64/Timer/Timer.c ****   			PORTC &= ~0x01;
 452:/home/student/avr_src/SimulIDE_1.0.0-SR1_Lin64/Timer/Timer.c ****         }
 453:/home/student/avr_src/SimulIDE_1.0.0-SR1_Lin64/Timer/Timer.c **** 
 454:/home/student/avr_src/SimulIDE_1.0.0-SR1_Lin64/Timer/Timer.c **** 	
 455:/home/student/avr_src/SimulIDE_1.0.0-SR1_Lin64/Timer/Timer.c **** 	
 456:/home/student/avr_src/SimulIDE_1.0.0-SR1_Lin64/Timer/Timer.c **** }
 457:/home/student/avr_src/SimulIDE_1.0.0-SR1_Lin64/Timer/Timer.c **** //====================================================
 458:/home/student/avr_src/SimulIDE_1.0.0-SR1_Lin64/Timer/Timer.c **** void USART_init(){
 201               		.stabn	68,0,458,.LM12-.LFBB4
 202               	.LM12:
 203               	.LFBB4:
 204               	/* prologue: function */
 205               	/* frame size = 0 */
 206               	/* stack size = 0 */
 207               	.L__stack_usage = 0
 459:/home/student/avr_src/SimulIDE_1.0.0-SR1_Lin64/Timer/Timer.c ****     UCSR0A = 0x20;
 208               		.stabn	68,0,459,.LM13-.LFBB4
 209               	.LM13:
 210 003c 80E2      		ldi r24,lo8(32)
 211 003e 8093 C000 		sts 192,r24
 460:/home/student/avr_src/SimulIDE_1.0.0-SR1_Lin64/Timer/Timer.c ****     UCSR0B = 0x18;
 212               		.stabn	68,0,460,.LM14-.LFBB4
 213               	.LM14:
 214 0042 88E1      		ldi r24,lo8(24)
 215 0044 8093 C100 		sts 193,r24
 461:/home/student/avr_src/SimulIDE_1.0.0-SR1_Lin64/Timer/Timer.c ****     UCSR0C = 0x06;
 216               		.stabn	68,0,461,.LM15-.LFBB4
 217               	.LM15:
 218 0048 86E0      		ldi r24,lo8(6)
 219 004a 8093 C200 		sts 194,r24
 462:/home/student/avr_src/SimulIDE_1.0.0-SR1_Lin64/Timer/Timer.c ****     UBRR0 = 8;
 220               		.stabn	68,0,462,.LM16-.LFBB4
 221               	.LM16:
 222 004e 88E0      		ldi r24,lo8(8)
 223 0050 90E0      		ldi r25,0
 224 0052 9093 C500 		sts 196+1,r25
 225 0056 8093 C400 		sts 196,r24
 226 005a 0895      		ret
 227               		.size	USART_init, .-USART_init
 228               	.Lscope4:
 229               		.stabs	"",36,0,0,.Lscope4-.LFBB4
 230               		.stabd	78,0,0
 231               		.stabs	"Tx_char:F(0,49)",36,0,464,Tx_char
 232               		.stabs	"data:P(0,13)",64,0,464,24
 233               	.global	Tx_char
 234               		.type	Tx_char, @function
 235               	Tx_char:
 236               		.stabd	46,0,0
 463:/home/student/avr_src/SimulIDE_1.0.0-SR1_Lin64/Timer/Timer.c **** }
 464:/home/student/avr_src/SimulIDE_1.0.0-SR1_Lin64/Timer/Timer.c **** void Tx_char(unsigned char data){
 237               		.stabn	68,0,464,.LM17-.LFBB5
 238               	.LM17:
 239               	.LFBB5:
 240               	/* prologue: function */
 241               	/* frame size = 0 */
 242               	/* stack size = 0 */
 243               	.L__stack_usage = 0
 244               	.L6:
 465:/home/student/avr_src/SimulIDE_1.0.0-SR1_Lin64/Timer/Timer.c ****     while(!(UCSR0A & (1 << UDRE0)));
 245               		.stabn	68,0,465,.LM18-.LFBB5
 246               	.LM18:
 247 005c 9091 C000 		lds r25,192
 248 0060 95FF      		sbrs r25,5
 249 0062 00C0      		rjmp .L6
 466:/home/student/avr_src/SimulIDE_1.0.0-SR1_Lin64/Timer/Timer.c ****     UDR0 = data;
 250               		.stabn	68,0,466,.LM19-.LFBB5
 251               	.LM19:
 252 0064 8093 C600 		sts 198,r24
 253 0068 0895      		ret
 254               		.size	Tx_char, .-Tx_char
 255               	.Lscope5:
 256               		.stabs	"",36,0,0,.Lscope5-.LFBB5
 257               		.stabd	78,0,0
 258               		.stabs	"key_analysis:F(0,13)",36,0,531,key_analysis
 259               		.stabs	"key:P(0,13)",64,0,531,24
 260               		.stabs	"Raw:P(0,13)",64,0,531,22
 261               	.global	key_analysis
 262               		.type	key_analysis, @function
 263               	key_analysis:
 264               		.stabd	46,0,0
 467:/home/student/avr_src/SimulIDE_1.0.0-SR1_Lin64/Timer/Timer.c **** }
 468:/home/student/avr_src/SimulIDE_1.0.0-SR1_Lin64/Timer/Timer.c **** //====================================================
 469:/home/student/avr_src/SimulIDE_1.0.0-SR1_Lin64/Timer/Timer.c **** unsigned char key_scan(){
 470:/home/student/avr_src/SimulIDE_1.0.0-SR1_Lin64/Timer/Timer.c **** 
 471:/home/student/avr_src/SimulIDE_1.0.0-SR1_Lin64/Timer/Timer.c **** 
 472:/home/student/avr_src/SimulIDE_1.0.0-SR1_Lin64/Timer/Timer.c ****     unsigned char bit_shift = 0b00010000;
 473:/home/student/avr_src/SimulIDE_1.0.0-SR1_Lin64/Timer/Timer.c ****     if(key_flag) return -1;
 474:/home/student/avr_src/SimulIDE_1.0.0-SR1_Lin64/Timer/Timer.c ****     PORTD &= ~(0x70);
 475:/home/student/avr_src/SimulIDE_1.0.0-SR1_Lin64/Timer/Timer.c ****     new_key = (PINB) & 0x0f;
 476:/home/student/avr_src/SimulIDE_1.0.0-SR1_Lin64/Timer/Timer.c **** 
 477:/home/student/avr_src/SimulIDE_1.0.0-SR1_Lin64/Timer/Timer.c ****     /* procedure to prevent signals chattering */
 478:/home/student/avr_src/SimulIDE_1.0.0-SR1_Lin64/Timer/Timer.c ****     if(new_key != old_key){
 479:/home/student/avr_src/SimulIDE_1.0.0-SR1_Lin64/Timer/Timer.c ****         old_key = new_key;
 480:/home/student/avr_src/SimulIDE_1.0.0-SR1_Lin64/Timer/Timer.c ****         return -1;
 481:/home/student/avr_src/SimulIDE_1.0.0-SR1_Lin64/Timer/Timer.c ****     }
 482:/home/student/avr_src/SimulIDE_1.0.0-SR1_Lin64/Timer/Timer.c **** 
 483:/home/student/avr_src/SimulIDE_1.0.0-SR1_Lin64/Timer/Timer.c ****     if(pressing_flag){ //checking if btn released
 484:/home/student/avr_src/SimulIDE_1.0.0-SR1_Lin64/Timer/Timer.c ****         //pin 1 ,3, 5 => D4, D5, D6 / pin 2,7,6,4 => D0, D1, D2, D3
 485:/home/student/avr_src/SimulIDE_1.0.0-SR1_Lin64/Timer/Timer.c ****         if(new_key == 0x0f){ //compare with current key and the received new key
 486:/home/student/avr_src/SimulIDE_1.0.0-SR1_Lin64/Timer/Timer.c ****                              //because if one of btns is pressed, it can get signals 
 487:/home/student/avr_src/SimulIDE_1.0.0-SR1_Lin64/Timer/Timer.c ****             pressing_flag = 0;
 488:/home/student/avr_src/SimulIDE_1.0.0-SR1_Lin64/Timer/Timer.c ****             return -1;
 489:/home/student/avr_src/SimulIDE_1.0.0-SR1_Lin64/Timer/Timer.c ****         }
 490:/home/student/avr_src/SimulIDE_1.0.0-SR1_Lin64/Timer/Timer.c ****         else return -1;
 491:/home/student/avr_src/SimulIDE_1.0.0-SR1_Lin64/Timer/Timer.c ****     }
 492:/home/student/avr_src/SimulIDE_1.0.0-SR1_Lin64/Timer/Timer.c **** 
 493:/home/student/avr_src/SimulIDE_1.0.0-SR1_Lin64/Timer/Timer.c ****     else { //checking if key pressed has a diffrent value with the previous key 
 494:/home/student/avr_src/SimulIDE_1.0.0-SR1_Lin64/Timer/Timer.c ****         if (new_key == 0x0f){
 495:/home/student/avr_src/SimulIDE_1.0.0-SR1_Lin64/Timer/Timer.c ****             return -1;
 496:/home/student/avr_src/SimulIDE_1.0.0-SR1_Lin64/Timer/Timer.c ****         } 
 497:/home/student/avr_src/SimulIDE_1.0.0-SR1_Lin64/Timer/Timer.c ****         else { 
 498:/home/student/avr_src/SimulIDE_1.0.0-SR1_Lin64/Timer/Timer.c ****             for(int Raw = 0; Raw < 3; Raw++){
 499:/home/student/avr_src/SimulIDE_1.0.0-SR1_Lin64/Timer/Timer.c ****                 PORTD |= 0x70; 
 500:/home/student/avr_src/SimulIDE_1.0.0-SR1_Lin64/Timer/Timer.c ****                 PORTD &= ~(bit_shift); //to check specific raw, Ex) raw 1 -> D5, D6 must be HIGH st
 501:/home/student/avr_src/SimulIDE_1.0.0-SR1_Lin64/Timer/Timer.c **** 									   //in addition if pin of PORTD is on, PINB won't be low state
 502:/home/student/avr_src/SimulIDE_1.0.0-SR1_Lin64/Timer/Timer.c **** 			    
 503:/home/student/avr_src/SimulIDE_1.0.0-SR1_Lin64/Timer/Timer.c ****                 
 504:/home/student/avr_src/SimulIDE_1.0.0-SR1_Lin64/Timer/Timer.c ****                 DDRD &= ~(bit_shift); //refresh
 505:/home/student/avr_src/SimulIDE_1.0.0-SR1_Lin64/Timer/Timer.c **** 				DDRD |= 0x70; 
 506:/home/student/avr_src/SimulIDE_1.0.0-SR1_Lin64/Timer/Timer.c **** 				
 507:/home/student/avr_src/SimulIDE_1.0.0-SR1_Lin64/Timer/Timer.c ****                 new_key = (PINB) & 0x0f;
 508:/home/student/avr_src/SimulIDE_1.0.0-SR1_Lin64/Timer/Timer.c ****                 if(new_key == 0x0f){ // + when raw is LOW
 509:/home/student/avr_src/SimulIDE_1.0.0-SR1_Lin64/Timer/Timer.c ****                   
 510:/home/student/avr_src/SimulIDE_1.0.0-SR1_Lin64/Timer/Timer.c ****                     bit_shift <<= 1;
 511:/home/student/avr_src/SimulIDE_1.0.0-SR1_Lin64/Timer/Timer.c ****                     continue;
 512:/home/student/avr_src/SimulIDE_1.0.0-SR1_Lin64/Timer/Timer.c ****                 }
 513:/home/student/avr_src/SimulIDE_1.0.0-SR1_Lin64/Timer/Timer.c ****                 else {
 514:/home/student/avr_src/SimulIDE_1.0.0-SR1_Lin64/Timer/Timer.c **** 					// if(!lcd_flag) I2C_LCD_init(0x27);
 515:/home/student/avr_src/SimulIDE_1.0.0-SR1_Lin64/Timer/Timer.c **** 					// lcd_flag = 1;
 516:/home/student/avr_src/SimulIDE_1.0.0-SR1_Lin64/Timer/Timer.c ****                     pressing_flag = 1;
 517:/home/student/avr_src/SimulIDE_1.0.0-SR1_Lin64/Timer/Timer.c ****                     key_flag = 1;
 518:/home/student/avr_src/SimulIDE_1.0.0-SR1_Lin64/Timer/Timer.c ****                     return key_analysis(new_key, Raw);
 519:/home/student/avr_src/SimulIDE_1.0.0-SR1_Lin64/Timer/Timer.c ****                 }
 520:/home/student/avr_src/SimulIDE_1.0.0-SR1_Lin64/Timer/Timer.c ****             }
 521:/home/student/avr_src/SimulIDE_1.0.0-SR1_Lin64/Timer/Timer.c ****         
 522:/home/student/avr_src/SimulIDE_1.0.0-SR1_Lin64/Timer/Timer.c ****         }
 523:/home/student/avr_src/SimulIDE_1.0.0-SR1_Lin64/Timer/Timer.c ****     }
 524:/home/student/avr_src/SimulIDE_1.0.0-SR1_Lin64/Timer/Timer.c **** 
 525:/home/student/avr_src/SimulIDE_1.0.0-SR1_Lin64/Timer/Timer.c **** 	return -1;
 526:/home/student/avr_src/SimulIDE_1.0.0-SR1_Lin64/Timer/Timer.c **** 
 527:/home/student/avr_src/SimulIDE_1.0.0-SR1_Lin64/Timer/Timer.c ****     /* end checking */
 528:/home/student/avr_src/SimulIDE_1.0.0-SR1_Lin64/Timer/Timer.c **** }
 529:/home/student/avr_src/SimulIDE_1.0.0-SR1_Lin64/Timer/Timer.c **** 
 530:/home/student/avr_src/SimulIDE_1.0.0-SR1_Lin64/Timer/Timer.c **** 
 531:/home/student/avr_src/SimulIDE_1.0.0-SR1_Lin64/Timer/Timer.c **** unsigned char key_analysis(unsigned char key, unsigned char Raw){
 265               		.stabn	68,0,531,.LM20-.LFBB6
 266               	.LM20:
 267               	.LFBB6:
 268               	/* prologue: function */
 269               	/* frame size = 0 */
 270               	/* stack size = 0 */
 271               	.L__stack_usage = 0
 532:/home/student/avr_src/SimulIDE_1.0.0-SR1_Lin64/Timer/Timer.c **** 
 533:/home/student/avr_src/SimulIDE_1.0.0-SR1_Lin64/Timer/Timer.c **** 	key_flag = 1;
 272               		.stabn	68,0,533,.LM21-.LFBB6
 273               	.LM21:
 274 006a 91E0      		ldi r25,lo8(1)
 275 006c 9093 0000 		sts key_flag,r25
 534:/home/student/avr_src/SimulIDE_1.0.0-SR1_Lin64/Timer/Timer.c **** 	switch(Raw){
 276               		.stabn	68,0,534,.LM22-.LFBB6
 277               	.LM22:
 278 0070 6130      		cpi r22,lo8(1)
 279 0072 01F0      		breq .L12
 280 0074 00F0      		brlo .L13
 281 0076 6230      		cpi r22,lo8(2)
 282 0078 01F0      		breq .L14
 283 007a 00C0      		rjmp .L34
 284               	.L13:
 285               	.LBB106:
 286               	.LBB107:
 535:/home/student/avr_src/SimulIDE_1.0.0-SR1_Lin64/Timer/Timer.c **** 		case 0:
 536:/home/student/avr_src/SimulIDE_1.0.0-SR1_Lin64/Timer/Timer.c **** 		switch(key){
 287               		.stabn	68,0,536,.LM23-.LFBB6
 288               	.LM23:
 289 007c 8B30      		cpi r24,lo8(11)
 290 007e 01F0      		breq .L16
 291 0080 00F4      		brsh .L17
 292 0082 8730      		cpi r24,lo8(7)
 293 0084 01F4      		brne .L34
 537:/home/student/avr_src/SimulIDE_1.0.0-SR1_Lin64/Timer/Timer.c **** 			case 0b00001110:
 538:/home/student/avr_src/SimulIDE_1.0.0-SR1_Lin64/Timer/Timer.c **** 			return 1;
 539:/home/student/avr_src/SimulIDE_1.0.0-SR1_Lin64/Timer/Timer.c **** 			case 0b00001101:
 540:/home/student/avr_src/SimulIDE_1.0.0-SR1_Lin64/Timer/Timer.c **** 			return 4;
 541:/home/student/avr_src/SimulIDE_1.0.0-SR1_Lin64/Timer/Timer.c **** 			case 0b00001011:
 542:/home/student/avr_src/SimulIDE_1.0.0-SR1_Lin64/Timer/Timer.c **** 			return 7;
 543:/home/student/avr_src/SimulIDE_1.0.0-SR1_Lin64/Timer/Timer.c **** 			case 0b00000111:
 544:/home/student/avr_src/SimulIDE_1.0.0-SR1_Lin64/Timer/Timer.c **** 			return 10;
 294               		.stabn	68,0,544,.LM24-.LFBB6
 295               	.LM24:
 296 0086 8AE0      		ldi r24,lo8(10)
 297 0088 0895      		ret
 298               	.L17:
 536:/home/student/avr_src/SimulIDE_1.0.0-SR1_Lin64/Timer/Timer.c **** 			case 0b00001110:
 299               		.stabn	68,0,536,.LM25-.LFBB6
 300               	.LM25:
 301 008a 8D30      		cpi r24,lo8(13)
 302 008c 01F0      		breq .L19
 303 008e 8E30      		cpi r24,lo8(14)
 304 0090 01F0      		breq .L31
 305 0092 00C0      		rjmp .L34
 306               	.L19:
 540:/home/student/avr_src/SimulIDE_1.0.0-SR1_Lin64/Timer/Timer.c **** 			case 0b00001011:
 307               		.stabn	68,0,540,.LM26-.LFBB6
 308               	.LM26:
 309 0094 84E0      		ldi r24,lo8(4)
 310 0096 0895      		ret
 311               	.L16:
 542:/home/student/avr_src/SimulIDE_1.0.0-SR1_Lin64/Timer/Timer.c **** 			case 0b00000111:
 312               		.stabn	68,0,542,.LM27-.LFBB6
 313               	.LM27:
 314 0098 87E0      		ldi r24,lo8(7)
 315 009a 0895      		ret
 316               	.L12:
 317               	.LBE107:
 318               	.LBE106:
 545:/home/student/avr_src/SimulIDE_1.0.0-SR1_Lin64/Timer/Timer.c **** 			default:
 546:/home/student/avr_src/SimulIDE_1.0.0-SR1_Lin64/Timer/Timer.c **** 			key_flag = 0;
 547:/home/student/avr_src/SimulIDE_1.0.0-SR1_Lin64/Timer/Timer.c **** 			return -1;
 548:/home/student/avr_src/SimulIDE_1.0.0-SR1_Lin64/Timer/Timer.c **** 		}
 549:/home/student/avr_src/SimulIDE_1.0.0-SR1_Lin64/Timer/Timer.c **** 
 550:/home/student/avr_src/SimulIDE_1.0.0-SR1_Lin64/Timer/Timer.c **** 		case 1:
 551:/home/student/avr_src/SimulIDE_1.0.0-SR1_Lin64/Timer/Timer.c **** 		switch(key){
 319               		.stabn	68,0,551,.LM28-.LFBB6
 320               	.LM28:
 321 009c 8B30      		cpi r24,lo8(11)
 322 009e 01F0      		breq .L22
 323 00a0 00F4      		brsh .L23
 324 00a2 8730      		cpi r24,lo8(7)
 325 00a4 01F4      		brne .L34
 552:/home/student/avr_src/SimulIDE_1.0.0-SR1_Lin64/Timer/Timer.c **** 			case 0b00001110:
 553:/home/student/avr_src/SimulIDE_1.0.0-SR1_Lin64/Timer/Timer.c **** 			return 2;
 554:/home/student/avr_src/SimulIDE_1.0.0-SR1_Lin64/Timer/Timer.c **** 			case 0b00001101:
 555:/home/student/avr_src/SimulIDE_1.0.0-SR1_Lin64/Timer/Timer.c **** 			return 5;
 556:/home/student/avr_src/SimulIDE_1.0.0-SR1_Lin64/Timer/Timer.c **** 			case 0b00001011:
 557:/home/student/avr_src/SimulIDE_1.0.0-SR1_Lin64/Timer/Timer.c **** 			return 8;
 558:/home/student/avr_src/SimulIDE_1.0.0-SR1_Lin64/Timer/Timer.c **** 			case 0b00000111:
 559:/home/student/avr_src/SimulIDE_1.0.0-SR1_Lin64/Timer/Timer.c **** 			return 0;
 326               		.stabn	68,0,559,.LM29-.LFBB6
 327               	.LM29:
 328 00a6 80E0      		ldi r24,0
 329 00a8 0895      		ret
 330               	.L23:
 551:/home/student/avr_src/SimulIDE_1.0.0-SR1_Lin64/Timer/Timer.c **** 			case 0b00001110:
 331               		.stabn	68,0,551,.LM30-.LFBB6
 332               	.LM30:
 333 00aa 8D30      		cpi r24,lo8(13)
 334 00ac 01F0      		breq .L25
 335 00ae 8E30      		cpi r24,lo8(14)
 336 00b0 01F0      		breq .L32
 337 00b2 00C0      		rjmp .L34
 338               	.L25:
 555:/home/student/avr_src/SimulIDE_1.0.0-SR1_Lin64/Timer/Timer.c **** 			case 0b00001011:
 339               		.stabn	68,0,555,.LM31-.LFBB6
 340               	.LM31:
 341 00b4 85E0      		ldi r24,lo8(5)
 342 00b6 0895      		ret
 343               	.L22:
 557:/home/student/avr_src/SimulIDE_1.0.0-SR1_Lin64/Timer/Timer.c **** 			case 0b00000111:
 344               		.stabn	68,0,557,.LM32-.LFBB6
 345               	.LM32:
 346 00b8 88E0      		ldi r24,lo8(8)
 347 00ba 0895      		ret
 348               	.L14:
 560:/home/student/avr_src/SimulIDE_1.0.0-SR1_Lin64/Timer/Timer.c **** 			default:
 561:/home/student/avr_src/SimulIDE_1.0.0-SR1_Lin64/Timer/Timer.c **** 			key_flag = 0;
 562:/home/student/avr_src/SimulIDE_1.0.0-SR1_Lin64/Timer/Timer.c **** 			return -1;
 563:/home/student/avr_src/SimulIDE_1.0.0-SR1_Lin64/Timer/Timer.c **** 		}
 564:/home/student/avr_src/SimulIDE_1.0.0-SR1_Lin64/Timer/Timer.c **** 
 565:/home/student/avr_src/SimulIDE_1.0.0-SR1_Lin64/Timer/Timer.c **** 		case 2:
 566:/home/student/avr_src/SimulIDE_1.0.0-SR1_Lin64/Timer/Timer.c **** 		switch(key){
 349               		.stabn	68,0,566,.LM33-.LFBB6
 350               	.LM33:
 351 00bc 8B30      		cpi r24,lo8(11)
 352 00be 01F0      		breq .L27
 353 00c0 00F4      		brsh .L28
 354 00c2 8730      		cpi r24,lo8(7)
 355 00c4 01F4      		brne .L34
 567:/home/student/avr_src/SimulIDE_1.0.0-SR1_Lin64/Timer/Timer.c **** 			case 0b00001110:
 568:/home/student/avr_src/SimulIDE_1.0.0-SR1_Lin64/Timer/Timer.c **** 			return 3;
 569:/home/student/avr_src/SimulIDE_1.0.0-SR1_Lin64/Timer/Timer.c **** 			case 0b0001101:
 570:/home/student/avr_src/SimulIDE_1.0.0-SR1_Lin64/Timer/Timer.c **** 			return 6;
 571:/home/student/avr_src/SimulIDE_1.0.0-SR1_Lin64/Timer/Timer.c **** 			case 0b00001011:
 572:/home/student/avr_src/SimulIDE_1.0.0-SR1_Lin64/Timer/Timer.c **** 			return 9;
 573:/home/student/avr_src/SimulIDE_1.0.0-SR1_Lin64/Timer/Timer.c **** 			case 0b00000111:
 574:/home/student/avr_src/SimulIDE_1.0.0-SR1_Lin64/Timer/Timer.c **** 			return 11;
 356               		.stabn	68,0,574,.LM34-.LFBB6
 357               	.LM34:
 358 00c6 8BE0      		ldi r24,lo8(11)
 359 00c8 0895      		ret
 360               	.L28:
 566:/home/student/avr_src/SimulIDE_1.0.0-SR1_Lin64/Timer/Timer.c **** 			case 0b00001110:
 361               		.stabn	68,0,566,.LM35-.LFBB6
 362               	.LM35:
 363 00ca 8D30      		cpi r24,lo8(13)
 364 00cc 01F0      		breq .L30
 365 00ce 8E30      		cpi r24,lo8(14)
 366 00d0 01F0      		breq .L33
 367 00d2 00C0      		rjmp .L34
 368               	.L30:
 570:/home/student/avr_src/SimulIDE_1.0.0-SR1_Lin64/Timer/Timer.c **** 			case 0b00001011:
 369               		.stabn	68,0,570,.LM36-.LFBB6
 370               	.LM36:
 371 00d4 86E0      		ldi r24,lo8(6)
 372 00d6 0895      		ret
 373               	.L27:
 572:/home/student/avr_src/SimulIDE_1.0.0-SR1_Lin64/Timer/Timer.c **** 			case 0b00000111:
 374               		.stabn	68,0,572,.LM37-.LFBB6
 375               	.LM37:
 376 00d8 89E0      		ldi r24,lo8(9)
 377 00da 0895      		ret
 378               	.L34:
 575:/home/student/avr_src/SimulIDE_1.0.0-SR1_Lin64/Timer/Timer.c **** 			default:
 576:/home/student/avr_src/SimulIDE_1.0.0-SR1_Lin64/Timer/Timer.c **** 			key_flag = 0;
 577:/home/student/avr_src/SimulIDE_1.0.0-SR1_Lin64/Timer/Timer.c **** 			return -1;
 578:/home/student/avr_src/SimulIDE_1.0.0-SR1_Lin64/Timer/Timer.c **** 		}
 579:/home/student/avr_src/SimulIDE_1.0.0-SR1_Lin64/Timer/Timer.c **** 		default:
 580:/home/student/avr_src/SimulIDE_1.0.0-SR1_Lin64/Timer/Timer.c **** 		key_flag = 0;
 379               		.stabn	68,0,580,.LM38-.LFBB6
 380               	.LM38:
 381 00dc 1092 0000 		sts key_flag,__zero_reg__
 581:/home/student/avr_src/SimulIDE_1.0.0-SR1_Lin64/Timer/Timer.c **** 		return -1;
 382               		.stabn	68,0,581,.LM39-.LFBB6
 383               	.LM39:
 384 00e0 8FEF      		ldi r24,lo8(-1)
 385 00e2 0895      		ret
 386               	.L31:
 387               	.LBB109:
 388               	.LBB108:
 538:/home/student/avr_src/SimulIDE_1.0.0-SR1_Lin64/Timer/Timer.c **** 			case 0b00001101:
 389               		.stabn	68,0,538,.LM40-.LFBB6
 390               	.LM40:
 391 00e4 81E0      		ldi r24,lo8(1)
 392 00e6 0895      		ret
 393               	.L32:
 394               	.LBE108:
 395               	.LBE109:
 553:/home/student/avr_src/SimulIDE_1.0.0-SR1_Lin64/Timer/Timer.c **** 			case 0b00001101:
 396               		.stabn	68,0,553,.LM41-.LFBB6
 397               	.LM41:
 398 00e8 82E0      		ldi r24,lo8(2)
 399 00ea 0895      		ret
 400               	.L33:
 568:/home/student/avr_src/SimulIDE_1.0.0-SR1_Lin64/Timer/Timer.c **** 			case 0b0001101:
 401               		.stabn	68,0,568,.LM42-.LFBB6
 402               	.LM42:
 403 00ec 83E0      		ldi r24,lo8(3)
 582:/home/student/avr_src/SimulIDE_1.0.0-SR1_Lin64/Timer/Timer.c **** 	}
 583:/home/student/avr_src/SimulIDE_1.0.0-SR1_Lin64/Timer/Timer.c **** }
 404               		.stabn	68,0,583,.LM43-.LFBB6
 405               	.LM43:
 406 00ee 0895      		ret
 407               		.size	key_analysis, .-key_analysis
 408               	.Lscope6:
 409               		.stabs	"",36,0,0,.Lscope6-.LFBB6
 410               		.stabd	78,0,0
 411               		.stabs	"key_scan:F(0,13)",36,0,469,key_scan
 412               	.global	key_scan
 413               		.type	key_scan, @function
 414               	key_scan:
 415               		.stabd	46,0,0
 469:/home/student/avr_src/SimulIDE_1.0.0-SR1_Lin64/Timer/Timer.c **** 
 416               		.stabn	68,0,469,.LM44-.LFBB7
 417               	.LM44:
 418               	.LFBB7:
 419               	/* prologue: function */
 420               	/* frame size = 0 */
 421               	/* stack size = 0 */
 422               	.L__stack_usage = 0
 473:/home/student/avr_src/SimulIDE_1.0.0-SR1_Lin64/Timer/Timer.c ****     PORTD &= ~(0x70);
 423               		.stabn	68,0,473,.LM45-.LFBB7
 424               	.LM45:
 425 00f0 8091 0000 		lds r24,key_flag
 426 00f4 8111      		cpse r24,__zero_reg__
 427 00f6 00C0      		rjmp .L37
 474:/home/student/avr_src/SimulIDE_1.0.0-SR1_Lin64/Timer/Timer.c ****     new_key = (PINB) & 0x0f;
 428               		.stabn	68,0,474,.LM46-.LFBB7
 429               	.LM46:
 430 00f8 8BB1      		in r24,0xb
 431 00fa 8F78      		andi r24,lo8(-113)
 432 00fc 8BB9      		out 0xb,r24
 475:/home/student/avr_src/SimulIDE_1.0.0-SR1_Lin64/Timer/Timer.c **** 
 433               		.stabn	68,0,475,.LM47-.LFBB7
 434               	.LM47:
 435 00fe 83B1      		in r24,0x3
 436 0100 8F70      		andi r24,lo8(15)
 437 0102 8093 0000 		sts new_key,r24
 478:/home/student/avr_src/SimulIDE_1.0.0-SR1_Lin64/Timer/Timer.c ****         old_key = new_key;
 438               		.stabn	68,0,478,.LM48-.LFBB7
 439               	.LM48:
 440 0106 9091 0000 		lds r25,new_key
 441 010a 8091 0000 		lds r24,old_key
 442 010e 9817      		cp r25,r24
 443 0110 01F0      		breq .L38
 479:/home/student/avr_src/SimulIDE_1.0.0-SR1_Lin64/Timer/Timer.c ****         return -1;
 444               		.stabn	68,0,479,.LM49-.LFBB7
 445               	.LM49:
 446 0112 8091 0000 		lds r24,new_key
 447 0116 8093 0000 		sts old_key,r24
 480:/home/student/avr_src/SimulIDE_1.0.0-SR1_Lin64/Timer/Timer.c ****     }
 448               		.stabn	68,0,480,.LM50-.LFBB7
 449               	.LM50:
 450 011a 00C0      		rjmp .L37
 451               	.L38:
 483:/home/student/avr_src/SimulIDE_1.0.0-SR1_Lin64/Timer/Timer.c ****         //pin 1 ,3, 5 => D4, D5, D6 / pin 2,7,6,4 => D0, D1, D2, D3
 452               		.stabn	68,0,483,.LM51-.LFBB7
 453               	.LM51:
 454 011c 8091 0000 		lds r24,pressing_flag
 455 0120 8823      		tst r24
 456 0122 01F0      		breq .L39
 485:/home/student/avr_src/SimulIDE_1.0.0-SR1_Lin64/Timer/Timer.c ****                              //because if one of btns is pressed, it can get signals 
 457               		.stabn	68,0,485,.LM52-.LFBB7
 458               	.LM52:
 459 0124 8091 0000 		lds r24,new_key
 460 0128 8F30      		cpi r24,lo8(15)
 461 012a 01F4      		brne .L37
 487:/home/student/avr_src/SimulIDE_1.0.0-SR1_Lin64/Timer/Timer.c ****             return -1;
 462               		.stabn	68,0,487,.LM53-.LFBB7
 463               	.LM53:
 464 012c 1092 0000 		sts pressing_flag,__zero_reg__
 488:/home/student/avr_src/SimulIDE_1.0.0-SR1_Lin64/Timer/Timer.c ****         }
 465               		.stabn	68,0,488,.LM54-.LFBB7
 466               	.LM54:
 467 0130 00C0      		rjmp .L37
 468               	.L39:
 494:/home/student/avr_src/SimulIDE_1.0.0-SR1_Lin64/Timer/Timer.c ****             return -1;
 469               		.stabn	68,0,494,.LM55-.LFBB7
 470               	.LM55:
 471 0132 8091 0000 		lds r24,new_key
 472 0136 8F30      		cpi r24,lo8(15)
 473 0138 01F0      		breq .L37
 474 013a 60E0      		ldi r22,0
 475 013c 70E0      		ldi r23,0
 476 013e 90E1      		ldi r25,lo8(16)
 477               	.L42:
 478               	.LBB114:
 479               	.LBB115:
 480               	.LBB116:
 499:/home/student/avr_src/SimulIDE_1.0.0-SR1_Lin64/Timer/Timer.c ****                 PORTD &= ~(bit_shift); //to check specific raw, Ex) raw 1 -> D5, D6 must be HIGH st
 481               		.stabn	68,0,499,.LM56-.LFBB7
 482               	.LM56:
 483 0140 8BB1      		in r24,0xb
 484 0142 8067      		ori r24,lo8(112)
 485 0144 8BB9      		out 0xb,r24
 500:/home/student/avr_src/SimulIDE_1.0.0-SR1_Lin64/Timer/Timer.c **** 									   //in addition if pin of PORTD is on, PINB won't be low state
 486               		.stabn	68,0,500,.LM57-.LFBB7
 487               	.LM57:
 488 0146 2BB1      		in r18,0xb
 489 0148 892F      		mov r24,r25
 490 014a 8095      		com r24
 491 014c 2823      		and r18,r24
 492 014e 2BB9      		out 0xb,r18
 504:/home/student/avr_src/SimulIDE_1.0.0-SR1_Lin64/Timer/Timer.c **** 				DDRD |= 0x70; 
 493               		.stabn	68,0,504,.LM58-.LFBB7
 494               	.LM58:
 495 0150 2AB1      		in r18,0xa
 496 0152 8223      		and r24,r18
 497 0154 8AB9      		out 0xa,r24
 505:/home/student/avr_src/SimulIDE_1.0.0-SR1_Lin64/Timer/Timer.c **** 				
 498               		.stabn	68,0,505,.LM59-.LFBB7
 499               	.LM59:
 500 0156 8AB1      		in r24,0xa
 501 0158 8067      		ori r24,lo8(112)
 502 015a 8AB9      		out 0xa,r24
 507:/home/student/avr_src/SimulIDE_1.0.0-SR1_Lin64/Timer/Timer.c ****                 if(new_key == 0x0f){ // + when raw is LOW
 503               		.stabn	68,0,507,.LM60-.LFBB7
 504               	.LM60:
 505 015c 83B1      		in r24,0x3
 506 015e 8F70      		andi r24,lo8(15)
 507 0160 8093 0000 		sts new_key,r24
 508:/home/student/avr_src/SimulIDE_1.0.0-SR1_Lin64/Timer/Timer.c ****                   
 508               		.stabn	68,0,508,.LM61-.LFBB7
 509               	.LM61:
 510 0164 8091 0000 		lds r24,new_key
 511 0168 8F30      		cpi r24,lo8(15)
 512 016a 01F4      		brne .L41
 510:/home/student/avr_src/SimulIDE_1.0.0-SR1_Lin64/Timer/Timer.c ****                     continue;
 513               		.stabn	68,0,510,.LM62-.LFBB7
 514               	.LM62:
 515 016c 990F      		lsl r25
 498:/home/student/avr_src/SimulIDE_1.0.0-SR1_Lin64/Timer/Timer.c ****                 PORTD |= 0x70; 
 516               		.stabn	68,0,498,.LM63-.LFBB7
 517               	.LM63:
 518 016e 6F5F      		subi r22,-1
 519 0170 7F4F      		sbci r23,-1
 520 0172 6330      		cpi r22,3
 521 0174 7105      		cpc r23,__zero_reg__
 522 0176 01F0      		breq .L37
 523 0178 00C0      		rjmp .L42
 524               	.L41:
 516:/home/student/avr_src/SimulIDE_1.0.0-SR1_Lin64/Timer/Timer.c ****                     key_flag = 1;
 525               		.stabn	68,0,516,.LM64-.LFBB7
 526               	.LM64:
 527 017a 81E0      		ldi r24,lo8(1)
 528 017c 8093 0000 		sts pressing_flag,r24
 517:/home/student/avr_src/SimulIDE_1.0.0-SR1_Lin64/Timer/Timer.c ****                     return key_analysis(new_key, Raw);
 529               		.stabn	68,0,517,.LM65-.LFBB7
 530               	.LM65:
 531 0180 8093 0000 		sts key_flag,r24
 518:/home/student/avr_src/SimulIDE_1.0.0-SR1_Lin64/Timer/Timer.c ****                 }
 532               		.stabn	68,0,518,.LM66-.LFBB7
 533               	.LM66:
 534 0184 8091 0000 		lds r24,new_key
 535 0188 0C94 0000 		jmp key_analysis
 536               	.L37:
 537               	.LBE116:
 538               	.LBE115:
 539               	.LBE114:
 528:/home/student/avr_src/SimulIDE_1.0.0-SR1_Lin64/Timer/Timer.c **** 
 540               		.stabn	68,0,528,.LM67-.LFBB7
 541               	.LM67:
 542 018c 8FEF      		ldi r24,lo8(-1)
 543 018e 0895      		ret
 544               		.size	key_scan, .-key_scan
 545               		.stabs	"bit_shift:r(0,13)",64,0,472,25
 546               		.stabn	192,0,0,.LBB115-.LFBB7
 547               		.stabs	"Raw:r(0,1)",64,0,498,22
 548               		.stabn	192,0,0,.LBB116-.LFBB7
 549               		.stabn	224,0,0,.LBE116-.LFBB7
 550               		.stabn	224,0,0,.LBE115-.LFBB7
 551               	.Lscope7:
 552               		.stabs	"",36,0,0,.Lscope7-.LFBB7
 553               		.stabd	78,0,0
 554               		.stabs	"num2lcdbyte:F(5,4)",36,0,612,num2lcdbyte
 555               		.stabs	"num:P(0,13)",64,0,612,24
 556               	.global	num2lcdbyte
 557               		.type	num2lcdbyte, @function
 558               	num2lcdbyte:
 559               		.stabd	46,0,0
 584:/home/student/avr_src/SimulIDE_1.0.0-SR1_Lin64/Timer/Timer.c **** //====================================================
 585:/home/student/avr_src/SimulIDE_1.0.0-SR1_Lin64/Timer/Timer.c **** 
 586:/home/student/avr_src/SimulIDE_1.0.0-SR1_Lin64/Timer/Timer.c **** void LCD_Write(unsigned char data){ //mainly command
 587:/home/student/avr_src/SimulIDE_1.0.0-SR1_Lin64/Timer/Timer.c **** 	
 588:/home/student/avr_src/SimulIDE_1.0.0-SR1_Lin64/Timer/Timer.c **** 	// D7 D6 D5 D4   X  E  RW RS
 589:/home/student/avr_src/SimulIDE_1.0.0-SR1_Lin64/Timer/Timer.c **** 	// P7 P6 P5 P4   P3 P2 P1 P0
 590:/home/student/avr_src/SimulIDE_1.0.0-SR1_Lin64/Timer/Timer.c **** 	_delay_us(1);
 591:/home/student/avr_src/SimulIDE_1.0.0-SR1_Lin64/Timer/Timer.c **** 	//LCD_NEBIT(data);
 592:/home/student/avr_src/SimulIDE_1.0.0-SR1_Lin64/Timer/Timer.c **** 	write_AT24Cxx_i2c_byte(data); 
 593:/home/student/avr_src/SimulIDE_1.0.0-SR1_Lin64/Timer/Timer.c **** 
 594:/home/student/avr_src/SimulIDE_1.0.0-SR1_Lin64/Timer/Timer.c **** }
 595:/home/student/avr_src/SimulIDE_1.0.0-SR1_Lin64/Timer/Timer.c **** 
 596:/home/student/avr_src/SimulIDE_1.0.0-SR1_Lin64/Timer/Timer.c **** void LCD_CharWrite(uint16_t byte){
 597:/home/student/avr_src/SimulIDE_1.0.0-SR1_Lin64/Timer/Timer.c **** 	
 598:/home/student/avr_src/SimulIDE_1.0.0-SR1_Lin64/Timer/Timer.c **** 	cli();
 599:/home/student/avr_src/SimulIDE_1.0.0-SR1_Lin64/Timer/Timer.c **** 
 600:/home/student/avr_src/SimulIDE_1.0.0-SR1_Lin64/Timer/Timer.c **** 	AT24Cxx_i2c_start();
 601:/home/student/avr_src/SimulIDE_1.0.0-SR1_Lin64/Timer/Timer.c **** 	write_AT24Cxx_i2c_LCDAddressing((I2CLCD_ADDR << 1)); 
 602:/home/student/avr_src/SimulIDE_1.0.0-SR1_Lin64/Timer/Timer.c **** 	unsigned char upperbits = byte>>8 & 0xFF;
 603:/home/student/avr_src/SimulIDE_1.0.0-SR1_Lin64/Timer/Timer.c **** 	unsigned char lowerbits = byte & 0xFF;
 604:/home/student/avr_src/SimulIDE_1.0.0-SR1_Lin64/Timer/Timer.c **** 	LCD_NEBIT(upperbits);
 605:/home/student/avr_src/SimulIDE_1.0.0-SR1_Lin64/Timer/Timer.c **** 	write_AT24Cxx_i2c_byte(upperbits); 
 606:/home/student/avr_src/SimulIDE_1.0.0-SR1_Lin64/Timer/Timer.c **** 	LCD_NEBIT(lowerbits);
 607:/home/student/avr_src/SimulIDE_1.0.0-SR1_Lin64/Timer/Timer.c **** 	write_AT24Cxx_i2c_byte(lowerbits); 
 608:/home/student/avr_src/SimulIDE_1.0.0-SR1_Lin64/Timer/Timer.c **** 	AT24Cxx_i2c_stop();
 609:/home/student/avr_src/SimulIDE_1.0.0-SR1_Lin64/Timer/Timer.c **** 	sei();
 610:/home/student/avr_src/SimulIDE_1.0.0-SR1_Lin64/Timer/Timer.c **** }
 611:/home/student/avr_src/SimulIDE_1.0.0-SR1_Lin64/Timer/Timer.c **** 
 612:/home/student/avr_src/SimulIDE_1.0.0-SR1_Lin64/Timer/Timer.c **** uint16_t num2lcdbyte(unsigned char num){
 560               		.stabn	68,0,612,.LM68-.LFBB8
 561               	.LM68:
 562               	.LFBB8:
 563               	/* prologue: function */
 564               	/* frame size = 0 */
 565               	/* stack size = 0 */
 566               	.L__stack_usage = 0
 613:/home/student/avr_src/SimulIDE_1.0.0-SR1_Lin64/Timer/Timer.c **** 	// D7 D6 D5 D4   X  E  RW RS
 614:/home/student/avr_src/SimulIDE_1.0.0-SR1_Lin64/Timer/Timer.c **** 	// P7 P6 P5 P4   P3 P2 P1 P0
 615:/home/student/avr_src/SimulIDE_1.0.0-SR1_Lin64/Timer/Timer.c **** 
 616:/home/student/avr_src/SimulIDE_1.0.0-SR1_Lin64/Timer/Timer.c **** 	if(num == 0) return 0x3101;
 567               		.stabn	68,0,616,.LM69-.LFBB8
 568               	.LM69:
 569 0190 8823      		tst r24
 570 0192 01F0      		breq .L49
 617:/home/student/avr_src/SimulIDE_1.0.0-SR1_Lin64/Timer/Timer.c **** 	if(num == 1) return 0x3111;
 571               		.stabn	68,0,617,.LM70-.LFBB8
 572               	.LM70:
 573 0194 8130      		cpi r24,lo8(1)
 574 0196 01F0      		breq .L50
 618:/home/student/avr_src/SimulIDE_1.0.0-SR1_Lin64/Timer/Timer.c **** 	if(num == 2) return 0x3121;
 575               		.stabn	68,0,618,.LM71-.LFBB8
 576               	.LM71:
 577 0198 8230      		cpi r24,lo8(2)
 578 019a 01F0      		breq .L51
 619:/home/student/avr_src/SimulIDE_1.0.0-SR1_Lin64/Timer/Timer.c **** 	if(num == 3) return 0x3131;
 579               		.stabn	68,0,619,.LM72-.LFBB8
 580               	.LM72:
 581 019c 8330      		cpi r24,lo8(3)
 582 019e 01F0      		breq .L52
 620:/home/student/avr_src/SimulIDE_1.0.0-SR1_Lin64/Timer/Timer.c **** 	if(num == 4) return 0x3141;
 583               		.stabn	68,0,620,.LM73-.LFBB8
 584               	.LM73:
 585 01a0 8430      		cpi r24,lo8(4)
 586 01a2 01F0      		breq .L53
 621:/home/student/avr_src/SimulIDE_1.0.0-SR1_Lin64/Timer/Timer.c **** 	if(num == 5) return 0x3151;
 587               		.stabn	68,0,621,.LM74-.LFBB8
 588               	.LM74:
 589 01a4 8530      		cpi r24,lo8(5)
 590 01a6 01F0      		breq .L54
 622:/home/student/avr_src/SimulIDE_1.0.0-SR1_Lin64/Timer/Timer.c **** 	if(num == 6) return 0x3161;
 591               		.stabn	68,0,622,.LM75-.LFBB8
 592               	.LM75:
 593 01a8 8630      		cpi r24,lo8(6)
 594 01aa 01F0      		breq .L55
 623:/home/student/avr_src/SimulIDE_1.0.0-SR1_Lin64/Timer/Timer.c **** 	if(num == 7) return 0x3171;
 595               		.stabn	68,0,623,.LM76-.LFBB8
 596               	.LM76:
 597 01ac 8730      		cpi r24,lo8(7)
 598 01ae 01F0      		breq .L56
 599               	.LBB119:
 600               	.LBB120:
 624:/home/student/avr_src/SimulIDE_1.0.0-SR1_Lin64/Timer/Timer.c **** 	if(num == 8) return 0x3181;
 601               		.stabn	68,0,624,.LM77-.LFBB8
 602               	.LM77:
 603 01b0 8830      		cpi r24,lo8(8)
 604 01b2 01F0      		breq .L57
 625:/home/student/avr_src/SimulIDE_1.0.0-SR1_Lin64/Timer/Timer.c **** 	if(num == 9) return 0x3191;
 605               		.stabn	68,0,625,.LM78-.LFBB8
 606               	.LM78:
 607 01b4 8930      		cpi r24,lo8(9)
 608 01b6 01F0      		breq .L58
 626:/home/student/avr_src/SimulIDE_1.0.0-SR1_Lin64/Timer/Timer.c **** 
 627:/home/student/avr_src/SimulIDE_1.0.0-SR1_Lin64/Timer/Timer.c **** 	return -1;
 609               		.stabn	68,0,627,.LM79-.LFBB8
 610               	.LM79:
 611 01b8 8FEF      		ldi r24,lo8(-1)
 612 01ba 9FEF      		ldi r25,lo8(-1)
 613 01bc 0895      		ret
 614               	.L49:
 615               	.LBE120:
 616               	.LBE119:
 616:/home/student/avr_src/SimulIDE_1.0.0-SR1_Lin64/Timer/Timer.c **** 	if(num == 1) return 0x3111;
 617               		.stabn	68,0,616,.LM80-.LFBB8
 618               	.LM80:
 619 01be 81E0      		ldi r24,lo8(1)
 620 01c0 91E3      		ldi r25,lo8(49)
 621 01c2 0895      		ret
 622               	.L50:
 617:/home/student/avr_src/SimulIDE_1.0.0-SR1_Lin64/Timer/Timer.c **** 	if(num == 2) return 0x3121;
 623               		.stabn	68,0,617,.LM81-.LFBB8
 624               	.LM81:
 625 01c4 81E1      		ldi r24,lo8(17)
 626 01c6 91E3      		ldi r25,lo8(49)
 627 01c8 0895      		ret
 628               	.L51:
 618:/home/student/avr_src/SimulIDE_1.0.0-SR1_Lin64/Timer/Timer.c **** 	if(num == 3) return 0x3131;
 629               		.stabn	68,0,618,.LM82-.LFBB8
 630               	.LM82:
 631 01ca 81E2      		ldi r24,lo8(33)
 632 01cc 91E3      		ldi r25,lo8(49)
 633 01ce 0895      		ret
 634               	.L52:
 619:/home/student/avr_src/SimulIDE_1.0.0-SR1_Lin64/Timer/Timer.c **** 	if(num == 4) return 0x3141;
 635               		.stabn	68,0,619,.LM83-.LFBB8
 636               	.LM83:
 637 01d0 81E3      		ldi r24,lo8(49)
 638 01d2 91E3      		ldi r25,lo8(49)
 639 01d4 0895      		ret
 640               	.L53:
 620:/home/student/avr_src/SimulIDE_1.0.0-SR1_Lin64/Timer/Timer.c **** 	if(num == 5) return 0x3151;
 641               		.stabn	68,0,620,.LM84-.LFBB8
 642               	.LM84:
 643 01d6 81E4      		ldi r24,lo8(65)
 644 01d8 91E3      		ldi r25,lo8(49)
 645 01da 0895      		ret
 646               	.L54:
 621:/home/student/avr_src/SimulIDE_1.0.0-SR1_Lin64/Timer/Timer.c **** 	if(num == 6) return 0x3161;
 647               		.stabn	68,0,621,.LM85-.LFBB8
 648               	.LM85:
 649 01dc 81E5      		ldi r24,lo8(81)
 650 01de 91E3      		ldi r25,lo8(49)
 651 01e0 0895      		ret
 652               	.L55:
 622:/home/student/avr_src/SimulIDE_1.0.0-SR1_Lin64/Timer/Timer.c **** 	if(num == 7) return 0x3171;
 653               		.stabn	68,0,622,.LM86-.LFBB8
 654               	.LM86:
 655 01e2 81E6      		ldi r24,lo8(97)
 656 01e4 91E3      		ldi r25,lo8(49)
 657 01e6 0895      		ret
 658               	.L56:
 623:/home/student/avr_src/SimulIDE_1.0.0-SR1_Lin64/Timer/Timer.c **** 	if(num == 8) return 0x3181;
 659               		.stabn	68,0,623,.LM87-.LFBB8
 660               	.LM87:
 661 01e8 81E7      		ldi r24,lo8(113)
 662 01ea 91E3      		ldi r25,lo8(49)
 663 01ec 0895      		ret
 664               	.L57:
 665               	.LBB122:
 666               	.LBB121:
 624:/home/student/avr_src/SimulIDE_1.0.0-SR1_Lin64/Timer/Timer.c **** 	if(num == 9) return 0x3191;
 667               		.stabn	68,0,624,.LM88-.LFBB8
 668               	.LM88:
 669 01ee 81E8      		ldi r24,lo8(-127)
 670 01f0 91E3      		ldi r25,lo8(49)
 671 01f2 0895      		ret
 672               	.L58:
 625:/home/student/avr_src/SimulIDE_1.0.0-SR1_Lin64/Timer/Timer.c **** 
 673               		.stabn	68,0,625,.LM89-.LFBB8
 674               	.LM89:
 675 01f4 81E9      		ldi r24,lo8(-111)
 676 01f6 91E3      		ldi r25,lo8(49)
 677               	.LBE121:
 678               	.LBE122:
 628:/home/student/avr_src/SimulIDE_1.0.0-SR1_Lin64/Timer/Timer.c **** 
 629:/home/student/avr_src/SimulIDE_1.0.0-SR1_Lin64/Timer/Timer.c **** }
 679               		.stabn	68,0,629,.LM90-.LFBB8
 680               	.LM90:
 681 01f8 0895      		ret
 682               		.size	num2lcdbyte, .-num2lcdbyte
 683               	.Lscope8:
 684               		.stabs	"",36,0,0,.Lscope8-.LFBB8
 685               		.stabd	78,0,0
 686               		.stabs	"write_AT24Cxx_i2c_LCDAddressing:F(0,49)",36,0,631,write_AT24Cxx_i2c_LCDAddressing
 687               		.stabs	"byte:P(0,13)",64,0,631,24
 688               	.global	write_AT24Cxx_i2c_LCDAddressing
 689               		.type	write_AT24Cxx_i2c_LCDAddressing, @function
 690               	write_AT24Cxx_i2c_LCDAddressing:
 691               		.stabd	46,0,0
 630:/home/student/avr_src/SimulIDE_1.0.0-SR1_Lin64/Timer/Timer.c **** //====================================================
 631:/home/student/avr_src/SimulIDE_1.0.0-SR1_Lin64/Timer/Timer.c **** void write_AT24Cxx_i2c_LCDAddressing(unsigned char byte){
 692               		.stabn	68,0,631,.LM91-.LFBB9
 693               	.LM91:
 694               	.LFBB9:
 695               	/* prologue: function */
 696               	/* frame size = 0 */
 697               	/* stack size = 0 */
 698               	.L__stack_usage = 0
 699               	.LBB123:
 700               	.LBB124:
 701               		.stabs	"/usr/lib/avr/include/util/delay.h",132,0,0,.Ltext1
 702               	.Ltext1:
   1:/usr/lib/avr/include/util/delay.h **** /* Copyright (c) 2002, Marek Michalkiewicz
   2:/usr/lib/avr/include/util/delay.h ****    Copyright (c) 2004,2005,2007 Joerg Wunsch
   3:/usr/lib/avr/include/util/delay.h ****    Copyright (c) 2007  Florin-Viorel Petrov
   4:/usr/lib/avr/include/util/delay.h ****    All rights reserved.
   5:/usr/lib/avr/include/util/delay.h **** 
   6:/usr/lib/avr/include/util/delay.h ****    Redistribution and use in source and binary forms, with or without
   7:/usr/lib/avr/include/util/delay.h ****    modification, are permitted provided that the following conditions are met:
   8:/usr/lib/avr/include/util/delay.h **** 
   9:/usr/lib/avr/include/util/delay.h ****    * Redistributions of source code must retain the above copyright
  10:/usr/lib/avr/include/util/delay.h ****      notice, this list of conditions and the following disclaimer.
  11:/usr/lib/avr/include/util/delay.h **** 
  12:/usr/lib/avr/include/util/delay.h ****    * Redistributions in binary form must reproduce the above copyright
  13:/usr/lib/avr/include/util/delay.h ****      notice, this list of conditions and the following disclaimer in
  14:/usr/lib/avr/include/util/delay.h ****      the documentation and/or other materials provided with the
  15:/usr/lib/avr/include/util/delay.h ****      distribution.
  16:/usr/lib/avr/include/util/delay.h **** 
  17:/usr/lib/avr/include/util/delay.h ****    * Neither the name of the copyright holders nor the names of
  18:/usr/lib/avr/include/util/delay.h ****      contributors may be used to endorse or promote products derived
  19:/usr/lib/avr/include/util/delay.h ****      from this software without specific prior written permission.
  20:/usr/lib/avr/include/util/delay.h **** 
  21:/usr/lib/avr/include/util/delay.h ****   THIS SOFTWARE IS PROVIDED BY THE COPYRIGHT HOLDERS AND CONTRIBUTORS "AS IS"
  22:/usr/lib/avr/include/util/delay.h ****   AND ANY EXPRESS OR IMPLIED WARRANTIES, INCLUDING, BUT NOT LIMITED TO, THE
  23:/usr/lib/avr/include/util/delay.h ****   IMPLIED WARRANTIES OF MERCHANTABILITY AND FITNESS FOR A PARTICULAR PURPOSE
  24:/usr/lib/avr/include/util/delay.h ****   ARE DISCLAIMED. IN NO EVENT SHALL THE COPYRIGHT OWNER OR CONTRIBUTORS BE
  25:/usr/lib/avr/include/util/delay.h ****   LIABLE FOR ANY DIRECT, INDIRECT, INCIDENTAL, SPECIAL, EXEMPLARY, OR
  26:/usr/lib/avr/include/util/delay.h ****   CONSEQUENTIAL DAMAGES (INCLUDING, BUT NOT LIMITED TO, PROCUREMENT OF
  27:/usr/lib/avr/include/util/delay.h ****   SUBSTITUTE GOODS OR SERVICES; LOSS OF USE, DATA, OR PROFITS; OR BUSINESS
  28:/usr/lib/avr/include/util/delay.h ****   INTERRUPTION) HOWEVER CAUSED AND ON ANY THEORY OF LIABILITY, WHETHER IN
  29:/usr/lib/avr/include/util/delay.h ****   CONTRACT, STRICT LIABILITY, OR TORT (INCLUDING NEGLIGENCE OR OTHERWISE)
  30:/usr/lib/avr/include/util/delay.h ****   ARISING IN ANY WAY OUT OF THE USE OF THIS SOFTWARE, EVEN IF ADVISED OF THE
  31:/usr/lib/avr/include/util/delay.h ****   POSSIBILITY OF SUCH DAMAGE. */
  32:/usr/lib/avr/include/util/delay.h **** 
  33:/usr/lib/avr/include/util/delay.h **** /* $Id$ */
  34:/usr/lib/avr/include/util/delay.h **** 
  35:/usr/lib/avr/include/util/delay.h **** #ifndef _UTIL_DELAY_H_
  36:/usr/lib/avr/include/util/delay.h **** #define _UTIL_DELAY_H_ 1
  37:/usr/lib/avr/include/util/delay.h **** 
  38:/usr/lib/avr/include/util/delay.h **** #ifndef __DOXYGEN__
  39:/usr/lib/avr/include/util/delay.h **** #  ifndef __HAS_DELAY_CYCLES
  40:/usr/lib/avr/include/util/delay.h **** #    define __HAS_DELAY_CYCLES 1
  41:/usr/lib/avr/include/util/delay.h **** #  endif
  42:/usr/lib/avr/include/util/delay.h **** #endif  /* __DOXYGEN__ */
  43:/usr/lib/avr/include/util/delay.h **** 
  44:/usr/lib/avr/include/util/delay.h **** #include <inttypes.h>
  45:/usr/lib/avr/include/util/delay.h **** #include <util/delay_basic.h>
  46:/usr/lib/avr/include/util/delay.h **** #include <math.h>
  47:/usr/lib/avr/include/util/delay.h **** 
  48:/usr/lib/avr/include/util/delay.h **** /** \file */
  49:/usr/lib/avr/include/util/delay.h **** /** \defgroup util_delay <util/delay.h>: Convenience functions for busy-wait delay loops
  50:/usr/lib/avr/include/util/delay.h ****     \code
  51:/usr/lib/avr/include/util/delay.h ****     #define F_CPU 1000000UL  // 1 MHz
  52:/usr/lib/avr/include/util/delay.h ****     //#define F_CPU 14.7456E6
  53:/usr/lib/avr/include/util/delay.h ****     #include <util/delay.h>
  54:/usr/lib/avr/include/util/delay.h ****     \endcode
  55:/usr/lib/avr/include/util/delay.h **** 
  56:/usr/lib/avr/include/util/delay.h ****     \note As an alternative method, it is possible to pass the
  57:/usr/lib/avr/include/util/delay.h ****     F_CPU macro down to the compiler from the Makefile.
  58:/usr/lib/avr/include/util/delay.h ****     Obviously, in that case, no \c \#define statement should be
  59:/usr/lib/avr/include/util/delay.h ****     used.
  60:/usr/lib/avr/include/util/delay.h **** 
  61:/usr/lib/avr/include/util/delay.h ****     The functions in this header file are wrappers around the basic
  62:/usr/lib/avr/include/util/delay.h ****     busy-wait functions from <util/delay_basic.h>.  They are meant as
  63:/usr/lib/avr/include/util/delay.h ****     convenience functions where actual time values can be specified
  64:/usr/lib/avr/include/util/delay.h ****     rather than a number of cycles to wait for.  The idea behind is
  65:/usr/lib/avr/include/util/delay.h ****     that compile-time constant expressions will be eliminated by
  66:/usr/lib/avr/include/util/delay.h ****     compiler optimization so floating-point expressions can be used
  67:/usr/lib/avr/include/util/delay.h ****     to calculate the number of delay cycles needed based on the CPU
  68:/usr/lib/avr/include/util/delay.h ****     frequency passed by the macro F_CPU.
  69:/usr/lib/avr/include/util/delay.h **** 
  70:/usr/lib/avr/include/util/delay.h ****     \note In order for these functions to work as intended, compiler
  71:/usr/lib/avr/include/util/delay.h ****     optimizations <em>must</em> be enabled, and the delay time
  72:/usr/lib/avr/include/util/delay.h ****     <em>must</em> be an expression that is a known constant at
  73:/usr/lib/avr/include/util/delay.h ****     compile-time.  If these requirements are not met, the resulting
  74:/usr/lib/avr/include/util/delay.h ****     delay will be much longer (and basically unpredictable), and
  75:/usr/lib/avr/include/util/delay.h ****     applications that otherwise do not use floating-point calculations
  76:/usr/lib/avr/include/util/delay.h ****     will experience severe code bloat by the floating-point library
  77:/usr/lib/avr/include/util/delay.h ****     routines linked into the application.
  78:/usr/lib/avr/include/util/delay.h **** 
  79:/usr/lib/avr/include/util/delay.h ****     The functions available allow the specification of microsecond, and
  80:/usr/lib/avr/include/util/delay.h ****     millisecond delays directly, using the application-supplied macro
  81:/usr/lib/avr/include/util/delay.h ****     F_CPU as the CPU clock frequency (in Hertz).
  82:/usr/lib/avr/include/util/delay.h **** 
  83:/usr/lib/avr/include/util/delay.h **** */
  84:/usr/lib/avr/include/util/delay.h **** 
  85:/usr/lib/avr/include/util/delay.h **** #if !defined(__DOXYGEN__)
  86:/usr/lib/avr/include/util/delay.h **** static __inline__ void _delay_us(double __us) __attribute__((__always_inline__));
  87:/usr/lib/avr/include/util/delay.h **** static __inline__ void _delay_ms(double __ms) __attribute__((__always_inline__));
  88:/usr/lib/avr/include/util/delay.h **** #endif
  89:/usr/lib/avr/include/util/delay.h **** 
  90:/usr/lib/avr/include/util/delay.h **** #ifndef F_CPU
  91:/usr/lib/avr/include/util/delay.h **** /* prevent compiler error by supplying a default */
  92:/usr/lib/avr/include/util/delay.h **** # warning "F_CPU not defined for <util/delay.h>"
  93:/usr/lib/avr/include/util/delay.h **** /** \ingroup util_delay
  94:/usr/lib/avr/include/util/delay.h ****     \def F_CPU
  95:/usr/lib/avr/include/util/delay.h ****     \brief CPU frequency in Hz
  96:/usr/lib/avr/include/util/delay.h **** 
  97:/usr/lib/avr/include/util/delay.h ****     The macro F_CPU specifies the CPU frequency to be considered by
  98:/usr/lib/avr/include/util/delay.h ****     the delay macros.  This macro is normally supplied by the
  99:/usr/lib/avr/include/util/delay.h ****     environment (e.g. from within a project header, or the project's
 100:/usr/lib/avr/include/util/delay.h ****     Makefile).  The value 1 MHz here is only provided as a "vanilla"
 101:/usr/lib/avr/include/util/delay.h ****     fallback if no such user-provided definition could be found.
 102:/usr/lib/avr/include/util/delay.h **** 
 103:/usr/lib/avr/include/util/delay.h ****     In terms of the delay functions, the CPU frequency can be given as
 104:/usr/lib/avr/include/util/delay.h ****     a floating-point constant (e.g. 3.6864E6 for 3.6864 MHz).
 105:/usr/lib/avr/include/util/delay.h ****     However, the macros in <util/setbaud.h> require it to be an
 106:/usr/lib/avr/include/util/delay.h ****     integer value.
 107:/usr/lib/avr/include/util/delay.h ****  */
 108:/usr/lib/avr/include/util/delay.h **** # define F_CPU 1000000UL
 109:/usr/lib/avr/include/util/delay.h **** #endif
 110:/usr/lib/avr/include/util/delay.h **** 
 111:/usr/lib/avr/include/util/delay.h **** #ifndef __OPTIMIZE__
 112:/usr/lib/avr/include/util/delay.h **** # warning "Compiler optimizations disabled; functions from <util/delay.h> won't work as designed"
 113:/usr/lib/avr/include/util/delay.h **** #endif
 114:/usr/lib/avr/include/util/delay.h **** 
 115:/usr/lib/avr/include/util/delay.h **** #if __HAS_DELAY_CYCLES && defined(__OPTIMIZE__) && \
 116:/usr/lib/avr/include/util/delay.h ****   !defined(__DELAY_BACKWARD_COMPATIBLE__) &&	   \
 117:/usr/lib/avr/include/util/delay.h ****   __STDC_HOSTED__
 118:/usr/lib/avr/include/util/delay.h **** #  include <math.h>
 119:/usr/lib/avr/include/util/delay.h **** #endif
 120:/usr/lib/avr/include/util/delay.h **** 
 121:/usr/lib/avr/include/util/delay.h **** /**
 122:/usr/lib/avr/include/util/delay.h ****    \ingroup util_delay
 123:/usr/lib/avr/include/util/delay.h **** 
 124:/usr/lib/avr/include/util/delay.h ****    Perform a delay of \c __ms milliseconds, using _delay_loop_2().
 125:/usr/lib/avr/include/util/delay.h **** 
 126:/usr/lib/avr/include/util/delay.h ****    The macro F_CPU is supposed to be defined to a
 127:/usr/lib/avr/include/util/delay.h ****    constant defining the CPU clock frequency (in Hertz).
 128:/usr/lib/avr/include/util/delay.h **** 
 129:/usr/lib/avr/include/util/delay.h ****    The maximal possible delay is 262.14 ms / F_CPU in MHz.
 130:/usr/lib/avr/include/util/delay.h **** 
 131:/usr/lib/avr/include/util/delay.h ****    When the user request delay which exceed the maximum possible one,
 132:/usr/lib/avr/include/util/delay.h ****    _delay_ms() provides a decreased resolution functionality. In this
 133:/usr/lib/avr/include/util/delay.h ****    mode _delay_ms() will work with a resolution of 1/10 ms, providing
 134:/usr/lib/avr/include/util/delay.h ****    delays up to 6.5535 seconds (independent from CPU frequency).  The
 135:/usr/lib/avr/include/util/delay.h ****    user will not be informed about decreased resolution.
 136:/usr/lib/avr/include/util/delay.h **** 
 137:/usr/lib/avr/include/util/delay.h ****    If the avr-gcc toolchain has __builtin_avr_delay_cycles()
 138:/usr/lib/avr/include/util/delay.h ****    support, maximal possible delay is 4294967.295 ms/ F_CPU in MHz. For
 139:/usr/lib/avr/include/util/delay.h ****    values greater than the maximal possible delay, overflows results in
 140:/usr/lib/avr/include/util/delay.h ****    no delay i.e., 0ms.
 141:/usr/lib/avr/include/util/delay.h **** 
 142:/usr/lib/avr/include/util/delay.h ****    Conversion of \c __ms into clock cycles may not always result in
 143:/usr/lib/avr/include/util/delay.h ****    integer.  By default, the clock cycles rounded up to next
 144:/usr/lib/avr/include/util/delay.h ****    integer. This ensures that the user gets at least \c __ms
 145:/usr/lib/avr/include/util/delay.h ****    microseconds of delay.
 146:/usr/lib/avr/include/util/delay.h **** 
 147:/usr/lib/avr/include/util/delay.h ****    Alternatively, by defining the macro \c __DELAY_ROUND_DOWN__, or
 148:/usr/lib/avr/include/util/delay.h ****    \c __DELAY_ROUND_CLOSEST__, before including this header file, the
 149:/usr/lib/avr/include/util/delay.h ****    algorithm can be made to round down, or round to closest integer,
 150:/usr/lib/avr/include/util/delay.h ****    respectively.
 151:/usr/lib/avr/include/util/delay.h **** 
 152:/usr/lib/avr/include/util/delay.h ****    \note
 153:/usr/lib/avr/include/util/delay.h **** 
 154:/usr/lib/avr/include/util/delay.h ****    The implementation of _delay_ms() based on
 155:/usr/lib/avr/include/util/delay.h ****    __builtin_avr_delay_cycles() is not backward compatible with older
 156:/usr/lib/avr/include/util/delay.h ****    implementations.  In order to get functionality backward compatible
 157:/usr/lib/avr/include/util/delay.h ****    with previous versions, the macro \c "__DELAY_BACKWARD_COMPATIBLE__"
 158:/usr/lib/avr/include/util/delay.h ****    must be defined before including this header file. Also, the
 159:/usr/lib/avr/include/util/delay.h ****    backward compatible algorithm will be chosen if the code is
 160:/usr/lib/avr/include/util/delay.h ****    compiled in a <em>freestanding environment</em> (GCC option
 161:/usr/lib/avr/include/util/delay.h ****    \c -ffreestanding), as the math functions required for rounding are
 162:/usr/lib/avr/include/util/delay.h ****    not available to the compiler then.
 163:/usr/lib/avr/include/util/delay.h **** 
 164:/usr/lib/avr/include/util/delay.h ****  */
 165:/usr/lib/avr/include/util/delay.h **** void
 166:/usr/lib/avr/include/util/delay.h **** _delay_ms(double __ms)
 167:/usr/lib/avr/include/util/delay.h **** {
 168:/usr/lib/avr/include/util/delay.h **** 	double __tmp ;
 169:/usr/lib/avr/include/util/delay.h **** #if __HAS_DELAY_CYCLES && defined(__OPTIMIZE__) && \
 170:/usr/lib/avr/include/util/delay.h ****   !defined(__DELAY_BACKWARD_COMPATIBLE__) &&	   \
 171:/usr/lib/avr/include/util/delay.h ****   __STDC_HOSTED__
 172:/usr/lib/avr/include/util/delay.h **** 	uint32_t __ticks_dc;
 173:/usr/lib/avr/include/util/delay.h **** 	extern void __builtin_avr_delay_cycles(unsigned long);
 174:/usr/lib/avr/include/util/delay.h **** 	__tmp = ((F_CPU) / 1e3) * __ms;
 175:/usr/lib/avr/include/util/delay.h **** 
 176:/usr/lib/avr/include/util/delay.h **** 	#if defined(__DELAY_ROUND_DOWN__)
 177:/usr/lib/avr/include/util/delay.h **** 		__ticks_dc = (uint32_t)fabs(__tmp);
 178:/usr/lib/avr/include/util/delay.h **** 
 179:/usr/lib/avr/include/util/delay.h **** 	#elif defined(__DELAY_ROUND_CLOSEST__)
 180:/usr/lib/avr/include/util/delay.h **** 		__ticks_dc = (uint32_t)(fabs(__tmp)+0.5);
 181:/usr/lib/avr/include/util/delay.h **** 
 182:/usr/lib/avr/include/util/delay.h **** 	#else
 183:/usr/lib/avr/include/util/delay.h **** 		//round up by default
 184:/usr/lib/avr/include/util/delay.h **** 		__ticks_dc = (uint32_t)(ceil(fabs(__tmp)));
 185:/usr/lib/avr/include/util/delay.h **** 	#endif
 186:/usr/lib/avr/include/util/delay.h **** 
 187:/usr/lib/avr/include/util/delay.h **** 	__builtin_avr_delay_cycles(__ticks_dc);
 188:/usr/lib/avr/include/util/delay.h **** 
 189:/usr/lib/avr/include/util/delay.h **** #else
 190:/usr/lib/avr/include/util/delay.h **** 	uint16_t __ticks;
 191:/usr/lib/avr/include/util/delay.h **** 	__tmp = ((F_CPU) / 4e3) * __ms;
 192:/usr/lib/avr/include/util/delay.h **** 	if (__tmp < 1.0)
 193:/usr/lib/avr/include/util/delay.h **** 		__ticks = 1;
 194:/usr/lib/avr/include/util/delay.h **** 	else if (__tmp > 65535)
 195:/usr/lib/avr/include/util/delay.h **** 	{
 196:/usr/lib/avr/include/util/delay.h **** 		//	__ticks = requested delay in 1/10 ms
 197:/usr/lib/avr/include/util/delay.h **** 		__ticks = (uint16_t) (__ms * 10.0);
 198:/usr/lib/avr/include/util/delay.h **** 		while(__ticks)
 199:/usr/lib/avr/include/util/delay.h **** 		{
 200:/usr/lib/avr/include/util/delay.h **** 			// wait 1/10 ms
 201:/usr/lib/avr/include/util/delay.h **** 			_delay_loop_2(((F_CPU) / 4e3) / 10);
 202:/usr/lib/avr/include/util/delay.h **** 			__ticks --;
 203:/usr/lib/avr/include/util/delay.h **** 		}
 204:/usr/lib/avr/include/util/delay.h **** 		return;
 205:/usr/lib/avr/include/util/delay.h **** 	}
 206:/usr/lib/avr/include/util/delay.h **** 	else
 207:/usr/lib/avr/include/util/delay.h **** 		__ticks = (uint16_t)__tmp;
 208:/usr/lib/avr/include/util/delay.h **** 	_delay_loop_2(__ticks);
 209:/usr/lib/avr/include/util/delay.h **** #endif
 210:/usr/lib/avr/include/util/delay.h **** }
 211:/usr/lib/avr/include/util/delay.h **** 
 212:/usr/lib/avr/include/util/delay.h **** /**
 213:/usr/lib/avr/include/util/delay.h ****    \ingroup util_delay
 214:/usr/lib/avr/include/util/delay.h **** 
 215:/usr/lib/avr/include/util/delay.h ****    Perform a delay of \c __us microseconds, using _delay_loop_1().
 216:/usr/lib/avr/include/util/delay.h **** 
 217:/usr/lib/avr/include/util/delay.h ****    The macro F_CPU is supposed to be defined to a
 218:/usr/lib/avr/include/util/delay.h ****    constant defining the CPU clock frequency (in Hertz).
 219:/usr/lib/avr/include/util/delay.h **** 
 220:/usr/lib/avr/include/util/delay.h ****    The maximal possible delay is 768 us / F_CPU in MHz.
 221:/usr/lib/avr/include/util/delay.h **** 
 222:/usr/lib/avr/include/util/delay.h ****    If the user requests a delay greater than the maximal possible one,
 223:/usr/lib/avr/include/util/delay.h ****    _delay_us() will automatically call _delay_ms() instead.  The user
 224:/usr/lib/avr/include/util/delay.h ****    will not be informed about this case.
 225:/usr/lib/avr/include/util/delay.h **** 
 226:/usr/lib/avr/include/util/delay.h ****    If the avr-gcc toolchain has __builtin_avr_delay_cycles()
 227:/usr/lib/avr/include/util/delay.h ****    support, maximal possible delay is 4294967.295 us/ F_CPU in MHz. For
 228:/usr/lib/avr/include/util/delay.h ****    values greater than the maximal possible delay, overflow results in
 229:/usr/lib/avr/include/util/delay.h ****    no delay i.e., 0us.
 230:/usr/lib/avr/include/util/delay.h **** 
 231:/usr/lib/avr/include/util/delay.h ****    Conversion of \c __us into clock cycles may not always result in
 232:/usr/lib/avr/include/util/delay.h ****    integer.  By default, the clock cycles rounded up to next
 233:/usr/lib/avr/include/util/delay.h ****    integer. This ensures that the user gets at least \c __us
 234:/usr/lib/avr/include/util/delay.h ****    microseconds of delay.
 235:/usr/lib/avr/include/util/delay.h **** 
 236:/usr/lib/avr/include/util/delay.h ****    Alternatively, by defining the macro \c __DELAY_ROUND_DOWN__, or
 237:/usr/lib/avr/include/util/delay.h ****    \c __DELAY_ROUND_CLOSEST__, before including this header file, the
 238:/usr/lib/avr/include/util/delay.h ****    algorithm can be made to round down, or round to closest integer,
 239:/usr/lib/avr/include/util/delay.h ****    respectively.
 240:/usr/lib/avr/include/util/delay.h **** 
 241:/usr/lib/avr/include/util/delay.h ****    \note
 242:/usr/lib/avr/include/util/delay.h **** 
 243:/usr/lib/avr/include/util/delay.h ****    The implementation of _delay_ms() based on
 244:/usr/lib/avr/include/util/delay.h ****    __builtin_avr_delay_cycles() is not backward compatible with older
 245:/usr/lib/avr/include/util/delay.h ****    implementations.  In order to get functionality backward compatible
 246:/usr/lib/avr/include/util/delay.h ****    with previous versions, the macro \c __DELAY_BACKWARD_COMPATIBLE__
 247:/usr/lib/avr/include/util/delay.h ****    must be defined before including this header file. Also, the
 248:/usr/lib/avr/include/util/delay.h ****    backward compatible algorithm will be chosen if the code is
 249:/usr/lib/avr/include/util/delay.h ****    compiled in a <em>freestanding environment</em> (GCC option
 250:/usr/lib/avr/include/util/delay.h ****    \c -ffreestanding), as the math functions required for rounding are
 251:/usr/lib/avr/include/util/delay.h ****    not available to the compiler then.
 252:/usr/lib/avr/include/util/delay.h **** 
 253:/usr/lib/avr/include/util/delay.h ****  */
 254:/usr/lib/avr/include/util/delay.h **** void
 255:/usr/lib/avr/include/util/delay.h **** _delay_us(double __us)
 256:/usr/lib/avr/include/util/delay.h **** {
 257:/usr/lib/avr/include/util/delay.h **** 	double __tmp ;
 258:/usr/lib/avr/include/util/delay.h **** #if __HAS_DELAY_CYCLES && defined(__OPTIMIZE__) && \
 259:/usr/lib/avr/include/util/delay.h ****   !defined(__DELAY_BACKWARD_COMPATIBLE__) &&	   \
 260:/usr/lib/avr/include/util/delay.h ****   __STDC_HOSTED__
 261:/usr/lib/avr/include/util/delay.h **** 	uint32_t __ticks_dc;
 262:/usr/lib/avr/include/util/delay.h **** 	extern void __builtin_avr_delay_cycles(unsigned long);
 263:/usr/lib/avr/include/util/delay.h **** 	__tmp = ((F_CPU) / 1e6) * __us;
 264:/usr/lib/avr/include/util/delay.h **** 
 265:/usr/lib/avr/include/util/delay.h **** 	#if defined(__DELAY_ROUND_DOWN__)
 266:/usr/lib/avr/include/util/delay.h **** 		__ticks_dc = (uint32_t)fabs(__tmp);
 267:/usr/lib/avr/include/util/delay.h **** 
 268:/usr/lib/avr/include/util/delay.h **** 	#elif defined(__DELAY_ROUND_CLOSEST__)
 269:/usr/lib/avr/include/util/delay.h **** 		__ticks_dc = (uint32_t)(fabs(__tmp)+0.5);
 270:/usr/lib/avr/include/util/delay.h **** 
 271:/usr/lib/avr/include/util/delay.h **** 	#else
 272:/usr/lib/avr/include/util/delay.h **** 		//round up by default
 273:/usr/lib/avr/include/util/delay.h **** 		__ticks_dc = (uint32_t)(ceil(fabs(__tmp)));
 274:/usr/lib/avr/include/util/delay.h **** 	#endif
 275:/usr/lib/avr/include/util/delay.h **** 
 276:/usr/lib/avr/include/util/delay.h **** 	__builtin_avr_delay_cycles(__ticks_dc);
 703               		.stabn	68,0,276,.LM92-.LFBB9
 704               	.LM92:
 705 01fa 95E0      		ldi r25,lo8(5)
 706 01fc 9A95      	1:	dec r25
 707 01fe 01F4      		brne 1b
 708 0200 0000      		nop
 709 0202 28E0      		ldi r18,lo8(8)
 710 0204 30E0      		ldi r19,0
 711               	.L62:
 712               	.LBE124:
 713               	.LBE123:
 714               	.LBB125:
 715               		.stabs	"/home/student/avr_src/SimulIDE_1.0.0-SR1_Lin64/Timer/Timer.c",132,0,0,.Ltext2
 716               	.Ltext2:
 632:/home/student/avr_src/SimulIDE_1.0.0-SR1_Lin64/Timer/Timer.c **** 
 633:/home/student/avr_src/SimulIDE_1.0.0-SR1_Lin64/Timer/Timer.c **** 	_delay_us(1);
 634:/home/student/avr_src/SimulIDE_1.0.0-SR1_Lin64/Timer/Timer.c **** 	for(int i = 0; i <8; i++){
 635:/home/student/avr_src/SimulIDE_1.0.0-SR1_Lin64/Timer/Timer.c **** 		
 636:/home/student/avr_src/SimulIDE_1.0.0-SR1_Lin64/Timer/Timer.c **** 		if(byte & 0x80) AT24Cxx_SDA_HIGH(); //MSB
 717               		.stabn	68,0,636,.LM93-.LFBB9
 718               	.LM93:
 719 0206 87FF      		sbrs r24,7
 720 0208 00C0      		rjmp .L60
 721               		.stabn	68,0,636,.LM94-.LFBB9
 722               	.LM94:
 723 020a 2C9A      		sbi 0x5,4
 724 020c 00C0      		rjmp .L61
 725               	.L60:
 637:/home/student/avr_src/SimulIDE_1.0.0-SR1_Lin64/Timer/Timer.c **** 		else AT24Cxx_SDA_LOW(); //Clear
 726               		.stabn	68,0,637,.LM95-.LFBB9
 727               	.LM95:
 728 020e 2C98      		cbi 0x5,4
 729               	.L61:
 638:/home/student/avr_src/SimulIDE_1.0.0-SR1_Lin64/Timer/Timer.c **** 		
 639:/home/student/avr_src/SimulIDE_1.0.0-SR1_Lin64/Timer/Timer.c **** 		AT24Cxx_SCL_HIGH(); //clock data
 730               		.stabn	68,0,639,.LM96-.LFBB9
 731               	.LM96:
 732 0210 2D9A      		sbi 0x5,5
 640:/home/student/avr_src/SimulIDE_1.0.0-SR1_Lin64/Timer/Timer.c **** 		byte = byte << 1;
 733               		.stabn	68,0,640,.LM97-.LFBB9
 734               	.LM97:
 735 0212 880F      		lsl r24
 736               	.LBB126:
 737               	.LBB127:
 738               		.stabs	"/usr/lib/avr/include/util/delay.h",132,0,0,.Ltext3
 739               	.Ltext3:
 740               		.stabn	68,0,276,.LM98-.LFBB9
 741               	.LM98:
 742 0214 95E0      		ldi r25,lo8(5)
 743 0216 9A95      	1:	dec r25
 744 0218 01F4      		brne 1b
 745 021a 0000      		nop
 746               	.LBE127:
 747               	.LBE126:
 748               		.stabs	"/home/student/avr_src/SimulIDE_1.0.0-SR1_Lin64/Timer/Timer.c",132,0,0,.Ltext4
 749               	.Ltext4:
 641:/home/student/avr_src/SimulIDE_1.0.0-SR1_Lin64/Timer/Timer.c **** 		_delay_us(1);
 642:/home/student/avr_src/SimulIDE_1.0.0-SR1_Lin64/Timer/Timer.c **** 		AT24Cxx_SCL_LOW();
 750               		.stabn	68,0,642,.LM99-.LFBB9
 751               	.LM99:
 752 021c 2D98      		cbi 0x5,5
 753               	.LBB128:
 754               	.LBB129:
 755               		.stabs	"/usr/lib/avr/include/util/delay.h",132,0,0,.Ltext5
 756               	.Ltext5:
 757               		.stabn	68,0,276,.LM100-.LFBB9
 758               	.LM100:
 759 021e 95E0      		ldi r25,lo8(5)
 760 0220 9A95      	1:	dec r25
 761 0222 01F4      		brne 1b
 762 0224 0000      		nop
 763 0226 2150      		subi r18,1
 764 0228 3109      		sbc r19,__zero_reg__
 765               	.LBE129:
 766               	.LBE128:
 767               		.stabs	"/home/student/avr_src/SimulIDE_1.0.0-SR1_Lin64/Timer/Timer.c",132,0,0,.Ltext6
 768               	.Ltext6:
 634:/home/student/avr_src/SimulIDE_1.0.0-SR1_Lin64/Timer/Timer.c **** 		
 769               		.stabn	68,0,634,.LM101-.LFBB9
 770               	.LM101:
 771 022a 01F4      		brne .L62
 772               	.LBE125:
 643:/home/student/avr_src/SimulIDE_1.0.0-SR1_Lin64/Timer/Timer.c **** 		_delay_us(1);
 644:/home/student/avr_src/SimulIDE_1.0.0-SR1_Lin64/Timer/Timer.c **** 		
 645:/home/student/avr_src/SimulIDE_1.0.0-SR1_Lin64/Timer/Timer.c **** 	}
 646:/home/student/avr_src/SimulIDE_1.0.0-SR1_Lin64/Timer/Timer.c **** 	AT24Cxx_SDA_LOW();
 773               		.stabn	68,0,646,.LM102-.LFBB9
 774               	.LM102:
 775 022c 2C98      		cbi 0x5,4
 776               	.LBB130:
 777               	.LBB131:
 778               		.stabs	"/usr/lib/avr/include/util/delay.h",132,0,0,.Ltext7
 779               	.Ltext7:
 780               		.stabn	68,0,276,.LM103-.LFBB9
 781               	.LM103:
 782 022e 85E0      		ldi r24,lo8(5)
 783 0230 8A95      	1:	dec r24
 784 0232 01F4      		brne 1b
 785 0234 0000      		nop
 786               	.LBE131:
 787               	.LBE130:
 788               		.stabs	"/home/student/avr_src/SimulIDE_1.0.0-SR1_Lin64/Timer/Timer.c",132,0,0,.Ltext8
 789               	.Ltext8:
 647:/home/student/avr_src/SimulIDE_1.0.0-SR1_Lin64/Timer/Timer.c **** 	_delay_us(1);
 648:/home/student/avr_src/SimulIDE_1.0.0-SR1_Lin64/Timer/Timer.c **** 	AT24Cxx_SCL_HIGH();
 790               		.stabn	68,0,648,.LM104-.LFBB9
 791               	.LM104:
 792 0236 2D9A      		sbi 0x5,5
 793               	.LBB132:
 794               	.LBB133:
 795               		.stabs	"/usr/lib/avr/include/util/delay.h",132,0,0,.Ltext9
 796               	.Ltext9:
 797               		.stabn	68,0,276,.LM105-.LFBB9
 798               	.LM105:
 799 0238 95E0      		ldi r25,lo8(5)
 800 023a 9A95      	1:	dec r25
 801 023c 01F4      		brne 1b
 802 023e 0000      		nop
 803               	.LBE133:
 804               	.LBE132:
 805               		.stabs	"/home/student/avr_src/SimulIDE_1.0.0-SR1_Lin64/Timer/Timer.c",132,0,0,.Ltext10
 806               	.Ltext10:
 649:/home/student/avr_src/SimulIDE_1.0.0-SR1_Lin64/Timer/Timer.c **** 	_delay_us(1);
 650:/home/student/avr_src/SimulIDE_1.0.0-SR1_Lin64/Timer/Timer.c **** 	AT24Cxx_SCL_LOW();
 807               		.stabn	68,0,650,.LM106-.LFBB9
 808               	.LM106:
 809 0240 2D98      		cbi 0x5,5
 810 0242 0895      		ret
 811               		.size	write_AT24Cxx_i2c_LCDAddressing, .-write_AT24Cxx_i2c_LCDAddressing
 812               	.Lscope9:
 813               		.stabs	"",36,0,0,.Lscope9-.LFBB9
 814               		.stabd	78,0,0
 815               		.stabs	"AT24Cxx_i2c_start:F(0,49)",36,0,652,AT24Cxx_i2c_start
 816               	.global	AT24Cxx_i2c_start
 817               		.type	AT24Cxx_i2c_start, @function
 818               	AT24Cxx_i2c_start:
 819               		.stabd	46,0,0
 651:/home/student/avr_src/SimulIDE_1.0.0-SR1_Lin64/Timer/Timer.c **** }
 652:/home/student/avr_src/SimulIDE_1.0.0-SR1_Lin64/Timer/Timer.c **** void AT24Cxx_i2c_start(void) { //start condition
 820               		.stabn	68,0,652,.LM107-.LFBB10
 821               	.LM107:
 822               	.LFBB10:
 823               	/* prologue: function */
 824               	/* frame size = 0 */
 825               	/* stack size = 0 */
 826               	.L__stack_usage = 0
 653:/home/student/avr_src/SimulIDE_1.0.0-SR1_Lin64/Timer/Timer.c **** 
 654:/home/student/avr_src/SimulIDE_1.0.0-SR1_Lin64/Timer/Timer.c **** 	AT24Cxx_SDA_LOW(); //clear SDA
 827               		.stabn	68,0,654,.LM108-.LFBB10
 828               	.LM108:
 829 0244 2C98      		cbi 0x5,4
 830               	.LBB134:
 831               	.LBB135:
 832               		.stabs	"/usr/lib/avr/include/util/delay.h",132,0,0,.Ltext11
 833               	.Ltext11:
 834               		.stabn	68,0,276,.LM109-.LFBB10
 835               	.LM109:
 836 0246 85E0      		ldi r24,lo8(5)
 837 0248 8A95      	1:	dec r24
 838 024a 01F4      		brne 1b
 839 024c 0000      		nop
 840               	.LBE135:
 841               	.LBE134:
 842               		.stabs	"/home/student/avr_src/SimulIDE_1.0.0-SR1_Lin64/Timer/Timer.c",132,0,0,.Ltext12
 843               	.Ltext12:
 655:/home/student/avr_src/SimulIDE_1.0.0-SR1_Lin64/Timer/Timer.c **** 	_delay_us(1);
 656:/home/student/avr_src/SimulIDE_1.0.0-SR1_Lin64/Timer/Timer.c **** 	AT24Cxx_SCL_LOW();
 844               		.stabn	68,0,656,.LM110-.LFBB10
 845               	.LM110:
 846 024e 2D98      		cbi 0x5,5
 847               	.LBB136:
 848               	.LBB137:
 849               		.stabs	"/usr/lib/avr/include/util/delay.h",132,0,0,.Ltext13
 850               	.Ltext13:
 851               		.stabn	68,0,276,.LM111-.LFBB10
 852               	.LM111:
 853 0250 85E0      		ldi r24,lo8(5)
 854 0252 8A95      	1:	dec r24
 855 0254 01F4      		brne 1b
 856 0256 0000      		nop
 857 0258 0895      		ret
 858               	.LBE137:
 859               	.LBE136:
 860               		.size	AT24Cxx_i2c_start, .-AT24Cxx_i2c_start
 861               	.Lscope10:
 862               		.stabs	"",36,0,0,.Lscope10-.LFBB10
 863               		.stabd	78,0,0
 864               		.stabs	"AT24Cxx_ACK_send:F(0,49)",36,0,660,AT24Cxx_ACK_send
 865               		.stabs	"ack_data:P(0,13)",64,0,660,24
 866               	.global	AT24Cxx_ACK_send
 867               		.type	AT24Cxx_ACK_send, @function
 868               	AT24Cxx_ACK_send:
 869               		.stabd	46,0,0
 870               		.stabs	"/home/student/avr_src/SimulIDE_1.0.0-SR1_Lin64/Timer/Timer.c",132,0,0,.Ltext14
 871               	.Ltext14:
 657:/home/student/avr_src/SimulIDE_1.0.0-SR1_Lin64/Timer/Timer.c **** 	_delay_us(1);
 658:/home/student/avr_src/SimulIDE_1.0.0-SR1_Lin64/Timer/Timer.c **** }
 659:/home/student/avr_src/SimulIDE_1.0.0-SR1_Lin64/Timer/Timer.c **** 
 660:/home/student/avr_src/SimulIDE_1.0.0-SR1_Lin64/Timer/Timer.c **** void AT24Cxx_ACK_send(unsigned char ack_data){
 872               		.stabn	68,0,660,.LM112-.LFBB11
 873               	.LM112:
 874               	.LFBB11:
 875               	/* prologue: function */
 876               	/* frame size = 0 */
 877               	/* stack size = 0 */
 878               	.L__stack_usage = 0
 879               	.LBB138:
 880               	.LBB139:
 881               		.stabs	"/usr/lib/avr/include/util/delay.h",132,0,0,.Ltext15
 882               	.Ltext15:
 883               		.stabn	68,0,276,.LM113-.LFBB11
 884               	.LM113:
 885 025a 95E0      		ldi r25,lo8(5)
 886 025c 9A95      	1:	dec r25
 887 025e 01F4      		brne 1b
 888 0260 0000      		nop
 889               	.LBE139:
 890               	.LBE138:
 891               		.stabs	"/home/student/avr_src/SimulIDE_1.0.0-SR1_Lin64/Timer/Timer.c",132,0,0,.Ltext16
 892               	.Ltext16:
 661:/home/student/avr_src/SimulIDE_1.0.0-SR1_Lin64/Timer/Timer.c **** 	_delay_us(1);
 662:/home/student/avr_src/SimulIDE_1.0.0-SR1_Lin64/Timer/Timer.c **** 	if(ack_data) AT24Cxx_SDA_HIGH(); //NACK
 893               		.stabn	68,0,662,.LM114-.LFBB11
 894               	.LM114:
 895 0262 8823      		tst r24
 896 0264 01F0      		breq .L66
 897               		.stabn	68,0,662,.LM115-.LFBB11
 898               	.LM115:
 899 0266 2C9A      		sbi 0x5,4
 900 0268 00C0      		rjmp .L67
 901               	.L66:
 663:/home/student/avr_src/SimulIDE_1.0.0-SR1_Lin64/Timer/Timer.c **** 	else AT24Cxx_SDA_LOW(); //ACK
 902               		.stabn	68,0,663,.LM116-.LFBB11
 903               	.LM116:
 904 026a 2C98      		cbi 0x5,4
 905               	.L67:
 906               	.LBB140:
 907               	.LBB141:
 908               		.stabs	"/usr/lib/avr/include/util/delay.h",132,0,0,.Ltext17
 909               	.Ltext17:
 910               		.stabn	68,0,276,.LM117-.LFBB11
 911               	.LM117:
 912 026c 85E0      		ldi r24,lo8(5)
 913 026e 8A95      	1:	dec r24
 914 0270 01F4      		brne 1b
 915 0272 0000      		nop
 916               	.LBE141:
 917               	.LBE140:
 918               		.stabs	"/home/student/avr_src/SimulIDE_1.0.0-SR1_Lin64/Timer/Timer.c",132,0,0,.Ltext18
 919               	.Ltext18:
 664:/home/student/avr_src/SimulIDE_1.0.0-SR1_Lin64/Timer/Timer.c **** 	_delay_us(1);
 665:/home/student/avr_src/SimulIDE_1.0.0-SR1_Lin64/Timer/Timer.c **** 	AT24Cxx_SDA_OUT(); //set SDA to Output
 920               		.stabn	68,0,665,.LM118-.LFBB11
 921               	.LM118:
 922 0274 249A      		sbi 0x4,4
 923               	.LBB142:
 924               	.LBB143:
 925               		.stabs	"/usr/lib/avr/include/util/delay.h",132,0,0,.Ltext19
 926               	.Ltext19:
 927               		.stabn	68,0,276,.LM119-.LFBB11
 928               	.LM119:
 929 0276 95E0      		ldi r25,lo8(5)
 930 0278 9A95      	1:	dec r25
 931 027a 01F4      		brne 1b
 932 027c 0000      		nop
 933               	.LBE143:
 934               	.LBE142:
 935               		.stabs	"/home/student/avr_src/SimulIDE_1.0.0-SR1_Lin64/Timer/Timer.c",132,0,0,.Ltext20
 936               	.Ltext20:
 666:/home/student/avr_src/SimulIDE_1.0.0-SR1_Lin64/Timer/Timer.c **** 	_delay_us(1);
 667:/home/student/avr_src/SimulIDE_1.0.0-SR1_Lin64/Timer/Timer.c **** 	AT24Cxx_SCL_HIGH(); //9th clk rising edge
 937               		.stabn	68,0,667,.LM120-.LFBB11
 938               	.LM120:
 939 027e 2D9A      		sbi 0x5,5
 940               	.LBB144:
 941               	.LBB145:
 942               		.stabs	"/usr/lib/avr/include/util/delay.h",132,0,0,.Ltext21
 943               	.Ltext21:
 944               		.stabn	68,0,276,.LM121-.LFBB11
 945               	.LM121:
 946 0280 85E0      		ldi r24,lo8(5)
 947 0282 8A95      	1:	dec r24
 948 0284 01F4      		brne 1b
 949 0286 0000      		nop
 950               	.LBE145:
 951               	.LBE144:
 952               		.stabs	"/home/student/avr_src/SimulIDE_1.0.0-SR1_Lin64/Timer/Timer.c",132,0,0,.Ltext22
 953               	.Ltext22:
 668:/home/student/avr_src/SimulIDE_1.0.0-SR1_Lin64/Timer/Timer.c **** 	_delay_us(1);
 669:/home/student/avr_src/SimulIDE_1.0.0-SR1_Lin64/Timer/Timer.c **** 	AT24Cxx_SCL_LOW();
 954               		.stabn	68,0,669,.LM122-.LFBB11
 955               	.LM122:
 956 0288 2D98      		cbi 0x5,5
 957 028a 0895      		ret
 958               		.size	AT24Cxx_ACK_send, .-AT24Cxx_ACK_send
 959               	.Lscope11:
 960               		.stabs	"",36,0,0,.Lscope11-.LFBB11
 961               		.stabd	78,0,0
 962               		.stabs	"AT24Cxx_i2c_stop:F(0,49)",36,0,671,AT24Cxx_i2c_stop
 963               	.global	AT24Cxx_i2c_stop
 964               		.type	AT24Cxx_i2c_stop, @function
 965               	AT24Cxx_i2c_stop:
 966               		.stabd	46,0,0
 670:/home/student/avr_src/SimulIDE_1.0.0-SR1_Lin64/Timer/Timer.c **** }
 671:/home/student/avr_src/SimulIDE_1.0.0-SR1_Lin64/Timer/Timer.c **** void AT24Cxx_i2c_stop(void){
 967               		.stabn	68,0,671,.LM123-.LFBB12
 968               	.LM123:
 969               	.LFBB12:
 970               	/* prologue: function */
 971               	/* frame size = 0 */
 972               	/* stack size = 0 */
 973               	.L__stack_usage = 0
 672:/home/student/avr_src/SimulIDE_1.0.0-SR1_Lin64/Timer/Timer.c **** 	//AT24Cxx_SDA_OUT(); //set SDA to output
 673:/home/student/avr_src/SimulIDE_1.0.0-SR1_Lin64/Timer/Timer.c **** 	AT24Cxx_SDA_LOW(); //clear SDA
 974               		.stabn	68,0,673,.LM124-.LFBB12
 975               	.LM124:
 976 028c 2C98      		cbi 0x5,4
 977               	.LBB146:
 978               	.LBB147:
 979               		.stabs	"/usr/lib/avr/include/util/delay.h",132,0,0,.Ltext23
 980               	.Ltext23:
 981               		.stabn	68,0,276,.LM125-.LFBB12
 982               	.LM125:
 983 028e 85E0      		ldi r24,lo8(5)
 984 0290 8A95      	1:	dec r24
 985 0292 01F4      		brne 1b
 986 0294 0000      		nop
 987               	.LBE147:
 988               	.LBE146:
 989               		.stabs	"/home/student/avr_src/SimulIDE_1.0.0-SR1_Lin64/Timer/Timer.c",132,0,0,.Ltext24
 990               	.Ltext24:
 674:/home/student/avr_src/SimulIDE_1.0.0-SR1_Lin64/Timer/Timer.c **** 	
 675:/home/student/avr_src/SimulIDE_1.0.0-SR1_Lin64/Timer/Timer.c **** 	_delay_us(1);
 676:/home/student/avr_src/SimulIDE_1.0.0-SR1_Lin64/Timer/Timer.c **** 	AT24Cxx_SCL_HIGH(); // set SCL High
 991               		.stabn	68,0,676,.LM126-.LFBB12
 992               	.LM126:
 993 0296 2D9A      		sbi 0x5,5
 994               	.LBB148:
 995               	.LBB149:
 996               		.stabs	"/usr/lib/avr/include/util/delay.h",132,0,0,.Ltext25
 997               	.Ltext25:
 998               		.stabn	68,0,276,.LM127-.LFBB12
 999               	.LM127:
 1000 0298 85E0      		ldi r24,lo8(5)
 1001 029a 8A95      	1:	dec r24
 1002 029c 01F4      		brne 1b
 1003 029e 0000      		nop
 1004               	.LBE149:
 1005               	.LBE148:
 1006               		.stabs	"/home/student/avr_src/SimulIDE_1.0.0-SR1_Lin64/Timer/Timer.c",132,0,0,.Ltext26
 1007               	.Ltext26:
 677:/home/student/avr_src/SimulIDE_1.0.0-SR1_Lin64/Timer/Timer.c **** 	_delay_us(1);
 678:/home/student/avr_src/SimulIDE_1.0.0-SR1_Lin64/Timer/Timer.c **** 	AT24Cxx_SDA_HIGH(); // set SDA High
 1008               		.stabn	68,0,678,.LM128-.LFBB12
 1009               	.LM128:
 1010 02a0 2C9A      		sbi 0x5,4
 1011 02a2 0895      		ret
 1012               		.size	AT24Cxx_i2c_stop, .-AT24Cxx_i2c_stop
 1013               	.Lscope12:
 1014               		.stabs	"",36,0,0,.Lscope12-.LFBB12
 1015               		.stabd	78,0,0
 1016               		.stabs	"write_AT24Cxx_i2c_byte:F(0,49)",36,0,680,write_AT24Cxx_i2c_byte
 1017               		.stabs	"byte:P(0,13)",64,0,680,24
 1018               	.global	write_AT24Cxx_i2c_byte
 1019               		.type	write_AT24Cxx_i2c_byte, @function
 1020               	write_AT24Cxx_i2c_byte:
 1021               		.stabd	46,0,0
 679:/home/student/avr_src/SimulIDE_1.0.0-SR1_Lin64/Timer/Timer.c **** }
 680:/home/student/avr_src/SimulIDE_1.0.0-SR1_Lin64/Timer/Timer.c **** void write_AT24Cxx_i2c_byte(unsigned char byte){
 1022               		.stabn	68,0,680,.LM129-.LFBB13
 1023               	.LM129:
 1024               	.LFBB13:
 1025               	/* prologue: function */
 1026               	/* frame size = 0 */
 1027               	/* stack size = 0 */
 1028               	.L__stack_usage = 0
 1029               	.LBB150:
 1030               	.LBB151:
 1031               		.stabs	"/usr/lib/avr/include/util/delay.h",132,0,0,.Ltext27
 1032               	.Ltext27:
 1033               		.stabn	68,0,276,.LM130-.LFBB13
 1034               	.LM130:
 1035 02a4 95E0      		ldi r25,lo8(5)
 1036 02a6 9A95      	1:	dec r25
 1037 02a8 01F4      		brne 1b
 1038 02aa 0000      		nop
 1039               	.LBE151:
 1040               	.LBE150:
 1041               		.stabs	"/home/student/avr_src/SimulIDE_1.0.0-SR1_Lin64/Timer/Timer.c",132,0,0,.Ltext28
 1042               	.Ltext28:
 681:/home/student/avr_src/SimulIDE_1.0.0-SR1_Lin64/Timer/Timer.c **** 	_delay_us(1);
 682:/home/student/avr_src/SimulIDE_1.0.0-SR1_Lin64/Timer/Timer.c **** 	if(!(byte & E_BIT)) byte |= E_BIT;
 1043               		.stabn	68,0,682,.LM131-.LFBB13
 1044               	.LM131:
 1045 02ac 8460      		ori r24,lo8(4)
 683:/home/student/avr_src/SimulIDE_1.0.0-SR1_Lin64/Timer/Timer.c **** 	if(!(byte & B_BIT)) byte |= B_BIT;
 1046               		.stabn	68,0,683,.LM132-.LFBB13
 1047               	.LM132:
 1048 02ae 8860      		ori r24,lo8(8)
 684:/home/student/avr_src/SimulIDE_1.0.0-SR1_Lin64/Timer/Timer.c **** 	write_AT24Cxx_i2c_LCDAddressing(byte);
 1049               		.stabn	68,0,684,.LM133-.LFBB13
 1050               	.LM133:
 1051 02b0 0C94 0000 		jmp write_AT24Cxx_i2c_LCDAddressing
 1052               		.size	write_AT24Cxx_i2c_byte, .-write_AT24Cxx_i2c_byte
 1053               	.Lscope13:
 1054               		.stabs	"",36,0,0,.Lscope13-.LFBB13
 1055               		.stabd	78,0,0
 1056               		.stabs	"LCD_Write:F(0,49)",36,0,586,LCD_Write
 1057               		.stabs	"data:P(0,13)",64,0,586,24
 1058               	.global	LCD_Write
 1059               		.type	LCD_Write, @function
 1060               	LCD_Write:
 1061               		.stabd	46,0,0
 586:/home/student/avr_src/SimulIDE_1.0.0-SR1_Lin64/Timer/Timer.c **** 	
 1062               		.stabn	68,0,586,.LM134-.LFBB14
 1063               	.LM134:
 1064               	.LFBB14:
 1065               	/* prologue: function */
 1066               	/* frame size = 0 */
 1067               	/* stack size = 0 */
 1068               	.L__stack_usage = 0
 1069               	.LBB152:
 1070               	.LBB153:
 1071               		.stabs	"/usr/lib/avr/include/util/delay.h",132,0,0,.Ltext29
 1072               	.Ltext29:
 1073               		.stabn	68,0,276,.LM135-.LFBB14
 1074               	.LM135:
 1075 02b4 95E0      		ldi r25,lo8(5)
 1076 02b6 9A95      	1:	dec r25
 1077 02b8 01F4      		brne 1b
 1078 02ba 0000      		nop
 1079               	.LBE153:
 1080               	.LBE152:
 1081               		.stabs	"/home/student/avr_src/SimulIDE_1.0.0-SR1_Lin64/Timer/Timer.c",132,0,0,.Ltext30
 1082               	.Ltext30:
 592:/home/student/avr_src/SimulIDE_1.0.0-SR1_Lin64/Timer/Timer.c **** 
 1083               		.stabn	68,0,592,.LM136-.LFBB14
 1084               	.LM136:
 1085 02bc 0C94 0000 		jmp write_AT24Cxx_i2c_byte
 1086               		.size	LCD_Write, .-LCD_Write
 1087               	.Lscope14:
 1088               		.stabs	"",36,0,0,.Lscope14-.LFBB14
 1089               		.stabd	78,0,0
 1090               		.stabs	"I2C_LCD_init:F(0,49)",36,0,190,I2C_LCD_init
 1091               		.stabs	"address:P(0,13)",64,0,190,28
 1092               	.global	I2C_LCD_init
 1093               		.type	I2C_LCD_init, @function
 1094               	I2C_LCD_init:
 1095               		.stabd	46,0,0
 190:/home/student/avr_src/SimulIDE_1.0.0-SR1_Lin64/Timer/Timer.c **** 	cli();
 1096               		.stabn	68,0,190,.LM137-.LFBB15
 1097               	.LM137:
 1098               	.LFBB15:
 1099 02c0 CF93      		push r28
 1100               	/* prologue: function */
 1101               	/* frame size = 0 */
 1102               	/* stack size = 1 */
 1103               	.L__stack_usage = 1
 1104 02c2 C82F      		mov r28,r24
 191:/home/student/avr_src/SimulIDE_1.0.0-SR1_Lin64/Timer/Timer.c **** 
 1105               		.stabn	68,0,191,.LM138-.LFBB15
 1106               	.LM138:
 1107               	/* #APP */
 1108               	 ;  191 "/home/student/avr_src/SimulIDE_1.0.0-SR1_Lin64/Timer/Timer.c" 1
 1109 02c4 F894      		cli
 1110               	 ;  0 "" 2
 1111               	/* #NOAPP */
 1112               	.LBB154:
 1113               	.LBB155:
 1114               		.stabs	"/usr/lib/avr/include/util/delay.h",132,0,0,.Ltext31
 1115               	.Ltext31:
 187:/usr/lib/avr/include/util/delay.h **** 
 1116               		.stabn	68,0,187,.LM139-.LFBB15
 1117               	.LM139:
 1118 02c6 2FEF      		ldi r18,lo8(57599)
 1119 02c8 80EE      		ldi r24,hi8(57599)
 1120 02ca 90E0      		ldi r25,hlo8(57599)
 1121 02cc 2150      	1:	subi r18,1
 1122 02ce 8040      		sbci r24,0
 1123 02d0 9040      		sbci r25,0
 1124 02d2 01F4      		brne 1b
 1125 02d4 00C0      		rjmp .
 1126 02d6 0000      		nop
 1127               	.LBE155:
 1128               	.LBE154:
 1129               		.stabs	"/home/student/avr_src/SimulIDE_1.0.0-SR1_Lin64/Timer/Timer.c",132,0,0,.Ltext32
 1130               	.Ltext32:
 194:/home/student/avr_src/SimulIDE_1.0.0-SR1_Lin64/Timer/Timer.c **** 	write_AT24Cxx_i2c_LCDAddressing(address  << 1); //write mode
 1131               		.stabn	68,0,194,.LM140-.LFBB15
 1132               	.LM140:
 1133 02d8 0E94 0000 		call AT24Cxx_i2c_start
 195:/home/student/avr_src/SimulIDE_1.0.0-SR1_Lin64/Timer/Timer.c **** 	LCD_Write(0x20);
 1134               		.stabn	68,0,195,.LM141-.LFBB15
 1135               	.LM141:
 1136 02dc 8C2F      		mov r24,r28
 1137 02de 880F      		lsl r24
 1138 02e0 0E94 0000 		call write_AT24Cxx_i2c_LCDAddressing
 196:/home/student/avr_src/SimulIDE_1.0.0-SR1_Lin64/Timer/Timer.c **** 
 1139               		.stabn	68,0,196,.LM142-.LFBB15
 1140               	.LM142:
 1141 02e4 80E2      		ldi r24,lo8(32)
 1142 02e6 0E94 0000 		call LCD_Write
 1143               	.LBB156:
 1144               	.LBB157:
 1145               		.stabs	"/usr/lib/avr/include/util/delay.h",132,0,0,.Ltext33
 1146               	.Ltext33:
 187:/usr/lib/avr/include/util/delay.h **** 
 1147               		.stabn	68,0,187,.LM143-.LFBB15
 1148               	.LM143:
 1149 02ea 8FE3      		ldi r24,lo8(7999)
 1150 02ec 9FE1      		ldi r25,hi8(7999)
 1151 02ee 0197      	1:	sbiw r24,1
 1152 02f0 01F4      		brne 1b
 1153 02f2 00C0      		rjmp .
 1154 02f4 0000      		nop
 1155               	.LBE157:
 1156               	.LBE156:
 1157               		.stabs	"/home/student/avr_src/SimulIDE_1.0.0-SR1_Lin64/Timer/Timer.c",132,0,0,.Ltext34
 1158               	.Ltext34:
 200:/home/student/avr_src/SimulIDE_1.0.0-SR1_Lin64/Timer/Timer.c **** 	_delay_ms(2);
 1159               		.stabn	68,0,200,.LM144-.LFBB15
 1160               	.LM144:
 1161 02f6 80E2      		ldi r24,lo8(32)
 1162 02f8 0E94 0000 		call write_AT24Cxx_i2c_LCDAddressing
 1163               	.LBB158:
 1164               	.LBB159:
 1165               		.stabs	"/usr/lib/avr/include/util/delay.h",132,0,0,.Ltext35
 1166               	.Ltext35:
 187:/usr/lib/avr/include/util/delay.h **** 
 1167               		.stabn	68,0,187,.LM145-.LFBB15
 1168               	.LM145:
 1169 02fc 8FE3      		ldi r24,lo8(7999)
 1170 02fe 9FE1      		ldi r25,hi8(7999)
 1171 0300 0197      	1:	sbiw r24,1
 1172 0302 01F4      		brne 1b
 1173 0304 00C0      		rjmp .
 1174 0306 0000      		nop
 1175               	.LBE159:
 1176               	.LBE158:
 1177               		.stabs	"/home/student/avr_src/SimulIDE_1.0.0-SR1_Lin64/Timer/Timer.c",132,0,0,.Ltext36
 1178               	.Ltext36:
 203:/home/student/avr_src/SimulIDE_1.0.0-SR1_Lin64/Timer/Timer.c **** 	LCD_Write(0x00);
 1179               		.stabn	68,0,203,.LM146-.LFBB15
 1180               	.LM146:
 1181 0308 80E3      		ldi r24,lo8(48)
 1182 030a 0E94 0000 		call write_AT24Cxx_i2c_LCDAddressing
 204:/home/student/avr_src/SimulIDE_1.0.0-SR1_Lin64/Timer/Timer.c **** 	_delay_us(38);
 1183               		.stabn	68,0,204,.LM147-.LFBB15
 1184               	.LM147:
 1185 030e 80E0      		ldi r24,0
 1186 0310 0E94 0000 		call LCD_Write
 1187               	.LBB160:
 1188               	.LBB161:
 1189               		.stabs	"/usr/lib/avr/include/util/delay.h",132,0,0,.Ltext37
 1190               	.Ltext37:
 1191               		.stabn	68,0,276,.LM148-.LFBB15
 1192               	.LM148:
 1193 0314 9AEC      		ldi r25,lo8(-54)
 1194 0316 9A95      	1:	dec r25
 1195 0318 01F4      		brne 1b
 1196 031a 00C0      		rjmp .
 1197               	.LBE161:
 1198               	.LBE160:
 1199               		.stabs	"/home/student/avr_src/SimulIDE_1.0.0-SR1_Lin64/Timer/Timer.c",132,0,0,.Ltext38
 1200               	.Ltext38:
 207:/home/student/avr_src/SimulIDE_1.0.0-SR1_Lin64/Timer/Timer.c **** 	write_AT24Cxx_i2c_LCDAddressing(0x00);
 1201               		.stabn	68,0,207,.LM149-.LFBB15
 1202               	.LM149:
 1203 031c 80E0      		ldi r24,0
 1204 031e 0E94 0000 		call LCD_Write
 208:/home/student/avr_src/SimulIDE_1.0.0-SR1_Lin64/Timer/Timer.c ****     _delay_us(38);
 1205               		.stabn	68,0,208,.LM150-.LFBB15
 1206               	.LM150:
 1207 0322 80E0      		ldi r24,0
 1208 0324 0E94 0000 		call write_AT24Cxx_i2c_LCDAddressing
 1209               	.LBB162:
 1210               	.LBB163:
 1211               		.stabs	"/usr/lib/avr/include/util/delay.h",132,0,0,.Ltext39
 1212               	.Ltext39:
 1213               		.stabn	68,0,276,.LM151-.LFBB15
 1214               	.LM151:
 1215 0328 2AEC      		ldi r18,lo8(-54)
 1216 032a 2A95      	1:	dec r18
 1217 032c 01F4      		brne 1b
 1218 032e 00C0      		rjmp .
 1219               	.LBE163:
 1220               	.LBE162:
 1221               		.stabs	"/home/student/avr_src/SimulIDE_1.0.0-SR1_Lin64/Timer/Timer.c",132,0,0,.Ltext40
 1222               	.Ltext40:
 211:/home/student/avr_src/SimulIDE_1.0.0-SR1_Lin64/Timer/Timer.c **** 	write_AT24Cxx_i2c_LCDAddressing(0xE0);
 1223               		.stabn	68,0,211,.LM152-.LFBB15
 1224               	.LM152:
 1225 0330 80EE      		ldi r24,lo8(-32)
 1226 0332 0E94 0000 		call LCD_Write
 212:/home/student/avr_src/SimulIDE_1.0.0-SR1_Lin64/Timer/Timer.c **** 	_delay_us(38);
 1227               		.stabn	68,0,212,.LM153-.LFBB15
 1228               	.LM153:
 1229 0336 80EE      		ldi r24,lo8(-32)
 1230 0338 0E94 0000 		call write_AT24Cxx_i2c_LCDAddressing
 1231               	.LBB164:
 1232               	.LBB165:
 1233               		.stabs	"/usr/lib/avr/include/util/delay.h",132,0,0,.Ltext41
 1234               	.Ltext41:
 1235               		.stabn	68,0,276,.LM154-.LFBB15
 1236               	.LM154:
 1237 033c 8AEC      		ldi r24,lo8(-54)
 1238 033e 8A95      	1:	dec r24
 1239 0340 01F4      		brne 1b
 1240 0342 00C0      		rjmp .
 1241               	.LBE165:
 1242               	.LBE164:
 1243               		.stabs	"/home/student/avr_src/SimulIDE_1.0.0-SR1_Lin64/Timer/Timer.c",132,0,0,.Ltext42
 1244               	.Ltext42:
 215:/home/student/avr_src/SimulIDE_1.0.0-SR1_Lin64/Timer/Timer.c **** 	write_AT24Cxx_i2c_LCDAddressing(0x00);
 1245               		.stabn	68,0,215,.LM155-.LFBB15
 1246               	.LM155:
 1247 0344 80E0      		ldi r24,0
 1248 0346 0E94 0000 		call LCD_Write
 216:/home/student/avr_src/SimulIDE_1.0.0-SR1_Lin64/Timer/Timer.c **** 	_delay_us(38);
 1249               		.stabn	68,0,216,.LM156-.LFBB15
 1250               	.LM156:
 1251 034a 80E0      		ldi r24,0
 1252 034c 0E94 0000 		call write_AT24Cxx_i2c_LCDAddressing
 1253               	.LBB166:
 1254               	.LBB167:
 1255               		.stabs	"/usr/lib/avr/include/util/delay.h",132,0,0,.Ltext43
 1256               	.Ltext43:
 1257               		.stabn	68,0,276,.LM157-.LFBB15
 1258               	.LM157:
 1259 0350 9AEC      		ldi r25,lo8(-54)
 1260 0352 9A95      	1:	dec r25
 1261 0354 01F4      		brne 1b
 1262 0356 00C0      		rjmp .
 1263               	.LBE167:
 1264               	.LBE166:
 1265               		.stabs	"/home/student/avr_src/SimulIDE_1.0.0-SR1_Lin64/Timer/Timer.c",132,0,0,.Ltext44
 1266               	.Ltext44:
 219:/home/student/avr_src/SimulIDE_1.0.0-SR1_Lin64/Timer/Timer.c **** 	write_AT24Cxx_i2c_LCDAddressing(0x60);
 1267               		.stabn	68,0,219,.LM158-.LFBB15
 1268               	.LM158:
 1269 0358 80E6      		ldi r24,lo8(96)
 1270 035a 0E94 0000 		call LCD_Write
 220:/home/student/avr_src/SimulIDE_1.0.0-SR1_Lin64/Timer/Timer.c **** 	_delay_us(38);
 1271               		.stabn	68,0,220,.LM159-.LFBB15
 1272               	.LM159:
 1273 035e 80E6      		ldi r24,lo8(96)
 1274 0360 0E94 0000 		call write_AT24Cxx_i2c_LCDAddressing
 1275               	.LBB168:
 1276               	.LBB169:
 1277               		.stabs	"/usr/lib/avr/include/util/delay.h",132,0,0,.Ltext45
 1278               	.Ltext45:
 1279               		.stabn	68,0,276,.LM160-.LFBB15
 1280               	.LM160:
 1281 0364 2AEC      		ldi r18,lo8(-54)
 1282 0366 2A95      	1:	dec r18
 1283 0368 01F4      		brne 1b
 1284 036a 00C0      		rjmp .
 1285               	.LBE169:
 1286               	.LBE168:
 1287               		.stabs	"/home/student/avr_src/SimulIDE_1.0.0-SR1_Lin64/Timer/Timer.c",132,0,0,.Ltext46
 1288               	.Ltext46:
 223:/home/student/avr_src/SimulIDE_1.0.0-SR1_Lin64/Timer/Timer.c ****     _delay_us(40);
 1289               		.stabn	68,0,223,.LM161-.LFBB15
 1290               	.LM161:
 1291 036c 0E94 0000 		call AT24Cxx_i2c_stop
 1292               	.LBB170:
 1293               	.LBB171:
 1294               		.stabs	"/usr/lib/avr/include/util/delay.h",132,0,0,.Ltext47
 1295               	.Ltext47:
 1296               		.stabn	68,0,276,.LM162-.LFBB15
 1297               	.LM162:
 1298 0370 85ED      		ldi r24,lo8(-43)
 1299 0372 8A95      	1:	dec r24
 1300 0374 01F4      		brne 1b
 1301 0376 0000      		nop
 1302               	.LBE171:
 1303               	.LBE170:
 1304               		.stabs	"/home/student/avr_src/SimulIDE_1.0.0-SR1_Lin64/Timer/Timer.c",132,0,0,.Ltext48
 1305               	.Ltext48:
 225:/home/student/avr_src/SimulIDE_1.0.0-SR1_Lin64/Timer/Timer.c **** 	
 1306               		.stabn	68,0,225,.LM163-.LFBB15
 1307               	.LM163:
 1308               	/* #APP */
 1309               	 ;  225 "/home/student/avr_src/SimulIDE_1.0.0-SR1_Lin64/Timer/Timer.c" 1
 1310 0378 7894      		sei
 1311               	 ;  0 "" 2
 1312               	/* epilogue start */
 227:/home/student/avr_src/SimulIDE_1.0.0-SR1_Lin64/Timer/Timer.c **** //====================================================
 1313               		.stabn	68,0,227,.LM164-.LFBB15
 1314               	.LM164:
 1315               	/* #NOAPP */
 1316 037a CF91      		pop r28
 1317 037c 0895      		ret
 1318               		.size	I2C_LCD_init, .-I2C_LCD_init
 1319               	.Lscope15:
 1320               		.stabs	"",36,0,0,.Lscope15-.LFBB15
 1321               		.stabd	78,0,0
 1322               		.stabs	"LCD_CharWrite:F(0,49)",36,0,596,LCD_CharWrite
 1323               	.global	LCD_CharWrite
 1324               		.type	LCD_CharWrite, @function
 1325               	LCD_CharWrite:
 1326               		.stabd	46,0,0
 596:/home/student/avr_src/SimulIDE_1.0.0-SR1_Lin64/Timer/Timer.c **** 	
 1327               		.stabn	68,0,596,.LM165-.LFBB16
 1328               	.LM165:
 1329               	.LFBB16:
 1330 037e CF93      		push r28
 1331 0380 DF93      		push r29
 1332               	/* prologue: function */
 1333               	/* frame size = 0 */
 1334               	/* stack size = 2 */
 1335               	.L__stack_usage = 2
 1336 0382 EC01      		movw r28,r24
 598:/home/student/avr_src/SimulIDE_1.0.0-SR1_Lin64/Timer/Timer.c **** 
 1337               		.stabn	68,0,598,.LM166-.LFBB16
 1338               	.LM166:
 1339               	/* #APP */
 1340               	 ;  598 "/home/student/avr_src/SimulIDE_1.0.0-SR1_Lin64/Timer/Timer.c" 1
 1341 0384 F894      		cli
 1342               	 ;  0 "" 2
 600:/home/student/avr_src/SimulIDE_1.0.0-SR1_Lin64/Timer/Timer.c **** 	write_AT24Cxx_i2c_LCDAddressing((I2CLCD_ADDR << 1)); 
 1343               		.stabn	68,0,600,.LM167-.LFBB16
 1344               	.LM167:
 1345               	/* #NOAPP */
 1346 0386 0E94 0000 		call AT24Cxx_i2c_start
 601:/home/student/avr_src/SimulIDE_1.0.0-SR1_Lin64/Timer/Timer.c **** 	unsigned char upperbits = byte>>8 & 0xFF;
 1347               		.stabn	68,0,601,.LM168-.LFBB16
 1348               	.LM168:
 1349 038a 8EE4      		ldi r24,lo8(78)
 1350 038c 0E94 0000 		call write_AT24Cxx_i2c_LCDAddressing
 1351               	.LBB172:
 1352               	.LBB173:
 685:/home/student/avr_src/SimulIDE_1.0.0-SR1_Lin64/Timer/Timer.c **** 
 686:/home/student/avr_src/SimulIDE_1.0.0-SR1_Lin64/Timer/Timer.c **** }
 687:/home/student/avr_src/SimulIDE_1.0.0-SR1_Lin64/Timer/Timer.c **** void LCD_NEBIT(unsigned char byte){
 688:/home/student/avr_src/SimulIDE_1.0.0-SR1_Lin64/Timer/Timer.c **** 	write_AT24Cxx_i2c_LCDAddressing(byte);
 1353               		.stabn	68,0,688,.LM169-.LFBB16
 1354               	.LM169:
 1355 0390 8D2F      		mov r24,r29
 1356 0392 0E94 0000 		call write_AT24Cxx_i2c_LCDAddressing
 1357               	.LBE173:
 1358               	.LBE172:
 605:/home/student/avr_src/SimulIDE_1.0.0-SR1_Lin64/Timer/Timer.c **** 	LCD_NEBIT(lowerbits);
 1359               		.stabn	68,0,605,.LM170-.LFBB16
 1360               	.LM170:
 1361 0396 8D2F      		mov r24,r29
 1362 0398 0E94 0000 		call write_AT24Cxx_i2c_byte
 1363               	.LBB174:
 1364               	.LBB175:
 1365               		.stabn	68,0,688,.LM171-.LFBB16
 1366               	.LM171:
 1367 039c 8C2F      		mov r24,r28
 1368 039e 0E94 0000 		call write_AT24Cxx_i2c_LCDAddressing
 1369               	.LBE175:
 1370               	.LBE174:
 607:/home/student/avr_src/SimulIDE_1.0.0-SR1_Lin64/Timer/Timer.c **** 	AT24Cxx_i2c_stop();
 1371               		.stabn	68,0,607,.LM172-.LFBB16
 1372               	.LM172:
 1373 03a2 8C2F      		mov r24,r28
 1374 03a4 0E94 0000 		call write_AT24Cxx_i2c_byte
 608:/home/student/avr_src/SimulIDE_1.0.0-SR1_Lin64/Timer/Timer.c **** 	sei();
 1375               		.stabn	68,0,608,.LM173-.LFBB16
 1376               	.LM173:
 1377 03a8 0E94 0000 		call AT24Cxx_i2c_stop
 609:/home/student/avr_src/SimulIDE_1.0.0-SR1_Lin64/Timer/Timer.c **** }
 1378               		.stabn	68,0,609,.LM174-.LFBB16
 1379               	.LM174:
 1380               	/* #APP */
 1381               	 ;  609 "/home/student/avr_src/SimulIDE_1.0.0-SR1_Lin64/Timer/Timer.c" 1
 1382 03ac 7894      		sei
 1383               	 ;  0 "" 2
 1384               	/* epilogue start */
 610:/home/student/avr_src/SimulIDE_1.0.0-SR1_Lin64/Timer/Timer.c **** 
 1385               		.stabn	68,0,610,.LM175-.LFBB16
 1386               	.LM175:
 1387               	/* #NOAPP */
 1388 03ae DF91      		pop r29
 1389 03b0 CF91      		pop r28
 1390 03b2 0895      		ret
 1391               		.size	LCD_CharWrite, .-LCD_CharWrite
 1392               	.Lscope16:
 1393               		.stabs	"",36,0,0,.Lscope16-.LFBB16
 1394               		.stabd	78,0,0
 1395               		.stabs	"I2C_LCD_Erase:F(0,49)",36,0,154,I2C_LCD_Erase
 1396               	.global	I2C_LCD_Erase
 1397               		.type	I2C_LCD_Erase, @function
 1398               	I2C_LCD_Erase:
 1399               		.stabd	46,0,0
 154:/home/student/avr_src/SimulIDE_1.0.0-SR1_Lin64/Timer/Timer.c **** 	LCD_CharWrite(0x0040);
 1400               		.stabn	68,0,154,.LM176-.LFBB17
 1401               	.LM176:
 1402               	.LFBB17:
 1403               	/* prologue: function */
 1404               	/* frame size = 0 */
 1405               	/* stack size = 0 */
 1406               	.L__stack_usage = 0
 155:/home/student/avr_src/SimulIDE_1.0.0-SR1_Lin64/Timer/Timer.c **** 	LCD_CharWrite(0xA101);
 1407               		.stabn	68,0,155,.LM177-.LFBB17
 1408               	.LM177:
 1409 03b4 80E4      		ldi r24,lo8(64)
 1410 03b6 90E0      		ldi r25,0
 1411 03b8 0E94 0000 		call LCD_CharWrite
 156:/home/student/avr_src/SimulIDE_1.0.0-SR1_Lin64/Timer/Timer.c ****     LCD_CharWrite(0x0040);
 1412               		.stabn	68,0,156,.LM178-.LFBB17
 1413               	.LM178:
 1414 03bc 81E0      		ldi r24,lo8(1)
 1415 03be 91EA      		ldi r25,lo8(-95)
 1416 03c0 0E94 0000 		call LCD_CharWrite
 157:/home/student/avr_src/SimulIDE_1.0.0-SR1_Lin64/Timer/Timer.c ****     LCD_CharWrite(0xA101);
 1417               		.stabn	68,0,157,.LM179-.LFBB17
 1418               	.LM179:
 1419 03c4 80E4      		ldi r24,lo8(64)
 1420 03c6 90E0      		ldi r25,0
 1421 03c8 0E94 0000 		call LCD_CharWrite
 158:/home/student/avr_src/SimulIDE_1.0.0-SR1_Lin64/Timer/Timer.c ****     LCD_CharWrite(0x0060);
 1422               		.stabn	68,0,158,.LM180-.LFBB17
 1423               	.LM180:
 1424 03cc 81E0      		ldi r24,lo8(1)
 1425 03ce 91EA      		ldi r25,lo8(-95)
 1426 03d0 0E94 0000 		call LCD_CharWrite
 159:/home/student/avr_src/SimulIDE_1.0.0-SR1_Lin64/Timer/Timer.c **** }
 1427               		.stabn	68,0,159,.LM181-.LFBB17
 1428               	.LM181:
 1429 03d4 80E6      		ldi r24,lo8(96)
 1430 03d6 90E0      		ldi r25,0
 1431 03d8 0C94 0000 		jmp LCD_CharWrite
 1432               		.size	I2C_LCD_Erase, .-I2C_LCD_Erase
 1433               	.Lscope17:
 1434               		.stabs	"",36,0,0,.Lscope17-.LFBB17
 1435               		.stabd	78,0,0
 1436               		.stabs	"I2C_LCD_Reset:F(0,49)",36,0,162,I2C_LCD_Reset
 1437               	.global	I2C_LCD_Reset
 1438               		.type	I2C_LCD_Reset, @function
 1439               	I2C_LCD_Reset:
 1440               		.stabd	46,0,0
 162:/home/student/avr_src/SimulIDE_1.0.0-SR1_Lin64/Timer/Timer.c **** 	cli();
 1441               		.stabn	68,0,162,.LM182-.LFBB18
 1442               	.LM182:
 1443               	.LFBB18:
 1444               	/* prologue: function */
 1445               	/* frame size = 0 */
 1446               	/* stack size = 0 */
 1447               	.L__stack_usage = 0
 163:/home/student/avr_src/SimulIDE_1.0.0-SR1_Lin64/Timer/Timer.c ****     LCD_CharWrite(0x0010);
 1448               		.stabn	68,0,163,.LM183-.LFBB18
 1449               	.LM183:
 1450               	/* #APP */
 1451               	 ;  163 "/home/student/avr_src/SimulIDE_1.0.0-SR1_Lin64/Timer/Timer.c" 1
 1452 03dc F894      		cli
 1453               	 ;  0 "" 2
 164:/home/student/avr_src/SimulIDE_1.0.0-SR1_Lin64/Timer/Timer.c **** 	_delay_us(38);
 1454               		.stabn	68,0,164,.LM184-.LFBB18
 1455               	.LM184:
 1456               	/* #NOAPP */
 1457 03de 80E1      		ldi r24,lo8(16)
 1458 03e0 90E0      		ldi r25,0
 1459 03e2 0E94 0000 		call LCD_CharWrite
 1460               	.LBB176:
 1461               	.LBB177:
 1462               		.stabs	"/usr/lib/avr/include/util/delay.h",132,0,0,.Ltext49
 1463               	.Ltext49:
 1464               		.stabn	68,0,276,.LM185-.LFBB18
 1465               	.LM185:
 1466 03e6 8AEC      		ldi r24,lo8(-54)
 1467 03e8 8A95      	1:	dec r24
 1468 03ea 01F4      		brne 1b
 1469 03ec 00C0      		rjmp .
 1470               	.LBE177:
 1471               	.LBE176:
 1472               		.stabs	"/home/student/avr_src/SimulIDE_1.0.0-SR1_Lin64/Timer/Timer.c",132,0,0,.Ltext50
 1473               	.Ltext50:
 166:/home/student/avr_src/SimulIDE_1.0.0-SR1_Lin64/Timer/Timer.c **** 	_delay_us(38);
 1474               		.stabn	68,0,166,.LM186-.LFBB18
 1475               	.LM186:
 1476 03ee 80E1      		ldi r24,lo8(16)
 1477 03f0 90E0      		ldi r25,0
 1478 03f2 0E94 0000 		call LCD_CharWrite
 1479               	.LBB178:
 1480               	.LBB179:
 1481               		.stabs	"/usr/lib/avr/include/util/delay.h",132,0,0,.Ltext51
 1482               	.Ltext51:
 1483               		.stabn	68,0,276,.LM187-.LFBB18
 1484               	.LM187:
 1485 03f6 8AEC      		ldi r24,lo8(-54)
 1486 03f8 8A95      	1:	dec r24
 1487 03fa 01F4      		brne 1b
 1488 03fc 00C0      		rjmp .
 1489               	.LBE179:
 1490               	.LBE178:
 1491               		.stabs	"/home/student/avr_src/SimulIDE_1.0.0-SR1_Lin64/Timer/Timer.c",132,0,0,.Ltext52
 1492               	.Ltext52:
 168:/home/student/avr_src/SimulIDE_1.0.0-SR1_Lin64/Timer/Timer.c **** 	_delay_us(38);
 1493               		.stabn	68,0,168,.LM188-.LFBB18
 1494               	.LM188:
 1495 03fe 80E3      		ldi r24,lo8(48)
 1496 0400 90E0      		ldi r25,0
 1497 0402 0E94 0000 		call LCD_CharWrite
 1498               	.LBB180:
 1499               	.LBB181:
 1500               		.stabs	"/usr/lib/avr/include/util/delay.h",132,0,0,.Ltext53
 1501               	.Ltext53:
 1502               		.stabn	68,0,276,.LM189-.LFBB18
 1503               	.LM189:
 1504 0406 8AEC      		ldi r24,lo8(-54)
 1505 0408 8A95      	1:	dec r24
 1506 040a 01F4      		brne 1b
 1507 040c 00C0      		rjmp .
 1508               	.LBE181:
 1509               	.LBE180:
 1510               		.stabs	"/home/student/avr_src/SimulIDE_1.0.0-SR1_Lin64/Timer/Timer.c",132,0,0,.Ltext54
 1511               	.Ltext54:
 171:/home/student/avr_src/SimulIDE_1.0.0-SR1_Lin64/Timer/Timer.c **** 	_delay_us(38);
 1512               		.stabn	68,0,171,.LM190-.LFBB18
 1513               	.LM190:
 1514 040e 87E2      		ldi r24,lo8(39)
 1515 0410 0E94 0000 		call I2C_LCD_init
 1516               	.LBB182:
 1517               	.LBB183:
 1518               		.stabs	"/usr/lib/avr/include/util/delay.h",132,0,0,.Ltext55
 1519               	.Ltext55:
 1520               		.stabn	68,0,276,.LM191-.LFBB18
 1521               	.LM191:
 1522 0414 8AEC      		ldi r24,lo8(-54)
 1523 0416 8A95      	1:	dec r24
 1524 0418 01F4      		brne 1b
 1525 041a 00C0      		rjmp .
 1526               	.LBE183:
 1527               	.LBE182:
 1528               		.stabs	"/home/student/avr_src/SimulIDE_1.0.0-SR1_Lin64/Timer/Timer.c",132,0,0,.Ltext56
 1529               	.Ltext56:
 174:/home/student/avr_src/SimulIDE_1.0.0-SR1_Lin64/Timer/Timer.c **** 	_delay_us(38);
 1530               		.stabn	68,0,174,.LM192-.LFBB18
 1531               	.LM192:
 1532 041c 80E1      		ldi r24,lo8(16)
 1533 041e 90E0      		ldi r25,0
 1534 0420 0E94 0000 		call LCD_CharWrite
 1535               	.LBB184:
 1536               	.LBB185:
 1537               		.stabs	"/usr/lib/avr/include/util/delay.h",132,0,0,.Ltext57
 1538               	.Ltext57:
 1539               		.stabn	68,0,276,.LM193-.LFBB18
 1540               	.LM193:
 1541 0424 8AEC      		ldi r24,lo8(-54)
 1542 0426 8A95      	1:	dec r24
 1543 0428 01F4      		brne 1b
 1544 042a 00C0      		rjmp .
 1545               	.LBE185:
 1546               	.LBE184:
 1547               		.stabs	"/home/student/avr_src/SimulIDE_1.0.0-SR1_Lin64/Timer/Timer.c",132,0,0,.Ltext58
 1548               	.Ltext58:
 176:/home/student/avr_src/SimulIDE_1.0.0-SR1_Lin64/Timer/Timer.c **** 
 1549               		.stabn	68,0,176,.LM194-.LFBB18
 1550               	.LM194:
 1551 042c 80E3      		ldi r24,lo8(48)
 1552 042e 90E0      		ldi r25,0
 1553 0430 0E94 0000 		call LCD_CharWrite
 1554               	.LBB186:
 1555               	.LBB187:
 1556               		.stabs	"/usr/lib/avr/include/util/delay.h",132,0,0,.Ltext59
 1557               	.Ltext59:
 1558               		.stabn	68,0,276,.LM195-.LFBB18
 1559               	.LM195:
 1560 0434 8AEC      		ldi r24,lo8(-54)
 1561 0436 8A95      	1:	dec r24
 1562 0438 01F4      		brne 1b
 1563 043a 00C0      		rjmp .
 1564               	.LBE187:
 1565               	.LBE186:
 1566               		.stabs	"/home/student/avr_src/SimulIDE_1.0.0-SR1_Lin64/Timer/Timer.c",132,0,0,.Ltext60
 1567               	.Ltext60:
 180:/home/student/avr_src/SimulIDE_1.0.0-SR1_Lin64/Timer/Timer.c **** 	_delay_us(38);
 1568               		.stabn	68,0,180,.LM196-.LFBB18
 1569               	.LM196:
 1570 043c 87E2      		ldi r24,lo8(39)
 1571 043e 0E94 0000 		call I2C_LCD_init
 1572               	.LBB188:
 1573               	.LBB189:
 1574               		.stabs	"/usr/lib/avr/include/util/delay.h",132,0,0,.Ltext61
 1575               	.Ltext61:
 1576               		.stabn	68,0,276,.LM197-.LFBB18
 1577               	.LM197:
 1578 0442 8AEC      		ldi r24,lo8(-54)
 1579 0444 8A95      	1:	dec r24
 1580 0446 01F4      		brne 1b
 1581 0448 00C0      		rjmp .
 1582               	.LBE189:
 1583               	.LBE188:
 1584               		.stabs	"/home/student/avr_src/SimulIDE_1.0.0-SR1_Lin64/Timer/Timer.c",132,0,0,.Ltext62
 1585               	.Ltext62:
 182:/home/student/avr_src/SimulIDE_1.0.0-SR1_Lin64/Timer/Timer.c **** 	LCD_CharWrite(0x20C0);
 1586               		.stabn	68,0,182,.LM198-.LFBB18
 1587               	.LM198:
 1588 044a 87E2      		ldi r24,lo8(39)
 1589 044c 0E94 0000 		call I2C_LCD_init
 183:/home/student/avr_src/SimulIDE_1.0.0-SR1_Lin64/Timer/Timer.c **** 	LCD_CharWrite(0x0020);
 1590               		.stabn	68,0,183,.LM199-.LFBB18
 1591               	.LM199:
 1592 0450 80EC      		ldi r24,lo8(-64)
 1593 0452 90E2      		ldi r25,lo8(32)
 1594 0454 0E94 0000 		call LCD_CharWrite
 184:/home/student/avr_src/SimulIDE_1.0.0-SR1_Lin64/Timer/Timer.c **** 	I2C_LCD_init(0x27);
 1595               		.stabn	68,0,184,.LM200-.LFBB18
 1596               	.LM200:
 1597 0458 80E2      		ldi r24,lo8(32)
 1598 045a 90E0      		ldi r25,0
 1599 045c 0E94 0000 		call LCD_CharWrite
 185:/home/student/avr_src/SimulIDE_1.0.0-SR1_Lin64/Timer/Timer.c ****     
 1600               		.stabn	68,0,185,.LM201-.LFBB18
 1601               	.LM201:
 1602 0460 87E2      		ldi r24,lo8(39)
 1603 0462 0E94 0000 		call I2C_LCD_init
 187:/home/student/avr_src/SimulIDE_1.0.0-SR1_Lin64/Timer/Timer.c ****     LCD_CharWrite(0x00C0);
 1604               		.stabn	68,0,187,.LM202-.LFBB18
 1605               	.LM202:
 1606               	/* #APP */
 1607               	 ;  187 "/home/student/avr_src/SimulIDE_1.0.0-SR1_Lin64/Timer/Timer.c" 1
 1608 0466 7894      		sei
 1609               	 ;  0 "" 2
 188:/home/student/avr_src/SimulIDE_1.0.0-SR1_Lin64/Timer/Timer.c **** }
 1610               		.stabn	68,0,188,.LM203-.LFBB18
 1611               	.LM203:
 1612               	/* #NOAPP */
 1613 0468 80EC      		ldi r24,lo8(-64)
 1614 046a 90E0      		ldi r25,0
 1615 046c 0C94 0000 		jmp LCD_CharWrite
 1616               		.size	I2C_LCD_Reset, .-I2C_LCD_Reset
 1617               	.Lscope18:
 1618               		.stabs	"",36,0,0,.Lscope18-.LFBB18
 1619               		.stabd	78,0,0
 1620               		.stabs	"I2C_LCD_MoveLeft:F(0,49)",36,0,323,I2C_LCD_MoveLeft
 1621               		.stabs	"cnt:P(0,13)",64,0,323,28
 1622               	.global	I2C_LCD_MoveLeft
 1623               		.type	I2C_LCD_MoveLeft, @function
 1624               	I2C_LCD_MoveLeft:
 1625               		.stabd	46,0,0
 323:/home/student/avr_src/SimulIDE_1.0.0-SR1_Lin64/Timer/Timer.c **** 	
 1626               		.stabn	68,0,323,.LM204-.LFBB19
 1627               	.LM204:
 1628               	.LFBB19:
 1629 0470 CF93      		push r28
 1630               	/* prologue: function */
 1631               	/* frame size = 0 */
 1632               	/* stack size = 1 */
 1633               	.L__stack_usage = 1
 1634 0472 C82F      		mov r28,r24
 1635               	.L78:
 325:/home/student/avr_src/SimulIDE_1.0.0-SR1_Lin64/Timer/Timer.c **** 		LCD_CharWrite(0x1000);
 1636               		.stabn	68,0,325,.LM205-.LFBB19
 1637               	.LM205:
 1638 0474 CC23      		tst r28
 1639 0476 01F0      		breq .L80
 326:/home/student/avr_src/SimulIDE_1.0.0-SR1_Lin64/Timer/Timer.c **** 		cnt--;
 1640               		.stabn	68,0,326,.LM206-.LFBB19
 1641               	.LM206:
 1642 0478 80E0      		ldi r24,0
 1643 047a 90E1      		ldi r25,lo8(16)
 1644 047c 0E94 0000 		call LCD_CharWrite
 327:/home/student/avr_src/SimulIDE_1.0.0-SR1_Lin64/Timer/Timer.c **** 	}
 1645               		.stabn	68,0,327,.LM207-.LFBB19
 1646               	.LM207:
 1647 0480 C150      		subi r28,lo8(-(-1))
 1648 0482 00C0      		rjmp .L78
 1649               	.L80:
 329:/home/student/avr_src/SimulIDE_1.0.0-SR1_Lin64/Timer/Timer.c ****     LCD_CharWrite(0x00E0); //must add current state
 1650               		.stabn	68,0,329,.LM208-.LFBB19
 1651               	.LM208:
 1652 0484 80E6      		ldi r24,lo8(96)
 1653 0486 90E0      		ldi r25,0
 1654 0488 0E94 0000 		call LCD_CharWrite
 330:/home/student/avr_src/SimulIDE_1.0.0-SR1_Lin64/Timer/Timer.c **** }
 1655               		.stabn	68,0,330,.LM209-.LFBB19
 1656               	.LM209:
 1657 048c 80EE      		ldi r24,lo8(-32)
 1658 048e 90E0      		ldi r25,0
 1659               	/* epilogue start */
 331:/home/student/avr_src/SimulIDE_1.0.0-SR1_Lin64/Timer/Timer.c **** 
 1660               		.stabn	68,0,331,.LM210-.LFBB19
 1661               	.LM210:
 1662 0490 CF91      		pop r28
 330:/home/student/avr_src/SimulIDE_1.0.0-SR1_Lin64/Timer/Timer.c **** }
 1663               		.stabn	68,0,330,.LM211-.LFBB19
 1664               	.LM211:
 1665 0492 0C94 0000 		jmp LCD_CharWrite
 1666               		.size	I2C_LCD_MoveLeft, .-I2C_LCD_MoveLeft
 1667               	.Lscope19:
 1668               		.stabs	"",36,0,0,.Lscope19-.LFBB19
 1669               		.stabd	78,0,0
 1670               		.stabs	"I2C_Timer_Default:F(0,49)",36,0,229,I2C_Timer_Default
 1671               	.global	I2C_Timer_Default
 1672               		.type	I2C_Timer_Default, @function
 1673               	I2C_Timer_Default:
 1674               		.stabd	46,0,0
 229:/home/student/avr_src/SimulIDE_1.0.0-SR1_Lin64/Timer/Timer.c **** 	I2C_LCD_Reset();
 1675               		.stabn	68,0,229,.LM212-.LFBB20
 1676               	.LM212:
 1677               	.LFBB20:
 1678               	/* prologue: function */
 1679               	/* frame size = 0 */
 1680               	/* stack size = 0 */
 1681               	.L__stack_usage = 0
 230:/home/student/avr_src/SimulIDE_1.0.0-SR1_Lin64/Timer/Timer.c ****     LCD_CharWrite(0x2101);
 1682               		.stabn	68,0,230,.LM213-.LFBB20
 1683               	.LM213:
 1684 0496 0E94 0000 		call I2C_LCD_Reset
 231:/home/student/avr_src/SimulIDE_1.0.0-SR1_Lin64/Timer/Timer.c ****     LCD_CharWrite(0x2101);
 1685               		.stabn	68,0,231,.LM214-.LFBB20
 1686               	.LM214:
 1687 049a 81E0      		ldi r24,lo8(1)
 1688 049c 91E2      		ldi r25,lo8(33)
 1689 049e 0E94 0000 		call LCD_CharWrite
 232:/home/student/avr_src/SimulIDE_1.0.0-SR1_Lin64/Timer/Timer.c ****     LCD_CharWrite(0x2101);
 1690               		.stabn	68,0,232,.LM215-.LFBB20
 1691               	.LM215:
 1692 04a2 81E0      		ldi r24,lo8(1)
 1693 04a4 91E2      		ldi r25,lo8(33)
 1694 04a6 0E94 0000 		call LCD_CharWrite
 233:/home/student/avr_src/SimulIDE_1.0.0-SR1_Lin64/Timer/Timer.c ****     LCD_CharWrite(0x2101);
 1695               		.stabn	68,0,233,.LM216-.LFBB20
 1696               	.LM216:
 1697 04aa 81E0      		ldi r24,lo8(1)
 1698 04ac 91E2      		ldi r25,lo8(33)
 1699 04ae 0E94 0000 		call LCD_CharWrite
 234:/home/student/avr_src/SimulIDE_1.0.0-SR1_Lin64/Timer/Timer.c ****     LCD_CharWrite(num2lcdbyte(0));
 1700               		.stabn	68,0,234,.LM217-.LFBB20
 1701               	.LM217:
 1702 04b2 81E0      		ldi r24,lo8(1)
 1703 04b4 91E2      		ldi r25,lo8(33)
 1704 04b6 0E94 0000 		call LCD_CharWrite
 235:/home/student/avr_src/SimulIDE_1.0.0-SR1_Lin64/Timer/Timer.c ****     LCD_CharWrite(num2lcdbyte(0));
 1705               		.stabn	68,0,235,.LM218-.LFBB20
 1706               	.LM218:
 1707 04ba 81E0      		ldi r24,lo8(1)
 1708 04bc 91E3      		ldi r25,lo8(49)
 1709 04be 0E94 0000 		call LCD_CharWrite
 236:/home/student/avr_src/SimulIDE_1.0.0-SR1_Lin64/Timer/Timer.c **** 	LCD_CharWrite(0x31A1);
 1710               		.stabn	68,0,236,.LM219-.LFBB20
 1711               	.LM219:
 1712 04c2 81E0      		ldi r24,lo8(1)
 1713 04c4 91E3      		ldi r25,lo8(49)
 1714 04c6 0E94 0000 		call LCD_CharWrite
 237:/home/student/avr_src/SimulIDE_1.0.0-SR1_Lin64/Timer/Timer.c ****     LCD_CharWrite(num2lcdbyte(0));
 1715               		.stabn	68,0,237,.LM220-.LFBB20
 1716               	.LM220:
 1717 04ca 81EA      		ldi r24,lo8(-95)
 1718 04cc 91E3      		ldi r25,lo8(49)
 1719 04ce 0E94 0000 		call LCD_CharWrite
 238:/home/student/avr_src/SimulIDE_1.0.0-SR1_Lin64/Timer/Timer.c ****     LCD_CharWrite(num2lcdbyte(0));
 1720               		.stabn	68,0,238,.LM221-.LFBB20
 1721               	.LM221:
 1722 04d2 81E0      		ldi r24,lo8(1)
 1723 04d4 91E3      		ldi r25,lo8(49)
 1724 04d6 0E94 0000 		call LCD_CharWrite
 239:/home/student/avr_src/SimulIDE_1.0.0-SR1_Lin64/Timer/Timer.c ****     LCD_CharWrite(0x31A1);
 1725               		.stabn	68,0,239,.LM222-.LFBB20
 1726               	.LM222:
 1727 04da 81E0      		ldi r24,lo8(1)
 1728 04dc 91E3      		ldi r25,lo8(49)
 1729 04de 0E94 0000 		call LCD_CharWrite
 240:/home/student/avr_src/SimulIDE_1.0.0-SR1_Lin64/Timer/Timer.c ****     LCD_CharWrite(num2lcdbyte(0));
 1730               		.stabn	68,0,240,.LM223-.LFBB20
 1731               	.LM223:
 1732 04e2 81EA      		ldi r24,lo8(-95)
 1733 04e4 91E3      		ldi r25,lo8(49)
 1734 04e6 0E94 0000 		call LCD_CharWrite
 241:/home/student/avr_src/SimulIDE_1.0.0-SR1_Lin64/Timer/Timer.c ****     LCD_CharWrite(num2lcdbyte(0));
 1735               		.stabn	68,0,241,.LM224-.LFBB20
 1736               	.LM224:
 1737 04ea 81E0      		ldi r24,lo8(1)
 1738 04ec 91E3      		ldi r25,lo8(49)
 1739 04ee 0E94 0000 		call LCD_CharWrite
 242:/home/student/avr_src/SimulIDE_1.0.0-SR1_Lin64/Timer/Timer.c **** 	LCD_CharWrite(0x00C0);
 1740               		.stabn	68,0,242,.LM225-.LFBB20
 1741               	.LM225:
 1742 04f2 81E0      		ldi r24,lo8(1)
 1743 04f4 91E3      		ldi r25,lo8(49)
 1744 04f6 0E94 0000 		call LCD_CharWrite
 243:/home/student/avr_src/SimulIDE_1.0.0-SR1_Lin64/Timer/Timer.c **** 	I2C_LCD_MoveLeft(4);
 1745               		.stabn	68,0,243,.LM226-.LFBB20
 1746               	.LM226:
 1747 04fa 80EC      		ldi r24,lo8(-64)
 1748 04fc 90E0      		ldi r25,0
 1749 04fe 0E94 0000 		call LCD_CharWrite
 244:/home/student/avr_src/SimulIDE_1.0.0-SR1_Lin64/Timer/Timer.c **** 
 1750               		.stabn	68,0,244,.LM227-.LFBB20
 1751               	.LM227:
 1752 0502 84E0      		ldi r24,lo8(4)
 1753 0504 0C94 0000 		jmp I2C_LCD_MoveLeft
 1754               		.size	I2C_Timer_Default, .-I2C_Timer_Default
 1755               	.Lscope20:
 1756               		.stabs	"",36,0,0,.Lscope20-.LFBB20
 1757               		.stabd	78,0,0
 1758               		.stabs	"I2C_LCD_MoveRight:F(0,49)",36,0,333,I2C_LCD_MoveRight
 1759               		.stabs	"cnt:P(0,13)",64,0,333,28
 1760               	.global	I2C_LCD_MoveRight
 1761               		.type	I2C_LCD_MoveRight, @function
 1762               	I2C_LCD_MoveRight:
 1763               		.stabd	46,0,0
 333:/home/student/avr_src/SimulIDE_1.0.0-SR1_Lin64/Timer/Timer.c **** 	while(cnt){
 1764               		.stabn	68,0,333,.LM228-.LFBB21
 1765               	.LM228:
 1766               	.LFBB21:
 1767 0508 CF93      		push r28
 1768               	/* prologue: function */
 1769               	/* frame size = 0 */
 1770               	/* stack size = 1 */
 1771               	.L__stack_usage = 1
 1772 050a C82F      		mov r28,r24
 1773               	.L83:
 334:/home/student/avr_src/SimulIDE_1.0.0-SR1_Lin64/Timer/Timer.c **** 		LCD_CharWrite(0x1040);
 1774               		.stabn	68,0,334,.LM229-.LFBB21
 1775               	.LM229:
 1776 050c CC23      		tst r28
 1777 050e 01F0      		breq .L85
 335:/home/student/avr_src/SimulIDE_1.0.0-SR1_Lin64/Timer/Timer.c **** 		cnt--;
 1778               		.stabn	68,0,335,.LM230-.LFBB21
 1779               	.LM230:
 1780 0510 80E4      		ldi r24,lo8(64)
 1781 0512 90E1      		ldi r25,lo8(16)
 1782 0514 0E94 0000 		call LCD_CharWrite
 336:/home/student/avr_src/SimulIDE_1.0.0-SR1_Lin64/Timer/Timer.c **** 	}
 1783               		.stabn	68,0,336,.LM231-.LFBB21
 1784               	.LM231:
 1785 0518 C150      		subi r28,lo8(-(-1))
 1786 051a 00C0      		rjmp .L83
 1787               	.L85:
 338:/home/student/avr_src/SimulIDE_1.0.0-SR1_Lin64/Timer/Timer.c **** }
 1788               		.stabn	68,0,338,.LM232-.LFBB21
 1789               	.LM232:
 1790 051c 80EE      		ldi r24,lo8(-32)
 1791 051e 90E0      		ldi r25,0
 1792               	/* epilogue start */
 339:/home/student/avr_src/SimulIDE_1.0.0-SR1_Lin64/Timer/Timer.c **** 
 1793               		.stabn	68,0,339,.LM233-.LFBB21
 1794               	.LM233:
 1795 0520 CF91      		pop r28
 338:/home/student/avr_src/SimulIDE_1.0.0-SR1_Lin64/Timer/Timer.c **** }
 1796               		.stabn	68,0,338,.LM234-.LFBB21
 1797               	.LM234:
 1798 0522 0C94 0000 		jmp LCD_CharWrite
 1799               		.size	I2C_LCD_MoveRight, .-I2C_LCD_MoveRight
 1800               	.Lscope21:
 1801               		.stabs	"",36,0,0,.Lscope21-.LFBB21
 1802               		.stabd	78,0,0
 1803               		.stabs	"I2C_Timer_act:F(0,49)",36,0,248,I2C_Timer_act
 1804               	.global	I2C_Timer_act
 1805               		.type	I2C_Timer_act, @function
 1806               	I2C_Timer_act:
 1807               		.stabd	46,0,0
 248:/home/student/avr_src/SimulIDE_1.0.0-SR1_Lin64/Timer/Timer.c **** 		/*------- Minutes Part start -------*/
 1808               		.stabn	68,0,248,.LM235-.LFBB22
 1809               	.LM235:
 1810               	.LFBB22:
 1811 0526 CF93      		push r28
 1812               	/* prologue: function */
 1813               	/* frame size = 0 */
 1814               	/* stack size = 1 */
 1815               	.L__stack_usage = 1
 250:/home/student/avr_src/SimulIDE_1.0.0-SR1_Lin64/Timer/Timer.c **** 			I2C_LCD_MoveLeft(3);
 1816               		.stabn	68,0,250,.LM236-.LFBB22
 1817               	.LM236:
 1818 0528 8091 0000 		lds r24,min
 1819 052c 8823      		tst r24
 1820 052e 01F0      		breq .L87
 251:/home/student/avr_src/SimulIDE_1.0.0-SR1_Lin64/Timer/Timer.c **** 			LCD_CharWrite(num2lcdbyte(min));
 1821               		.stabn	68,0,251,.LM237-.LFBB22
 1822               	.LM237:
 1823 0530 83E0      		ldi r24,lo8(3)
 1824 0532 0E94 0000 		call I2C_LCD_MoveLeft
 252:/home/student/avr_src/SimulIDE_1.0.0-SR1_Lin64/Timer/Timer.c **** 			I2C_LCD_MoveRight(2);
 1825               		.stabn	68,0,252,.LM238-.LFBB22
 1826               	.LM238:
 1827 0536 8091 0000 		lds r24,min
 1828 053a 0E94 0000 		call num2lcdbyte
 1829 053e 0E94 0000 		call LCD_CharWrite
 253:/home/student/avr_src/SimulIDE_1.0.0-SR1_Lin64/Timer/Timer.c **** 			LCD_CharWrite(0x00C0);
 1830               		.stabn	68,0,253,.LM239-.LFBB22
 1831               	.LM239:
 1832 0542 82E0      		ldi r24,lo8(2)
 1833 0544 0E94 0000 		call I2C_LCD_MoveRight
 254:/home/student/avr_src/SimulIDE_1.0.0-SR1_Lin64/Timer/Timer.c **** 			LCD_CharWrite(0x00C0);
 1834               		.stabn	68,0,254,.LM240-.LFBB22
 1835               	.LM240:
 1836 0548 80EC      		ldi r24,lo8(-64)
 1837 054a 90E0      		ldi r25,0
 1838 054c 0E94 0000 		call LCD_CharWrite
 255:/home/student/avr_src/SimulIDE_1.0.0-SR1_Lin64/Timer/Timer.c **** 		}
 1839               		.stabn	68,0,255,.LM241-.LFBB22
 1840               	.LM241:
 1841 0550 80EC      		ldi r24,lo8(-64)
 1842 0552 90E0      		ldi r25,0
 1843 0554 0E94 0000 		call LCD_CharWrite
 1844               	.L87:
 260:/home/student/avr_src/SimulIDE_1.0.0-SR1_Lin64/Timer/Timer.c **** 			if(min){
 1845               		.stabn	68,0,260,.LM242-.LFBB22
 1846               	.LM242:
 1847 0558 8091 0000 		lds r24,sec
 1848 055c 8130      		cpi r24,lo8(1)
 1849 055e 01F4      		brne .L88
 261:/home/student/avr_src/SimulIDE_1.0.0-SR1_Lin64/Timer/Timer.c **** 				if (min == 1){
 1850               		.stabn	68,0,261,.LM243-.LFBB22
 1851               	.LM243:
 1852 0560 9091 0000 		lds r25,min
 1853 0564 9923      		tst r25
 1854 0566 01F0      		breq .L89
 262:/home/student/avr_src/SimulIDE_1.0.0-SR1_Lin64/Timer/Timer.c **** 					I2C_LCD_MoveLeft(3);
 1855               		.stabn	68,0,262,.LM244-.LFBB22
 1856               	.LM244:
 1857 0568 8091 0000 		lds r24,min
 1858 056c 8130      		cpi r24,lo8(1)
 1859 056e 01F4      		brne .L90
 263:/home/student/avr_src/SimulIDE_1.0.0-SR1_Lin64/Timer/Timer.c **** 					LCD_CharWrite(num2lcdbyte(0));
 1860               		.stabn	68,0,263,.LM245-.LFBB22
 1861               	.LM245:
 1862 0570 83E0      		ldi r24,lo8(3)
 1863 0572 0E94 0000 		call I2C_LCD_MoveLeft
 264:/home/student/avr_src/SimulIDE_1.0.0-SR1_Lin64/Timer/Timer.c **** 					I2C_LCD_MoveRight(2);
 1864               		.stabn	68,0,264,.LM246-.LFBB22
 1865               	.LM246:
 1866 0576 81E0      		ldi r24,lo8(1)
 1867 0578 91E3      		ldi r25,lo8(49)
 1868 057a 0E94 0000 		call LCD_CharWrite
 265:/home/student/avr_src/SimulIDE_1.0.0-SR1_Lin64/Timer/Timer.c **** 					LCD_CharWrite(0x00C0);
 1869               		.stabn	68,0,265,.LM247-.LFBB22
 1870               	.LM247:
 1871 057e 82E0      		ldi r24,lo8(2)
 1872 0580 0E94 0000 		call I2C_LCD_MoveRight
 266:/home/student/avr_src/SimulIDE_1.0.0-SR1_Lin64/Timer/Timer.c **** 					LCD_CharWrite(0x00C0);
 1873               		.stabn	68,0,266,.LM248-.LFBB22
 1874               	.LM248:
 1875 0584 80EC      		ldi r24,lo8(-64)
 1876 0586 90E0      		ldi r25,0
 1877 0588 0E94 0000 		call LCD_CharWrite
 267:/home/student/avr_src/SimulIDE_1.0.0-SR1_Lin64/Timer/Timer.c **** 				}
 1878               		.stabn	68,0,267,.LM249-.LFBB22
 1879               	.LM249:
 1880 058c 80EC      		ldi r24,lo8(-64)
 1881 058e 90E0      		ldi r25,0
 1882 0590 0E94 0000 		call LCD_CharWrite
 1883               	.L90:
 269:/home/student/avr_src/SimulIDE_1.0.0-SR1_Lin64/Timer/Timer.c **** 				I2C_LCD_MoveLeft(1);
 1884               		.stabn	68,0,269,.LM250-.LFBB22
 1885               	.LM250:
 1886 0594 81E0      		ldi r24,lo8(1)
 1887 0596 91E3      		ldi r25,lo8(49)
 1888 0598 0E94 0000 		call LCD_CharWrite
 270:/home/student/avr_src/SimulIDE_1.0.0-SR1_Lin64/Timer/Timer.c **** 				time_10ms = 99;
 1889               		.stabn	68,0,270,.LM251-.LFBB22
 1890               	.LM251:
 1891 059c 81E0      		ldi r24,lo8(1)
 1892 059e 0E94 0000 		call I2C_LCD_MoveLeft
 271:/home/student/avr_src/SimulIDE_1.0.0-SR1_Lin64/Timer/Timer.c **** 				sec = 60;
 1893               		.stabn	68,0,271,.LM252-.LFBB22
 1894               	.LM252:
 1895 05a2 83E6      		ldi r24,lo8(99)
 1896 05a4 90E0      		ldi r25,0
 1897 05a6 9093 0000 		sts time_10ms+1,r25
 1898 05aa 8093 0000 		sts time_10ms,r24
 272:/home/student/avr_src/SimulIDE_1.0.0-SR1_Lin64/Timer/Timer.c **** 				min--;
 1899               		.stabn	68,0,272,.LM253-.LFBB22
 1900               	.LM253:
 1901 05ae 8CE3      		ldi r24,lo8(60)
 1902 05b0 8093 0000 		sts sec,r24
 273:/home/student/avr_src/SimulIDE_1.0.0-SR1_Lin64/Timer/Timer.c **** 			}
 1903               		.stabn	68,0,273,.LM254-.LFBB22
 1904               	.LM254:
 1905 05b4 8091 0000 		lds r24,min
 1906 05b8 8150      		subi r24,lo8(-(-1))
 1907 05ba 8093 0000 		sts min,r24
 1908 05be 00C0      		rjmp .L86
 1909               	.L89:
 276:/home/student/avr_src/SimulIDE_1.0.0-SR1_Lin64/Timer/Timer.c **** 				// LCD_CharWrite(num2lcdbyte(0));
 1910               		.stabn	68,0,276,.LM255-.LFBB22
 1911               	.LM255:
 1912 05c0 8093 0000 		sts end_flag,r24
 1913 05c4 00C0      		rjmp .L86
 1914               	.L88:
 281:/home/student/avr_src/SimulIDE_1.0.0-SR1_Lin64/Timer/Timer.c **** 			I2C_LCD_MoveLeft(1);
 1915               		.stabn	68,0,281,.LM256-.LFBB22
 1916               	.LM256:
 1917 05c6 8091 0000 		lds r24,sec
 1918 05ca 8C33      		cpi r24,lo8(60)
 1919 05cc 01F4      		brne .L92
 282:/home/student/avr_src/SimulIDE_1.0.0-SR1_Lin64/Timer/Timer.c **** 			LCD_CharWrite(num2lcdbyte((5)));
 1920               		.stabn	68,0,282,.LM257-.LFBB22
 1921               	.LM257:
 1922 05ce 81E0      		ldi r24,lo8(1)
 1923 05d0 0E94 0000 		call I2C_LCD_MoveLeft
 283:/home/student/avr_src/SimulIDE_1.0.0-SR1_Lin64/Timer/Timer.c **** 			LCD_CharWrite(num2lcdbyte((sec-1)%10));
 1924               		.stabn	68,0,283,.LM258-.LFBB22
 1925               	.LM258:
 1926 05d4 81E5      		ldi r24,lo8(81)
 1927 05d6 91E3      		ldi r25,lo8(49)
 1928 05d8 00C0      		rjmp .L100
 1929               	.L92:
 291:/home/student/avr_src/SimulIDE_1.0.0-SR1_Lin64/Timer/Timer.c **** 			if(sec % 10 == 0){
 1930               		.stabn	68,0,291,.LM259-.LFBB22
 1931               	.LM259:
 1932 05da 8091 0000 		lds r24,sec
 1933 05de 8A30      		cpi r24,lo8(10)
 1934 05e0 01F0      		breq .L93
 292:/home/student/avr_src/SimulIDE_1.0.0-SR1_Lin64/Timer/Timer.c **** 				I2C_LCD_MoveLeft(1);
 1935               		.stabn	68,0,292,.LM260-.LFBB22
 1936               	.LM260:
 1937 05e2 8091 0000 		lds r24,sec
 1938 05e6 CAE0      		ldi r28,lo8(10)
 1939 05e8 6C2F      		mov r22,r28
 1940 05ea 0E94 0000 		call __udivmodqi4
 293:/home/student/avr_src/SimulIDE_1.0.0-SR1_Lin64/Timer/Timer.c **** 				LCD_CharWrite(num2lcdbyte((sec/10 -1)));
 1941               		.stabn	68,0,293,.LM261-.LFBB22
 1942               	.LM261:
 1943 05ee 81E0      		ldi r24,lo8(1)
 292:/home/student/avr_src/SimulIDE_1.0.0-SR1_Lin64/Timer/Timer.c **** 				I2C_LCD_MoveLeft(1);
 1944               		.stabn	68,0,292,.LM262-.LFBB22
 1945               	.LM262:
 1946 05f0 9111      		cpse r25,__zero_reg__
 1947 05f2 00C0      		rjmp .L94
 293:/home/student/avr_src/SimulIDE_1.0.0-SR1_Lin64/Timer/Timer.c **** 				LCD_CharWrite(num2lcdbyte((sec/10 -1)));
 1948               		.stabn	68,0,293,.LM263-.LFBB22
 1949               	.LM263:
 1950 05f4 0E94 0000 		call I2C_LCD_MoveLeft
 294:/home/student/avr_src/SimulIDE_1.0.0-SR1_Lin64/Timer/Timer.c **** 			}
 1951               		.stabn	68,0,294,.LM264-.LFBB22
 1952               	.LM264:
 1953 05f8 8091 0000 		lds r24,sec
 1954 05fc 6C2F      		mov r22,r28
 1955 05fe 0E94 0000 		call __udivmodqi4
 1956 0602 8150      		subi r24,lo8(-(-1))
 1957 0604 00C0      		rjmp .L99
 1958               	.L94:
 297:/home/student/avr_src/SimulIDE_1.0.0-SR1_Lin64/Timer/Timer.c **** 				LCD_CharWrite(num2lcdbyte((sec/10)));
 1959               		.stabn	68,0,297,.LM265-.LFBB22
 1960               	.LM265:
 1961 0606 0E94 0000 		call I2C_LCD_MoveLeft
 298:/home/student/avr_src/SimulIDE_1.0.0-SR1_Lin64/Timer/Timer.c **** 			}
 1962               		.stabn	68,0,298,.LM266-.LFBB22
 1963               	.LM266:
 1964 060a 8091 0000 		lds r24,sec
 1965 060e 6C2F      		mov r22,r28
 1966 0610 0E94 0000 		call __udivmodqi4
 1967               	.L99:
 1968 0614 0E94 0000 		call num2lcdbyte
 1969 0618 00C0      		rjmp .L100
 1970               	.L93:
 307:/home/student/avr_src/SimulIDE_1.0.0-SR1_Lin64/Timer/Timer.c **** 			I2C_LCD_MoveLeft(1);
 1971               		.stabn	68,0,307,.LM267-.LFBB22
 1972               	.LM267:
 1973 061a 8091 0000 		lds r24,sec
 1974 061e 8A30      		cpi r24,lo8(10)
 1975 0620 01F4      		brne .L86
 308:/home/student/avr_src/SimulIDE_1.0.0-SR1_Lin64/Timer/Timer.c **** 			LCD_CharWrite(num2lcdbyte((0)));
 1976               		.stabn	68,0,308,.LM268-.LFBB22
 1977               	.LM268:
 1978 0622 81E0      		ldi r24,lo8(1)
 1979 0624 0E94 0000 		call I2C_LCD_MoveLeft
 309:/home/student/avr_src/SimulIDE_1.0.0-SR1_Lin64/Timer/Timer.c **** 			LCD_CharWrite(num2lcdbyte((sec-1)%10));
 1980               		.stabn	68,0,309,.LM269-.LFBB22
 1981               	.LM269:
 1982 0628 81E0      		ldi r24,lo8(1)
 1983 062a 91E3      		ldi r25,lo8(49)
 1984               	.L100:
 1985 062c 0E94 0000 		call LCD_CharWrite
 310:/home/student/avr_src/SimulIDE_1.0.0-SR1_Lin64/Timer/Timer.c **** 			I2C_LCD_MoveLeft(1);
 1986               		.stabn	68,0,310,.LM270-.LFBB22
 1987               	.LM270:
 1988 0630 8091 0000 		lds r24,sec
 1989 0634 90E0      		ldi r25,0
 1990 0636 0197      		sbiw r24,1
 1991 0638 6AE0      		ldi r22,lo8(10)
 1992 063a 70E0      		ldi r23,0
 1993 063c 0E94 0000 		call __divmodhi4
 1994 0640 0E94 0000 		call num2lcdbyte
 1995 0644 0E94 0000 		call LCD_CharWrite
 311:/home/student/avr_src/SimulIDE_1.0.0-SR1_Lin64/Timer/Timer.c **** 			LCD_CharWrite(0x00C0);
 1996               		.stabn	68,0,311,.LM271-.LFBB22
 1997               	.LM271:
 1998 0648 81E0      		ldi r24,lo8(1)
 1999 064a 0E94 0000 		call I2C_LCD_MoveLeft
 312:/home/student/avr_src/SimulIDE_1.0.0-SR1_Lin64/Timer/Timer.c **** 			LCD_CharWrite(0x00C0);
 2000               		.stabn	68,0,312,.LM272-.LFBB22
 2001               	.LM272:
 2002 064e 80EC      		ldi r24,lo8(-64)
 2003 0650 90E0      		ldi r25,0
 2004 0652 0E94 0000 		call LCD_CharWrite
 313:/home/student/avr_src/SimulIDE_1.0.0-SR1_Lin64/Timer/Timer.c **** 			time_10ms = 99;
 2005               		.stabn	68,0,313,.LM273-.LFBB22
 2006               	.LM273:
 2007 0656 80EC      		ldi r24,lo8(-64)
 2008 0658 90E0      		ldi r25,0
 2009 065a 0E94 0000 		call LCD_CharWrite
 314:/home/student/avr_src/SimulIDE_1.0.0-SR1_Lin64/Timer/Timer.c **** 			--sec;
 2010               		.stabn	68,0,314,.LM274-.LFBB22
 2011               	.LM274:
 2012 065e 83E6      		ldi r24,lo8(99)
 2013 0660 90E0      		ldi r25,0
 2014 0662 9093 0000 		sts time_10ms+1,r25
 2015 0666 8093 0000 		sts time_10ms,r24
 315:/home/student/avr_src/SimulIDE_1.0.0-SR1_Lin64/Timer/Timer.c **** 		}
 2016               		.stabn	68,0,315,.LM275-.LFBB22
 2017               	.LM275:
 2018 066a 8091 0000 		lds r24,sec
 2019 066e 8150      		subi r24,lo8(-(-1))
 2020 0670 8093 0000 		sts sec,r24
 2021               	.L86:
 2022               	/* epilogue start */
 321:/home/student/avr_src/SimulIDE_1.0.0-SR1_Lin64/Timer/Timer.c **** //====================================================
 2023               		.stabn	68,0,321,.LM276-.LFBB22
 2024               	.LM276:
 2025 0674 CF91      		pop r28
 2026 0676 0895      		ret
 2027               		.size	I2C_Timer_act, .-I2C_Timer_act
 2028               	.Lscope22:
 2029               		.stabs	"",36,0,0,.Lscope22-.LFBB22
 2030               		.stabd	78,0,0
 2031               		.section	.text.startup,"ax",@progbits
 2032               		.stabs	"main:F(0,1)",36,0,91,main
 2033               	.global	main
 2034               		.type	main, @function
 2035               	main:
 2036               		.stabd	46,0,0
  91:/home/student/avr_src/SimulIDE_1.0.0-SR1_Lin64/Timer/Timer.c **** 	sei(); //must be set first position
 2037               		.stabn	68,0,91,.LM277-.LFBB23
 2038               	.LM277:
 2039               	.LFBB23:
 2040               	/* prologue: function */
 2041               	/* frame size = 0 */
 2042               	/* stack size = 0 */
 2043               	.L__stack_usage = 0
  92:/home/student/avr_src/SimulIDE_1.0.0-SR1_Lin64/Timer/Timer.c ****     Port_init();
 2044               		.stabn	68,0,92,.LM278-.LFBB23
 2045               	.LM278:
 2046               	/* #APP */
 2047               	 ;  92 "/home/student/avr_src/SimulIDE_1.0.0-SR1_Lin64/Timer/Timer.c" 1
 2048 0000 7894      		sei
 2049               	 ;  0 "" 2
  93:/home/student/avr_src/SimulIDE_1.0.0-SR1_Lin64/Timer/Timer.c **** 	I2C_LCD_init(0x27);
 2050               		.stabn	68,0,93,.LM279-.LFBB23
 2051               	.LM279:
 2052               	/* #NOAPP */
 2053 0002 0E94 0000 		call Port_init
  94:/home/student/avr_src/SimulIDE_1.0.0-SR1_Lin64/Timer/Timer.c **** 	I2C_LCD_Reset();
 2054               		.stabn	68,0,94,.LM280-.LFBB23
 2055               	.LM280:
 2056 0006 87E2      		ldi r24,lo8(39)
 2057 0008 0E94 0000 		call I2C_LCD_init
  95:/home/student/avr_src/SimulIDE_1.0.0-SR1_Lin64/Timer/Timer.c **** 	I2C_Timer_Default();
 2058               		.stabn	68,0,95,.LM281-.LFBB23
 2059               	.LM281:
 2060 000c 0E94 0000 		call I2C_LCD_Reset
  96:/home/student/avr_src/SimulIDE_1.0.0-SR1_Lin64/Timer/Timer.c ****     USART_init();
 2061               		.stabn	68,0,96,.LM282-.LFBB23
 2062               	.LM282:
 2063 0010 0E94 0000 		call I2C_Timer_Default
  97:/home/student/avr_src/SimulIDE_1.0.0-SR1_Lin64/Timer/Timer.c **** 	Timer1_init();
 2064               		.stabn	68,0,97,.LM283-.LFBB23
 2065               	.LM283:
 2066 0014 0E94 0000 		call USART_init
  98:/home/student/avr_src/SimulIDE_1.0.0-SR1_Lin64/Timer/Timer.c **** 	TIME_SETTING(1,2);
 2067               		.stabn	68,0,98,.LM284-.LFBB23
 2068               	.LM284:
 2069 0018 0E94 0000 		call Timer1_init
 2070               	.LBB190:
 2071               	.LBB191:
 133:/home/student/avr_src/SimulIDE_1.0.0-SR1_Lin64/Timer/Timer.c **** 	sec = s;
 2072               		.stabn	68,0,133,.LM285-.LFBB23
 2073               	.LM285:
 2074 001c 81E0      		ldi r24,lo8(1)
 2075 001e 8093 0000 		sts min,r24
 134:/home/student/avr_src/SimulIDE_1.0.0-SR1_Lin64/Timer/Timer.c **** }
 2076               		.stabn	68,0,134,.LM286-.LFBB23
 2077               	.LM286:
 2078 0022 82E0      		ldi r24,lo8(2)
 2079 0024 8093 0000 		sts sec,r24
 2080               	.LBE191:
 2081               	.LBE190:
 101:/home/student/avr_src/SimulIDE_1.0.0-SR1_Lin64/Timer/Timer.c **** 		if(end_flag) {
 2082               		.stabn	68,0,101,.LM287-.LFBB23
 2083               	.LM287:
 2084 0028 11E0      		ldi r17,lo8(1)
 2085               	.LBB192:
 2086               	.LBB193:
 134:/home/student/avr_src/SimulIDE_1.0.0-SR1_Lin64/Timer/Timer.c **** }
 2087               		.stabn	68,0,134,.LM288-.LFBB23
 2088               	.LM288:
 2089 002a 02E0      		ldi r16,lo8(2)
 2090               	.LBE193:
 2091               	.LBE192:
 113:/home/student/avr_src/SimulIDE_1.0.0-SR1_Lin64/Timer/Timer.c **** 				job++;
 2092               		.stabn	68,0,113,.LM289-.LFBB23
 2093               	.LM289:
 2094 002c C4E6      		ldi r28,lo8(100)
 2095 002e D0E0      		ldi r29,0
 2096               	.L103:
 101:/home/student/avr_src/SimulIDE_1.0.0-SR1_Lin64/Timer/Timer.c **** 		if(end_flag) {
 2097               		.stabn	68,0,101,.LM290-.LFBB23
 2098               	.LM290:
 2099 0030 88B1      		in r24,0x8
 2100 0032 8127      		eor r24,r17
 2101 0034 88B9      		out 0x8,r24
 102:/home/student/avr_src/SimulIDE_1.0.0-SR1_Lin64/Timer/Timer.c **** 			end_flag = 0;
 2102               		.stabn	68,0,102,.LM291-.LFBB23
 2103               	.LM291:
 2104 0036 8091 0000 		lds r24,end_flag
 2105 003a 8823      		tst r24
 2106 003c 01F0      		breq .L105
 103:/home/student/avr_src/SimulIDE_1.0.0-SR1_Lin64/Timer/Timer.c **** 			timer_start_flag = 0;
 2107               		.stabn	68,0,103,.LM292-.LFBB23
 2108               	.LM292:
 2109 003e 1092 0000 		sts end_flag,__zero_reg__
 104:/home/student/avr_src/SimulIDE_1.0.0-SR1_Lin64/Timer/Timer.c **** 			TIME_SETTING(1,2);
 2110               		.stabn	68,0,104,.LM293-.LFBB23
 2111               	.LM293:
 2112 0042 1092 0000 		sts timer_start_flag,__zero_reg__
 2113               	.LBB195:
 2114               	.LBB194:
 133:/home/student/avr_src/SimulIDE_1.0.0-SR1_Lin64/Timer/Timer.c **** 	sec = s;
 2115               		.stabn	68,0,133,.LM294-.LFBB23
 2116               	.LM294:
 2117 0046 1093 0000 		sts min,r17
 134:/home/student/avr_src/SimulIDE_1.0.0-SR1_Lin64/Timer/Timer.c **** }
 2118               		.stabn	68,0,134,.LM295-.LFBB23
 2119               	.LM295:
 2120 004a 0093 0000 		sts sec,r16
 2121               	.LBE194:
 2122               	.LBE195:
 106:/home/student/avr_src/SimulIDE_1.0.0-SR1_Lin64/Timer/Timer.c **** 			job = 0;
 2123               		.stabn	68,0,106,.LM296-.LFBB23
 2124               	.LM296:
 2125 004e 0E94 0000 		call I2C_Timer_Default
 107:/home/student/avr_src/SimulIDE_1.0.0-SR1_Lin64/Timer/Timer.c **** 		}
 2126               		.stabn	68,0,107,.LM297-.LFBB23
 2127               	.LM297:
 2128 0052 1092 0000 		sts job,__zero_reg__
 2129               	.L105:
 109:/home/student/avr_src/SimulIDE_1.0.0-SR1_Lin64/Timer/Timer.c **** 		{
 2130               		.stabn	68,0,109,.LM298-.LFBB23
 2131               	.LM298:
 2132 0056 8091 0000 		lds r24,job
 2133 005a 8130      		cpi r24,lo8(1)
 2134 005c 01F0      		breq .L106
 2135 005e 00F0      		brlo .L107
 2136 0060 8230      		cpi r24,lo8(2)
 2137 0062 01F0      		breq .L108
 2138 0064 8330      		cpi r24,lo8(3)
 2139 0066 01F0      		breq .L109
 2140 0068 00C0      		rjmp .L103
 2141               	.L107:
 112:/home/student/avr_src/SimulIDE_1.0.0-SR1_Lin64/Timer/Timer.c **** 				time_1s = 100;
 2142               		.stabn	68,0,112,.LM299-.LFBB23
 2143               	.LM299:
 2144 006a 8091 0000 		lds r24,timer_start_flag
 2145 006e 8823      		tst r24
 2146 0070 01F0      		breq .L103
 113:/home/student/avr_src/SimulIDE_1.0.0-SR1_Lin64/Timer/Timer.c **** 				job++;
 2147               		.stabn	68,0,113,.LM300-.LFBB23
 2148               	.LM300:
 2149 0072 D093 0000 		sts time_1s+1,r29
 2150 0076 C093 0000 		sts time_1s,r28
 2151 007a 00C0      		rjmp .L123
 2152               	.L106:
 118:/home/student/avr_src/SimulIDE_1.0.0-SR1_Lin64/Timer/Timer.c **** 			else job++;
 2153               		.stabn	68,0,118,.LM301-.LFBB23
 2154               	.LM301:
 2155 007c 8091 0000 		lds r24,time_1s
 2156 0080 9091 0000 		lds r25,time_1s+1
 2157 0084 892B      		or r24,r25
 2158 0086 01F4      		brne .L103
 119:/home/student/avr_src/SimulIDE_1.0.0-SR1_Lin64/Timer/Timer.c **** 		case 2:
 2159               		.stabn	68,0,119,.LM302-.LFBB23
 2160               	.LM302:
 2161 0088 8091 0000 		lds r24,job
 2162 008c 8F5F      		subi r24,lo8(-(1))
 2163 008e 8093 0000 		sts job,r24
 2164               	.L108:
 121:/home/student/avr_src/SimulIDE_1.0.0-SR1_Lin64/Timer/Timer.c **** 			job++;
 2165               		.stabn	68,0,121,.LM303-.LFBB23
 2166               	.LM303:
 2167 0092 0E94 0000 		call I2C_Timer_act
 122:/home/student/avr_src/SimulIDE_1.0.0-SR1_Lin64/Timer/Timer.c **** 		case 3:
 2168               		.stabn	68,0,122,.LM304-.LFBB23
 2169               	.LM304:
 2170 0096 8091 0000 		lds r24,job
 2171 009a 8F5F      		subi r24,lo8(-(1))
 2172 009c 8093 0000 		sts job,r24
 2173               	.L109:
 124:/home/student/avr_src/SimulIDE_1.0.0-SR1_Lin64/Timer/Timer.c **** 			else job = 0;
 2174               		.stabn	68,0,124,.LM305-.LFBB23
 2175               	.LM305:
 2176 00a0 8091 0000 		lds r24,end_flag
 2177 00a4 8823      		tst r24
 2178 00a6 01F0      		breq .L110
 2179               	.L123:
 124:/home/student/avr_src/SimulIDE_1.0.0-SR1_Lin64/Timer/Timer.c **** 			else job = 0;
 2180               		.stabn	68,0,124,.LM306-.LFBB23
 2181               	.LM306:
 2182 00a8 8091 0000 		lds r24,job
 2183 00ac 8F5F      		subi r24,lo8(-(1))
 2184 00ae 8093 0000 		sts job,r24
 2185 00b2 00C0      		rjmp .L103
 2186               	.L110:
 125:/home/student/avr_src/SimulIDE_1.0.0-SR1_Lin64/Timer/Timer.c **** 		default:
 2187               		.stabn	68,0,125,.LM307-.LFBB23
 2188               	.LM307:
 2189 00b4 1092 0000 		sts job,__zero_reg__
 2190 00b8 00C0      		rjmp .L103
 2191               		.size	main, .-main
 2192               	.Lscope23:
 2193               		.stabs	"",36,0,0,.Lscope23-.LFBB23
 2194               		.stabd	78,0,0
 2195               		.text
 2196               		.stabs	"I2C_LCD_SELECT:F(0,49)",36,0,341,I2C_LCD_SELECT
 2197               	.global	I2C_LCD_SELECT
 2198               		.type	I2C_LCD_SELECT, @function
 2199               	I2C_LCD_SELECT:
 2200               		.stabd	46,0,0
 341:/home/student/avr_src/SimulIDE_1.0.0-SR1_Lin64/Timer/Timer.c **** 	sel_flag ^= 1;
 2201               		.stabn	68,0,341,.LM308-.LFBB24
 2202               	.LM308:
 2203               	.LFBB24:
 2204               	/* prologue: function */
 2205               	/* frame size = 0 */
 2206               	/* stack size = 0 */
 2207               	.L__stack_usage = 0
 342:/home/student/avr_src/SimulIDE_1.0.0-SR1_Lin64/Timer/Timer.c **** 	if(sel_flag){
 2208               		.stabn	68,0,342,.LM309-.LFBB24
 2209               	.LM309:
 2210 0678 9091 0000 		lds r25,sel_flag
 2211 067c 81E0      		ldi r24,lo8(1)
 2212 067e 8927      		eor r24,r25
 2213 0680 8093 0000 		sts sel_flag,r24
 343:/home/student/avr_src/SimulIDE_1.0.0-SR1_Lin64/Timer/Timer.c **** 		LCD_CharWrite(0x00F0);
 2214               		.stabn	68,0,343,.LM310-.LFBB24
 2215               	.LM310:
 2216 0684 8091 0000 		lds r24,sel_flag
 2217 0688 8823      		tst r24
 2218 068a 01F0      		breq .L125
 2219               	.LBB198:
 2220               	.LBB199:
 344:/home/student/avr_src/SimulIDE_1.0.0-SR1_Lin64/Timer/Timer.c **** 		LCD_CharWrite(0x00F0);
 2221               		.stabn	68,0,344,.LM311-.LFBB24
 2222               	.LM311:
 2223 068c 80EF      		ldi r24,lo8(-16)
 2224 068e 90E0      		ldi r25,0
 2225 0690 0E94 0000 		call LCD_CharWrite
 345:/home/student/avr_src/SimulIDE_1.0.0-SR1_Lin64/Timer/Timer.c **** 	} 
 2226               		.stabn	68,0,345,.LM312-.LFBB24
 2227               	.LM312:
 2228 0694 80EF      		ldi r24,lo8(-16)
 2229 0696 90E0      		ldi r25,0
 2230 0698 00C0      		rjmp .L126
 2231               	.L125:
 2232               	.LBE199:
 2233               	.LBE198:
 348:/home/student/avr_src/SimulIDE_1.0.0-SR1_Lin64/Timer/Timer.c **** 		LCD_CharWrite(0x00E0);
 2234               		.stabn	68,0,348,.LM313-.LFBB24
 2235               	.LM313:
 2236 069a 80EE      		ldi r24,lo8(-32)
 2237 069c 90E0      		ldi r25,0
 2238 069e 0E94 0000 		call LCD_CharWrite
 349:/home/student/avr_src/SimulIDE_1.0.0-SR1_Lin64/Timer/Timer.c **** 	}
 2239               		.stabn	68,0,349,.LM314-.LFBB24
 2240               	.LM314:
 2241 06a2 80EE      		ldi r24,lo8(-32)
 2242 06a4 90E0      		ldi r25,0
 2243               	.L126:
 2244 06a6 0C94 0000 		jmp LCD_CharWrite
 2245               		.size	I2C_LCD_SELECT, .-I2C_LCD_SELECT
 2246               	.Lscope24:
 2247               		.stabs	"",36,0,0,.Lscope24-.LFBB24
 2248               		.stabd	78,0,0
 2249               		.stabs	"__vector_11:F(0,49)",36,0,354,__vector_11
 2250               	.global	__vector_11
 2251               		.type	__vector_11, @function
 2252               	__vector_11:
 2253               		.stabd	46,0,0
 354:/home/student/avr_src/SimulIDE_1.0.0-SR1_Lin64/Timer/Timer.c **** 	if(time_1s) time_1s--;
 2254               		.stabn	68,0,354,.LM315-.LFBB25
 2255               	.LM315:
 2256               	.LFBB25:
 2257 06aa 1F92      		push r1
 2258 06ac 0F92      		push r0
 2259 06ae 0FB6      		in r0,__SREG__
 2260 06b0 0F92      		push r0
 2261 06b2 1124      		clr __zero_reg__
 2262 06b4 2F93      		push r18
 2263 06b6 3F93      		push r19
 2264 06b8 4F93      		push r20
 2265 06ba 5F93      		push r21
 2266 06bc 6F93      		push r22
 2267 06be 7F93      		push r23
 2268 06c0 8F93      		push r24
 2269 06c2 9F93      		push r25
 2270 06c4 AF93      		push r26
 2271 06c6 BF93      		push r27
 2272 06c8 CF93      		push r28
 2273 06ca DF93      		push r29
 2274 06cc EF93      		push r30
 2275 06ce FF93      		push r31
 2276               	/* prologue: Signal */
 2277               	/* frame size = 0 */
 2278               	/* stack size = 17 */
 2279               	.L__stack_usage = 17
 355:/home/student/avr_src/SimulIDE_1.0.0-SR1_Lin64/Timer/Timer.c **** 	if(time_10ms) time_10ms--;
 2280               		.stabn	68,0,355,.LM316-.LFBB25
 2281               	.LM316:
 2282 06d0 8091 0000 		lds r24,time_1s
 2283 06d4 9091 0000 		lds r25,time_1s+1
 2284 06d8 892B      		or r24,r25
 2285 06da 01F0      		breq .L128
 355:/home/student/avr_src/SimulIDE_1.0.0-SR1_Lin64/Timer/Timer.c **** 	if(time_10ms) time_10ms--;
 2286               		.stabn	68,0,355,.LM317-.LFBB25
 2287               	.LM317:
 2288 06dc 8091 0000 		lds r24,time_1s
 2289 06e0 9091 0000 		lds r25,time_1s+1
 2290 06e4 0197      		sbiw r24,1
 2291 06e6 9093 0000 		sts time_1s+1,r25
 2292 06ea 8093 0000 		sts time_1s,r24
 2293               	.L128:
 356:/home/student/avr_src/SimulIDE_1.0.0-SR1_Lin64/Timer/Timer.c **** 	PORTC ^= 0x01;
 2294               		.stabn	68,0,356,.LM318-.LFBB25
 2295               	.LM318:
 2296 06ee 8091 0000 		lds r24,time_10ms
 2297 06f2 9091 0000 		lds r25,time_10ms+1
 2298 06f6 892B      		or r24,r25
 2299 06f8 01F0      		breq .L129
 356:/home/student/avr_src/SimulIDE_1.0.0-SR1_Lin64/Timer/Timer.c **** 	PORTC ^= 0x01;
 2300               		.stabn	68,0,356,.LM319-.LFBB25
 2301               	.LM319:
 2302 06fa 8091 0000 		lds r24,time_10ms
 2303 06fe 9091 0000 		lds r25,time_10ms+1
 2304 0702 0197      		sbiw r24,1
 2305 0704 9093 0000 		sts time_10ms+1,r25
 2306 0708 8093 0000 		sts time_10ms,r24
 2307               	.L129:
 357:/home/student/avr_src/SimulIDE_1.0.0-SR1_Lin64/Timer/Timer.c **** 
 2308               		.stabn	68,0,357,.LM320-.LFBB25
 2309               	.LM320:
 2310 070c 98B1      		in r25,0x8
 2311 070e 81E0      		ldi r24,lo8(1)
 2312 0710 8927      		eor r24,r25
 2313 0712 88B9      		out 0x8,r24
 360:/home/student/avr_src/SimulIDE_1.0.0-SR1_Lin64/Timer/Timer.c **** 		
 2314               		.stabn	68,0,360,.LM321-.LFBB25
 2315               	.LM321:
 2316 0714 8091 0000 		lds r24,timer_start_flag
 2317 0718 8823      		tst r24
 2318 071a 01F0      		breq .L130
 360:/home/student/avr_src/SimulIDE_1.0.0-SR1_Lin64/Timer/Timer.c **** 		
 2319               		.stabn	68,0,360,.LM322-.LFBB25
 2320               	.LM322:
 2321 071c 8091 0000 		lds r24,time_10ms
 2322 0720 9091 0000 		lds r25,time_10ms+1
 2323 0724 892B      		or r24,r25
 2324 0726 01F0      		breq .L130
 362:/home/student/avr_src/SimulIDE_1.0.0-SR1_Lin64/Timer/Timer.c **** 		LCD_CharWrite(num2lcdbyte(time_10ms/10));
 2325               		.stabn	68,0,362,.LM323-.LFBB25
 2326               	.LM323:
 2327 0728 82E0      		ldi r24,lo8(2)
 2328 072a 0E94 0000 		call I2C_LCD_MoveRight
 363:/home/student/avr_src/SimulIDE_1.0.0-SR1_Lin64/Timer/Timer.c **** 		LCD_CharWrite(num2lcdbyte(time_10ms % 10));
 2329               		.stabn	68,0,363,.LM324-.LFBB25
 2330               	.LM324:
 2331 072e 8091 0000 		lds r24,time_10ms
 2332 0732 9091 0000 		lds r25,time_10ms+1
 2333 0736 CAE0      		ldi r28,lo8(10)
 2334 0738 D0E0      		ldi r29,0
 2335 073a BE01      		movw r22,r28
 2336 073c 0E94 0000 		call __udivmodhi4
 2337 0740 862F      		mov r24,r22
 2338 0742 0E94 0000 		call num2lcdbyte
 2339 0746 0E94 0000 		call LCD_CharWrite
 364:/home/student/avr_src/SimulIDE_1.0.0-SR1_Lin64/Timer/Timer.c **** 		I2C_LCD_MoveLeft(4);
 2340               		.stabn	68,0,364,.LM325-.LFBB25
 2341               	.LM325:
 2342 074a 8091 0000 		lds r24,time_10ms
 2343 074e 9091 0000 		lds r25,time_10ms+1
 2344 0752 BE01      		movw r22,r28
 2345 0754 0E94 0000 		call __udivmodhi4
 2346 0758 0E94 0000 		call num2lcdbyte
 2347 075c 0E94 0000 		call LCD_CharWrite
 365:/home/student/avr_src/SimulIDE_1.0.0-SR1_Lin64/Timer/Timer.c **** 		LCD_CharWrite(0x00C0);
 2348               		.stabn	68,0,365,.LM326-.LFBB25
 2349               	.LM326:
 2350 0760 84E0      		ldi r24,lo8(4)
 2351 0762 0E94 0000 		call I2C_LCD_MoveLeft
 366:/home/student/avr_src/SimulIDE_1.0.0-SR1_Lin64/Timer/Timer.c **** 		LCD_CharWrite(0x00C0);
 2352               		.stabn	68,0,366,.LM327-.LFBB25
 2353               	.LM327:
 2354 0766 80EC      		ldi r24,lo8(-64)
 2355 0768 90E0      		ldi r25,0
 2356 076a 0E94 0000 		call LCD_CharWrite
 367:/home/student/avr_src/SimulIDE_1.0.0-SR1_Lin64/Timer/Timer.c **** 		return;
 2357               		.stabn	68,0,367,.LM328-.LFBB25
 2358               	.LM328:
 2359 076e 80EC      		ldi r24,lo8(-64)
 2360 0770 90E0      		ldi r25,0
 2361 0772 0E94 0000 		call LCD_CharWrite
 368:/home/student/avr_src/SimulIDE_1.0.0-SR1_Lin64/Timer/Timer.c **** 	}
 2362               		.stabn	68,0,368,.LM329-.LFBB25
 2363               	.LM329:
 2364 0776 00C0      		rjmp .L127
 2365               	.L130:
 372:/home/student/avr_src/SimulIDE_1.0.0-SR1_Lin64/Timer/Timer.c **** 	
 2366               		.stabn	68,0,372,.LM330-.LFBB25
 2367               	.LM330:
 2368 0778 0E94 0000 		call key_scan
 2369 077c 8093 0000 		sts key_data,r24
 374:/home/student/avr_src/SimulIDE_1.0.0-SR1_Lin64/Timer/Timer.c **** 		key_flag = 0;
 2370               		.stabn	68,0,374,.LM331-.LFBB25
 2371               	.LM331:
 2372 0780 8091 0000 		lds r24,sel_flag
 2373 0784 8823      		tst r24
 2374 0786 01F0      		breq .L133
 374:/home/student/avr_src/SimulIDE_1.0.0-SR1_Lin64/Timer/Timer.c **** 		key_flag = 0;
 2375               		.stabn	68,0,374,.LM332-.LFBB25
 2376               	.LM332:
 2377 0788 8091 0000 		lds r24,key_flag
 2378 078c 8823      		tst r24
 2379 078e 01F0      		breq .L133
 375:/home/student/avr_src/SimulIDE_1.0.0-SR1_Lin64/Timer/Timer.c **** 		if(key_data == 0xff){
 2380               		.stabn	68,0,375,.LM333-.LFBB25
 2381               	.LM333:
 2382 0790 1092 0000 		sts key_flag,__zero_reg__
 376:/home/student/avr_src/SimulIDE_1.0.0-SR1_Lin64/Timer/Timer.c ****             return;
 2383               		.stabn	68,0,376,.LM334-.LFBB25
 2384               	.LM334:
 2385 0794 8091 0000 		lds r24,key_data
 2386 0798 8F3F      		cpi r24,lo8(-1)
 2387 079a 01F4      		brne .+2
 2388 079c 00C0      		rjmp .L127
 379:/home/student/avr_src/SimulIDE_1.0.0-SR1_Lin64/Timer/Timer.c **** 			LCD_CharWrite(num2lcdbyte(2));
 2389               		.stabn	68,0,379,.LM335-.LFBB25
 2390               	.LM335:
 2391 079e 8091 0000 		lds r24,key_data
 2392 07a2 8230      		cpi r24,lo8(2)
 2393 07a4 01F4      		brne .L136
 380:/home/student/avr_src/SimulIDE_1.0.0-SR1_Lin64/Timer/Timer.c ****         	LCD_CharWrite(0x1000);
 2394               		.stabn	68,0,380,.LM336-.LFBB25
 2395               	.LM336:
 2396 07a6 81E2      		ldi r24,lo8(33)
 2397 07a8 91E3      		ldi r25,lo8(49)
 2398 07aa 0E94 0000 		call LCD_CharWrite
 381:/home/student/avr_src/SimulIDE_1.0.0-SR1_Lin64/Timer/Timer.c ****         	LCD_CharWrite(0x00F0);
 2399               		.stabn	68,0,381,.LM337-.LFBB25
 2400               	.LM337:
 2401 07ae 80E0      		ldi r24,0
 2402 07b0 90E1      		ldi r25,lo8(16)
 2403 07b2 0E94 0000 		call LCD_CharWrite
 382:/home/student/avr_src/SimulIDE_1.0.0-SR1_Lin64/Timer/Timer.c **** 		}
 2404               		.stabn	68,0,382,.LM338-.LFBB25
 2405               	.LM338:
 2406 07b6 80EF      		ldi r24,lo8(-16)
 2407 07b8 90E0      		ldi r25,0
 2408 07ba 0E94 0000 		call LCD_CharWrite
 2409               	.L136:
 384:/home/student/avr_src/SimulIDE_1.0.0-SR1_Lin64/Timer/Timer.c **** 			LCD_CharWrite(num2lcdbyte(8));
 2410               		.stabn	68,0,384,.LM339-.LFBB25
 2411               	.LM339:
 2412 07be 8091 0000 		lds r24,key_data
 2413 07c2 8830      		cpi r24,lo8(8)
 2414 07c4 01F4      		brne .L137
 385:/home/student/avr_src/SimulIDE_1.0.0-SR1_Lin64/Timer/Timer.c **** 			LCD_CharWrite(0x1000);
 2415               		.stabn	68,0,385,.LM340-.LFBB25
 2416               	.LM340:
 2417 07c6 81E8      		ldi r24,lo8(-127)
 2418 07c8 91E3      		ldi r25,lo8(49)
 2419 07ca 0E94 0000 		call LCD_CharWrite
 386:/home/student/avr_src/SimulIDE_1.0.0-SR1_Lin64/Timer/Timer.c ****             LCD_CharWrite(0x00F0);
 2420               		.stabn	68,0,386,.LM341-.LFBB25
 2421               	.LM341:
 2422 07ce 80E0      		ldi r24,0
 2423 07d0 90E1      		ldi r25,lo8(16)
 2424 07d2 0E94 0000 		call LCD_CharWrite
 387:/home/student/avr_src/SimulIDE_1.0.0-SR1_Lin64/Timer/Timer.c **** 		}
 2425               		.stabn	68,0,387,.LM342-.LFBB25
 2426               	.LM342:
 2427 07d6 80EF      		ldi r24,lo8(-16)
 2428 07d8 90E0      		ldi r25,0
 2429 07da 0E94 0000 		call LCD_CharWrite
 2430               	.L137:
 389:/home/student/avr_src/SimulIDE_1.0.0-SR1_Lin64/Timer/Timer.c **** 			I2C_LCD_SELECT();
 2431               		.stabn	68,0,389,.LM343-.LFBB25
 2432               	.LM343:
 2433 07de 8091 0000 		lds r24,key_data
 2434 07e2 8530      		cpi r24,lo8(5)
 2435 07e4 01F4      		brne .L133
 390:/home/student/avr_src/SimulIDE_1.0.0-SR1_Lin64/Timer/Timer.c **** 		}
 2436               		.stabn	68,0,390,.LM344-.LFBB25
 2437               	.LM344:
 2438 07e6 0E94 0000 		call I2C_LCD_SELECT
 2439               	.L133:
 394:/home/student/avr_src/SimulIDE_1.0.0-SR1_Lin64/Timer/Timer.c **** 		key_flag = 0;
 2440               		.stabn	68,0,394,.LM345-.LFBB25
 2441               	.LM345:
 2442 07ea 8091 0000 		lds r24,key_flag
 2443 07ee 8823      		tst r24
 2444 07f0 01F4      		brne .+2
 2445 07f2 00C0      		rjmp .L138
 394:/home/student/avr_src/SimulIDE_1.0.0-SR1_Lin64/Timer/Timer.c **** 		key_flag = 0;
 2446               		.stabn	68,0,394,.LM346-.LFBB25
 2447               	.LM346:
 2448 07f4 8091 0000 		lds r24,sel_flag
 2449 07f8 8111      		cpse r24,__zero_reg__
 2450 07fa 00C0      		rjmp .L138
 395:/home/student/avr_src/SimulIDE_1.0.0-SR1_Lin64/Timer/Timer.c **** 		if(key_data == 0xff){
 2451               		.stabn	68,0,395,.LM347-.LFBB25
 2452               	.LM347:
 2453 07fc 1092 0000 		sts key_flag,__zero_reg__
 396:/home/student/avr_src/SimulIDE_1.0.0-SR1_Lin64/Timer/Timer.c ****             return;
 2454               		.stabn	68,0,396,.LM348-.LFBB25
 2455               	.LM348:
 2456 0800 8091 0000 		lds r24,key_data
 2457 0804 8F3F      		cpi r24,lo8(-1)
 2458 0806 01F4      		brne .+2
 2459 0808 00C0      		rjmp .L127
 400:/home/student/avr_src/SimulIDE_1.0.0-SR1_Lin64/Timer/Timer.c **** 			I2C_Timer_Default();
 2460               		.stabn	68,0,400,.LM349-.LFBB25
 2461               	.LM349:
 2462 080a 8091 0000 		lds r24,key_data
 2463 080e 8A30      		cpi r24,lo8(10)
 2464 0810 01F4      		brne .L140
 401:/home/student/avr_src/SimulIDE_1.0.0-SR1_Lin64/Timer/Timer.c ****         }
 2465               		.stabn	68,0,401,.LM350-.LFBB25
 2466               	.LM350:
 2467 0812 0E94 0000 		call I2C_Timer_Default
 2468               	.L140:
 403:/home/student/avr_src/SimulIDE_1.0.0-SR1_Lin64/Timer/Timer.c **** 			timer_start_flag ^= 1;
 2469               		.stabn	68,0,403,.LM351-.LFBB25
 2470               	.LM351:
 2471 0816 8091 0000 		lds r24,key_data
 2472 081a 8B30      		cpi r24,lo8(11)
 2473 081c 01F4      		brne .L141
 404:/home/student/avr_src/SimulIDE_1.0.0-SR1_Lin64/Timer/Timer.c **** 		}                                                       
 2474               		.stabn	68,0,404,.LM352-.LFBB25
 2475               	.LM352:
 2476 081e 9091 0000 		lds r25,timer_start_flag
 2477 0822 81E0      		ldi r24,lo8(1)
 2478 0824 8927      		eor r24,r25
 2479 0826 8093 0000 		sts timer_start_flag,r24
 2480               	.L141:
 406:/home/student/avr_src/SimulIDE_1.0.0-SR1_Lin64/Timer/Timer.c **** 			LCD_CharWrite(0x00E0);
 2481               		.stabn	68,0,406,.LM353-.LFBB25
 2482               	.LM353:
 2483 082a 8091 0000 		lds r24,key_data
 2484 082e 8130      		cpi r24,lo8(1)
 2485 0830 01F4      		brne .L142
 407:/home/student/avr_src/SimulIDE_1.0.0-SR1_Lin64/Timer/Timer.c ****             LCD_CharWrite(0x00E0);
 2486               		.stabn	68,0,407,.LM354-.LFBB25
 2487               	.LM354:
 2488 0832 80EE      		ldi r24,lo8(-32)
 2489 0834 90E0      		ldi r25,0
 2490 0836 0E94 0000 		call LCD_CharWrite
 408:/home/student/avr_src/SimulIDE_1.0.0-SR1_Lin64/Timer/Timer.c **** 			//key_data += '0';
 2491               		.stabn	68,0,408,.LM355-.LFBB25
 2492               	.LM355:
 2493 083a 80EE      		ldi r24,lo8(-32)
 2494 083c 90E0      		ldi r25,0
 2495 083e 0E94 0000 		call LCD_CharWrite
 2496               	.L142:
 412:/home/student/avr_src/SimulIDE_1.0.0-SR1_Lin64/Timer/Timer.c **** 			I2C_Timer_act();
 2497               		.stabn	68,0,412,.LM356-.LFBB25
 2498               	.LM356:
 2499 0842 8091 0000 		lds r24,key_data
 2500 0846 8330      		cpi r24,lo8(3)
 2501 0848 01F4      		brne .L143
 413:/home/student/avr_src/SimulIDE_1.0.0-SR1_Lin64/Timer/Timer.c **** 		}
 2502               		.stabn	68,0,413,.LM357-.LFBB25
 2503               	.LM357:
 2504 084a 0E94 0000 		call I2C_Timer_act
 2505               	.L143:
 415:/home/student/avr_src/SimulIDE_1.0.0-SR1_Lin64/Timer/Timer.c **** 			I2C_LCD_MoveLeft(1);
 2506               		.stabn	68,0,415,.LM358-.LFBB25
 2507               	.LM358:
 2508 084e 8091 0000 		lds r24,key_data
 2509 0852 8430      		cpi r24,lo8(4)
 2510 0854 01F4      		brne .L144
 416:/home/student/avr_src/SimulIDE_1.0.0-SR1_Lin64/Timer/Timer.c **** 		}
 2511               		.stabn	68,0,416,.LM359-.LFBB25
 2512               	.LM359:
 2513 0856 81E0      		ldi r24,lo8(1)
 2514 0858 0E94 0000 		call I2C_LCD_MoveLeft
 2515               	.L144:
 418:/home/student/avr_src/SimulIDE_1.0.0-SR1_Lin64/Timer/Timer.c **** 			I2C_LCD_SELECT();
 2516               		.stabn	68,0,418,.LM360-.LFBB25
 2517               	.LM360:
 2518 085c 8091 0000 		lds r24,key_data
 2519 0860 8530      		cpi r24,lo8(5)
 2520 0862 01F4      		brne .L145
 419:/home/student/avr_src/SimulIDE_1.0.0-SR1_Lin64/Timer/Timer.c **** 		}
 2521               		.stabn	68,0,419,.LM361-.LFBB25
 2522               	.LM361:
 2523 0864 0E94 0000 		call I2C_LCD_SELECT
 2524               	.L145:
 421:/home/student/avr_src/SimulIDE_1.0.0-SR1_Lin64/Timer/Timer.c **** 			I2C_LCD_MoveRight(1);
 2525               		.stabn	68,0,421,.LM362-.LFBB25
 2526               	.LM362:
 2527 0868 8091 0000 		lds r24,key_data
 2528 086c 8630      		cpi r24,lo8(6)
 2529 086e 01F4      		brne .L146
 422:/home/student/avr_src/SimulIDE_1.0.0-SR1_Lin64/Timer/Timer.c **** 		}
 2530               		.stabn	68,0,422,.LM363-.LFBB25
 2531               	.LM363:
 2532 0870 81E0      		ldi r24,lo8(1)
 2533 0872 0E94 0000 		call I2C_LCD_MoveRight
 2534               	.L146:
 424:/home/student/avr_src/SimulIDE_1.0.0-SR1_Lin64/Timer/Timer.c **** 			LCD_CharWrite(num2lcdbyte(7));
 2535               		.stabn	68,0,424,.LM364-.LFBB25
 2536               	.LM364:
 2537 0876 8091 0000 		lds r24,key_data
 2538 087a 8730      		cpi r24,lo8(7)
 2539 087c 01F4      		brne .L147
 425:/home/student/avr_src/SimulIDE_1.0.0-SR1_Lin64/Timer/Timer.c ****             LCD_CharWrite(0x00E0);
 2540               		.stabn	68,0,425,.LM365-.LFBB25
 2541               	.LM365:
 2542 087e 81E7      		ldi r24,lo8(113)
 2543 0880 91E3      		ldi r25,lo8(49)
 2544 0882 0E94 0000 		call LCD_CharWrite
 426:/home/student/avr_src/SimulIDE_1.0.0-SR1_Lin64/Timer/Timer.c **** 			//key_data += '0';
 2545               		.stabn	68,0,426,.LM366-.LFBB25
 2546               	.LM366:
 2547 0886 80EE      		ldi r24,lo8(-32)
 2548 0888 90E0      		ldi r25,0
 2549 088a 0E94 0000 		call LCD_CharWrite
 2550               	.L147:
 430:/home/student/avr_src/SimulIDE_1.0.0-SR1_Lin64/Timer/Timer.c **** 			LCD_CharWrite(num2lcdbyte(9));
 2551               		.stabn	68,0,430,.LM367-.LFBB25
 2552               	.LM367:
 2553 088e 8091 0000 		lds r24,key_data
 2554 0892 8930      		cpi r24,lo8(9)
 2555 0894 01F4      		brne .L148
 431:/home/student/avr_src/SimulIDE_1.0.0-SR1_Lin64/Timer/Timer.c ****             LCD_CharWrite(0x00E0);
 2556               		.stabn	68,0,431,.LM368-.LFBB25
 2557               	.LM368:
 2558 0896 81E9      		ldi r24,lo8(-111)
 2559 0898 91E3      		ldi r25,lo8(49)
 2560 089a 0E94 0000 		call LCD_CharWrite
 432:/home/student/avr_src/SimulIDE_1.0.0-SR1_Lin64/Timer/Timer.c **** 			//key_data += '0';
 2561               		.stabn	68,0,432,.LM369-.LFBB25
 2562               	.LM369:
 2563 089e 80EE      		ldi r24,lo8(-32)
 2564 08a0 90E0      		ldi r25,0
 2565 08a2 0E94 0000 		call LCD_CharWrite
 2566               	.L148:
 435:/home/student/avr_src/SimulIDE_1.0.0-SR1_Lin64/Timer/Timer.c **** 			
 2567               		.stabn	68,0,435,.LM370-.LFBB25
 2568               	.LM370:
 2569 08a6 8091 0000 		lds r24,key_data
 2570 08aa 8111      		cpse r24,__zero_reg__
 2571 08ac 00C0      		rjmp .L149
 437:/home/student/avr_src/SimulIDE_1.0.0-SR1_Lin64/Timer/Timer.c ****             LCD_CharWrite(0x00E0);
 2572               		.stabn	68,0,437,.LM371-.LFBB25
 2573               	.LM371:
 2574 08ae 81E0      		ldi r24,lo8(1)
 2575 08b0 91E3      		ldi r25,lo8(49)
 2576 08b2 0E94 0000 		call LCD_CharWrite
 438:/home/student/avr_src/SimulIDE_1.0.0-SR1_Lin64/Timer/Timer.c **** 		}
 2577               		.stabn	68,0,438,.LM372-.LFBB25
 2578               	.LM372:
 2579 08b6 80EE      		ldi r24,lo8(-32)
 2580 08b8 90E0      		ldi r25,0
 2581 08ba 0E94 0000 		call LCD_CharWrite
 2582               	.L149:
 443:/home/student/avr_src/SimulIDE_1.0.0-SR1_Lin64/Timer/Timer.c ****         //Tx_char(key_data);
 2583               		.stabn	68,0,443,.LM373-.LFBB25
 2584               	.LM373:
 2585 08be 459A      		sbi 0x8,5
 2586 08c0 00C0      		rjmp .L127
 2587               	.L138:
 450:/home/student/avr_src/SimulIDE_1.0.0-SR1_Lin64/Timer/Timer.c ****   			PORTC &= ~0x01;
 2588               		.stabn	68,0,450,.LM374-.LFBB25
 2589               	.LM374:
 2590 08c2 4598      		cbi 0x8,5
 451:/home/student/avr_src/SimulIDE_1.0.0-SR1_Lin64/Timer/Timer.c ****         }
 2591               		.stabn	68,0,451,.LM375-.LFBB25
 2592               	.LM375:
 2593 08c4 4098      		cbi 0x8,0
 2594               	.L127:
 2595               	/* epilogue start */
 456:/home/student/avr_src/SimulIDE_1.0.0-SR1_Lin64/Timer/Timer.c **** //====================================================
 2596               		.stabn	68,0,456,.LM376-.LFBB25
 2597               	.LM376:
 2598 08c6 FF91      		pop r31
 2599 08c8 EF91      		pop r30
 2600 08ca DF91      		pop r29
 2601 08cc CF91      		pop r28
 2602 08ce BF91      		pop r27
 2603 08d0 AF91      		pop r26
 2604 08d2 9F91      		pop r25
 2605 08d4 8F91      		pop r24
 2606 08d6 7F91      		pop r23
 2607 08d8 6F91      		pop r22
 2608 08da 5F91      		pop r21
 2609 08dc 4F91      		pop r20
 2610 08de 3F91      		pop r19
 2611 08e0 2F91      		pop r18
 2612 08e2 0F90      		pop r0
 2613 08e4 0FBE      		out __SREG__,r0
 2614 08e6 0F90      		pop r0
 2615 08e8 1F90      		pop r1
 2616 08ea 1895      		reti
 2617               		.size	__vector_11, .-__vector_11
 2618               	.Lscope25:
 2619               		.stabs	"",36,0,0,.Lscope25-.LFBB25
 2620               		.stabd	78,0,0
 2621               		.stabs	"LCD_NEBIT:F(0,49)",36,0,687,LCD_NEBIT
 2622               		.stabs	"byte:P(0,13)",64,0,687,24
 2623               	.global	LCD_NEBIT
 2624               		.type	LCD_NEBIT, @function
 2625               	LCD_NEBIT:
 2626               		.stabd	46,0,0
 687:/home/student/avr_src/SimulIDE_1.0.0-SR1_Lin64/Timer/Timer.c **** 	write_AT24Cxx_i2c_LCDAddressing(byte);
 2627               		.stabn	68,0,687,.LM377-.LFBB26
 2628               	.LM377:
 2629               	.LFBB26:
 2630               	/* prologue: function */
 2631               	/* frame size = 0 */
 2632               	/* stack size = 0 */
 2633               	.L__stack_usage = 0
 2634               		.stabn	68,0,688,.LM378-.LFBB26
 2635               	.LM378:
 2636 08ec 0C94 0000 		jmp write_AT24Cxx_i2c_LCDAddressing
 2637               		.size	LCD_NEBIT, .-LCD_NEBIT
 2638               	.Lscope26:
 2639               		.stabs	"",36,0,0,.Lscope26-.LFBB26
 2640               		.stabd	78,0,0
 2641               		.comm	CursorPoint,2,1
 2642               	.global	test
 2643               		.data
 2644               		.type	test, @object
 2645               		.size	test, 1
 2646               	test:
 2647 0000 01        		.byte	1
 2648               	.global	sec
 2649               		.section .bss
 2650               		.type	sec, @object
 2651               		.size	sec, 1
 2652               	sec:
 2653 0000 00        		.zero	1
 2654               	.global	min
 2655               		.type	min, @object
 2656               		.size	min, 1
 2657               	min:
 2658 0001 00        		.zero	1
 2659               	.global	time_tmp
 2660               		.type	time_tmp, @object
 2661               		.size	time_tmp, 2
 2662               	time_tmp:
 2663 0002 0000      		.zero	2
 2664               	.global	time_10ms
 2665               		.type	time_10ms, @object
 2666               		.size	time_10ms, 2
 2667               	time_10ms:
 2668 0004 0000      		.zero	2
 2669               	.global	time_1s
 2670               		.type	time_1s, @object
 2671               		.size	time_1s, 2
 2672               	time_1s:
 2673 0006 0000      		.zero	2
 2674               	.global	timer_start_flag
 2675               		.type	timer_start_flag, @object
 2676               		.size	timer_start_flag, 1
 2677               	timer_start_flag:
 2678 0008 00        		.zero	1
 2679               	.global	Wait_time
 2680               		.type	Wait_time, @object
 2681               		.size	Wait_time, 1
 2682               	Wait_time:
 2683 0009 00        		.zero	1
 2684               	.global	flag_time
 2685               		.type	flag_time, @object
 2686               		.size	flag_time, 1
 2687               	flag_time:
 2688 000a 00        		.zero	1
 2689               		.comm	old_key,1,1
 2690               	.global	current_key
 2691               		.type	current_key, @object
 2692               		.size	current_key, 1
 2693               	current_key:
 2694 000b 00        		.zero	1
 2695               	.global	keyNum
 2696               		.type	keyNum, @object
 2697               		.size	keyNum, 1
 2698               	keyNum:
 2699 000c 00        		.zero	1
 2700               	.global	pressing_flag
 2701               		.type	pressing_flag, @object
 2702               		.size	pressing_flag, 1
 2703               	pressing_flag:
 2704 000d 00        		.zero	1
 2705               	.global	key_data
 2706               		.type	key_data, @object
 2707               		.size	key_data, 1
 2708               	key_data:
 2709 000e 00        		.zero	1
 2710               	.global	new_key
 2711               		.type	new_key, @object
 2712               		.size	new_key, 1
 2713               	new_key:
 2714 000f 00        		.zero	1
 2715               	.global	key_flag
 2716               		.type	key_flag, @object
 2717               		.size	key_flag, 1
 2718               	key_flag:
 2719 0010 00        		.zero	1
 2720               	.global	addr
 2721               		.type	addr, @object
 2722               		.size	addr, 1
 2723               	addr:
 2724 0011 00        		.zero	1
 2725               	.global	end_flag
 2726               		.type	end_flag, @object
 2727               		.size	end_flag, 1
 2728               	end_flag:
 2729 0012 00        		.zero	1
 2730               	.global	lcd_flag
 2731               		.type	lcd_flag, @object
 2732               		.size	lcd_flag, 1
 2733               	lcd_flag:
 2734 0013 00        		.zero	1
 2735               	.global	sel_flag
 2736               		.type	sel_flag, @object
 2737               		.size	sel_flag, 1
 2738               	sel_flag:
 2739 0014 00        		.zero	1
 2740               	.global	job
 2741               		.type	job, @object
 2742               		.size	job, 1
 2743               	job:
 2744 0015 00        		.zero	1
 2745               		.stabs	"job:G(0,51)=B(0,13)",32,0,27,0
 2746               		.stabs	"sel_flag:G(0,51)",32,0,28,0
 2747               		.stabs	"lcd_flag:G(0,51)",32,0,29,0
 2748               		.stabs	"end_flag:G(0,51)",32,0,30,0
 2749               		.stabs	"addr:G(0,51)",32,0,31,0
 2750               		.stabs	"key_flag:G(0,51)",32,0,32,0
 2751               		.stabs	"new_key:G(0,51)",32,0,33,0
 2752               		.stabs	"key_data:G(0,51)",32,0,34,0
 2753               		.stabs	"pressing_flag:G(0,51)",32,0,35,0
 2754               		.stabs	"keyNum:G(0,51)",32,0,36,0
 2755               		.stabs	"current_key:G(0,51)",32,0,37,0
 2756               		.stabs	"old_key:G(0,51)",32,0,38,0
 2757               		.stabs	"flag_time:G(0,51)",32,0,39,0
 2758               		.stabs	"Wait_time:G(0,51)",32,0,40,0
 2759               		.stabs	"timer_start_flag:G(0,51)",32,0,41,0
 2760               		.stabs	"time_1s:G(0,52)=B(5,4)",32,0,42,0
 2761               		.stabs	"time_10ms:G(0,52)",32,0,43,0
 2762               		.stabs	"time_tmp:G(0,52)",32,0,44,0
 2763               		.stabs	"min:G(0,51)",32,0,45,0
 2764               		.stabs	"sec:G(0,51)",32,0,46,0
 2765               		.stabs	"test:G(0,51)",32,0,47,0
 2766               		.stabs	"CursorPoint:G(0,50)",32,0,88,0
 2767               		.text
 2768               		.stabs	"",100,0,0,.Letext0
 2769               	.Letext0:
 2770               		.ident	"GCC: (GNU) 5.4.0"
 2771               	.global __do_copy_data
 2772               	.global __do_clear_bss
DEFINED SYMBOLS
                            *ABS*:0000000000000000 Timer.c
     /tmp/ccS5rAcq.s:2      *ABS*:000000000000003e __SP_H__
     /tmp/ccS5rAcq.s:3      *ABS*:000000000000003d __SP_L__
     /tmp/ccS5rAcq.s:4      *ABS*:000000000000003f __SREG__
     /tmp/ccS5rAcq.s:5      *ABS*:0000000000000000 __tmp_reg__
     /tmp/ccS5rAcq.s:6      *ABS*:0000000000000001 __zero_reg__
     /tmp/ccS5rAcq.s:110    .text:0000000000000000 TIME_SETTING
     /tmp/ccS5rAcq.s:2657   .bss:0000000000000001 min
     /tmp/ccS5rAcq.s:2652   .bss:0000000000000000 sec
     /tmp/ccS5rAcq.s:133    .text:000000000000000a Timer1_init
     /tmp/ccS5rAcq.s:171    .text:0000000000000030 Port_init
     /tmp/ccS5rAcq.s:199    .text:000000000000003c USART_init
     /tmp/ccS5rAcq.s:235    .text:000000000000005c Tx_char
     /tmp/ccS5rAcq.s:263    .text:000000000000006a key_analysis
     /tmp/ccS5rAcq.s:2718   .bss:0000000000000010 key_flag
     /tmp/ccS5rAcq.s:414    .text:00000000000000f0 key_scan
     /tmp/ccS5rAcq.s:2713   .bss:000000000000000f new_key
                            *COM*:0000000000000001 old_key
     /tmp/ccS5rAcq.s:2703   .bss:000000000000000d pressing_flag
     /tmp/ccS5rAcq.s:558    .text:0000000000000190 num2lcdbyte
     /tmp/ccS5rAcq.s:690    .text:00000000000001fa write_AT24Cxx_i2c_LCDAddressing
     /tmp/ccS5rAcq.s:818    .text:0000000000000244 AT24Cxx_i2c_start
     /tmp/ccS5rAcq.s:868    .text:000000000000025a AT24Cxx_ACK_send
     /tmp/ccS5rAcq.s:965    .text:000000000000028c AT24Cxx_i2c_stop
     /tmp/ccS5rAcq.s:1020   .text:00000000000002a4 write_AT24Cxx_i2c_byte
     /tmp/ccS5rAcq.s:1060   .text:00000000000002b4 LCD_Write
     /tmp/ccS5rAcq.s:1094   .text:00000000000002c0 I2C_LCD_init
     /tmp/ccS5rAcq.s:1325   .text:000000000000037e LCD_CharWrite
     /tmp/ccS5rAcq.s:1398   .text:00000000000003b4 I2C_LCD_Erase
     /tmp/ccS5rAcq.s:1439   .text:00000000000003dc I2C_LCD_Reset
     /tmp/ccS5rAcq.s:1624   .text:0000000000000470 I2C_LCD_MoveLeft
     /tmp/ccS5rAcq.s:1673   .text:0000000000000496 I2C_Timer_Default
     /tmp/ccS5rAcq.s:1762   .text:0000000000000508 I2C_LCD_MoveRight
     /tmp/ccS5rAcq.s:1806   .text:0000000000000526 I2C_Timer_act
     /tmp/ccS5rAcq.s:2667   .bss:0000000000000004 time_10ms
     /tmp/ccS5rAcq.s:2728   .bss:0000000000000012 end_flag
     /tmp/ccS5rAcq.s:2035   .text.startup:0000000000000000 main
     /tmp/ccS5rAcq.s:2677   .bss:0000000000000008 timer_start_flag
     /tmp/ccS5rAcq.s:2743   .bss:0000000000000015 job
     /tmp/ccS5rAcq.s:2672   .bss:0000000000000006 time_1s
     /tmp/ccS5rAcq.s:2199   .text:0000000000000678 I2C_LCD_SELECT
     /tmp/ccS5rAcq.s:2738   .bss:0000000000000014 sel_flag
     /tmp/ccS5rAcq.s:2252   .text:00000000000006aa __vector_11
     /tmp/ccS5rAcq.s:2708   .bss:000000000000000e key_data
     /tmp/ccS5rAcq.s:2625   .text:00000000000008ec LCD_NEBIT
                            *COM*:0000000000000002 CursorPoint
     /tmp/ccS5rAcq.s:2646   .data:0000000000000000 test
     /tmp/ccS5rAcq.s:2662   .bss:0000000000000002 time_tmp
     /tmp/ccS5rAcq.s:2682   .bss:0000000000000009 Wait_time
     /tmp/ccS5rAcq.s:2687   .bss:000000000000000a flag_time
     /tmp/ccS5rAcq.s:2693   .bss:000000000000000b current_key
     /tmp/ccS5rAcq.s:2698   .bss:000000000000000c keyNum
     /tmp/ccS5rAcq.s:2723   .bss:0000000000000011 addr
     /tmp/ccS5rAcq.s:2733   .bss:0000000000000013 lcd_flag

UNDEFINED SYMBOLS
__udivmodqi4
__divmodhi4
__udivmodhi4
__do_copy_data
__do_clear_bss
