   1               		.file	"Timer.c"
   2               	__SP_H__ = 0x3e
   3               	__SP_L__ = 0x3d
   4               	__SREG__ = 0x3f
   5               	__tmp_reg__ = 0
   6               	__zero_reg__ = 1
   7               		.stabs	"/home/student/build-avr_linux_compiler-Desktop-Debug/",100,0,2,.Ltext0
   8               		.stabs	"/home/student/avr_src/SimulIDE_1.0.0-SR1_Lin64/Timer/Timer.c",100,0,2,.Ltext0
   9               		.text
  10               	.Ltext0:
  11               		.stabs	"gcc2_compiled.",60,0,0,0
  12               		.stabs	"int:t(0,1)=r(0,1);-32768;32767;",128,0,0,0
  13               		.stabs	"char:t(0,2)=r(0,2);0;127;",128,0,0,0
  14               		.stabs	"long int:t(0,3)=@s32;r(0,3);020000000000;017777777777;",128,0,0,0
  15               		.stabs	"unsigned int:t(0,4)=r(0,4);0;0177777;",128,0,0,0
  16               		.stabs	"long unsigned int:t(0,5)=@s32;r(0,5);0;037777777777;",128,0,0,0
  17               		.stabs	"__int128:t(0,6)=@s128;r(0,6);02000000000000000000000000000000000000000000;0177777777777777
  18               		.stabs	"__int128 unsigned:t(0,7)=@s128;r(0,7);0;03777777777777777777777777777777777777777777;",128
  19               		.stabs	"long long int:t(0,8)=@s64;r(0,8);01000000000000000000000;00777777777777777777777;",128,0,0
  20               		.stabs	"long long unsigned int:t(0,9)=@s64;r(0,9);0;01777777777777777777777;",128,0,0,0
  21               		.stabs	"short int:t(0,10)=r(0,10);-32768;32767;",128,0,0,0
  22               		.stabs	"short unsigned int:t(0,11)=r(0,11);0;0177777;",128,0,0,0
  23               		.stabs	"signed char:t(0,12)=@s8;r(0,12);-128;127;",128,0,0,0
  24               		.stabs	"unsigned char:t(0,13)=@s8;r(0,13);0;255;",128,0,0,0
  25               		.stabs	"float:t(0,14)=r(0,1);4;0;",128,0,0,0
  26               		.stabs	"double:t(0,15)=r(0,1);4;0;",128,0,0,0
  27               		.stabs	"long double:t(0,16)=r(0,1);4;0;",128,0,0,0
  28               		.stabs	"short _Fract:t(0,17)=r(0,1);1;0;",128,0,0,0
  29               		.stabs	"_Fract:t(0,18)=r(0,1);2;0;",128,0,0,0
  30               		.stabs	"long _Fract:t(0,19)=r(0,1);4;0;",128,0,0,0
  31               		.stabs	"long long _Fract:t(0,20)=r(0,1);8;0;",128,0,0,0
  32               		.stabs	"unsigned short _Fract:t(0,21)=r(0,1);1;0;",128,0,0,0
  33               		.stabs	"unsigned _Fract:t(0,22)=r(0,1);2;0;",128,0,0,0
  34               		.stabs	"unsigned long _Fract:t(0,23)=r(0,1);4;0;",128,0,0,0
  35               		.stabs	"unsigned long long _Fract:t(0,24)=r(0,1);8;0;",128,0,0,0
  36               		.stabs	"_Sat short _Fract:t(0,25)=r(0,1);1;0;",128,0,0,0
  37               		.stabs	"_Sat _Fract:t(0,26)=r(0,1);2;0;",128,0,0,0
  38               		.stabs	"_Sat long _Fract:t(0,27)=r(0,1);4;0;",128,0,0,0
  39               		.stabs	"_Sat long long _Fract:t(0,28)=r(0,1);8;0;",128,0,0,0
  40               		.stabs	"_Sat unsigned short _Fract:t(0,29)=r(0,1);1;0;",128,0,0,0
  41               		.stabs	"_Sat unsigned _Fract:t(0,30)=r(0,1);2;0;",128,0,0,0
  42               		.stabs	"_Sat unsigned long _Fract:t(0,31)=r(0,1);4;0;",128,0,0,0
  43               		.stabs	"_Sat unsigned long long _Fract:t(0,32)=r(0,1);8;0;",128,0,0,0
  44               		.stabs	"short _Accum:t(0,33)=r(0,1);2;0;",128,0,0,0
  45               		.stabs	"_Accum:t(0,34)=r(0,1);4;0;",128,0,0,0
  46               		.stabs	"long _Accum:t(0,35)=r(0,1);8;0;",128,0,0,0
  47               		.stabs	"long long _Accum:t(0,36)=r(0,1);8;0;",128,0,0,0
  48               		.stabs	"unsigned short _Accum:t(0,37)=r(0,1);2;0;",128,0,0,0
  49               		.stabs	"unsigned _Accum:t(0,38)=r(0,1);4;0;",128,0,0,0
  50               		.stabs	"unsigned long _Accum:t(0,39)=r(0,1);8;0;",128,0,0,0
  51               		.stabs	"unsigned long long _Accum:t(0,40)=r(0,1);8;0;",128,0,0,0
  52               		.stabs	"_Sat short _Accum:t(0,41)=r(0,1);2;0;",128,0,0,0
  53               		.stabs	"_Sat _Accum:t(0,42)=r(0,1);4;0;",128,0,0,0
  54               		.stabs	"_Sat long _Accum:t(0,43)=r(0,1);8;0;",128,0,0,0
  55               		.stabs	"_Sat long long _Accum:t(0,44)=r(0,1);8;0;",128,0,0,0
  56               		.stabs	"_Sat unsigned short _Accum:t(0,45)=r(0,1);2;0;",128,0,0,0
  57               		.stabs	"_Sat unsigned _Accum:t(0,46)=r(0,1);4;0;",128,0,0,0
  58               		.stabs	"_Sat unsigned long _Accum:t(0,47)=r(0,1);8;0;",128,0,0,0
  59               		.stabs	"_Sat unsigned long long _Accum:t(0,48)=r(0,1);8;0;",128,0,0,0
  60               		.stabs	"void:t(0,49)=(0,49)",128,0,0,0
  61               		.stabs	"/usr/lib/avr/include/avr/io.h",130,0,0,0
  62               		.stabs	"/usr/lib/avr/include/avr/sfr_defs.h",130,0,0,0
  63               		.stabs	"/usr/lib/avr/include/inttypes.h",130,0,0,0
  64               		.stabs	"/usr/lib/gcc/avr/5.4.0/include/stdint.h",130,0,0,0
  65               		.stabs	"/usr/lib/avr/include/stdint.h",130,0,0,0
  66               		.stabs	"int8_t:t(5,1)=(0,12)",128,0,125,0
  67               		.stabs	"uint8_t:t(5,2)=(0,13)",128,0,126,0
  68               		.stabs	"int16_t:t(5,3)=(0,1)",128,0,127,0
  69               		.stabs	"uint16_t:t(5,4)=(0,4)",128,0,128,0
  70               		.stabs	"int32_t:t(5,5)=(0,3)",128,0,129,0
  71               		.stabs	"uint32_t:t(5,6)=(0,5)",128,0,130,0
  72               		.stabs	"int64_t:t(5,7)=(0,8)",128,0,132,0
  73               		.stabs	"uint64_t:t(5,8)=(0,9)",128,0,133,0
  74               		.stabs	"intptr_t:t(5,9)=(5,3)",128,0,146,0
  75               		.stabs	"uintptr_t:t(5,10)=(5,4)",128,0,151,0
  76               		.stabs	"int_least8_t:t(5,11)=(5,1)",128,0,163,0
  77               		.stabs	"uint_least8_t:t(5,12)=(5,2)",128,0,168,0
  78               		.stabs	"int_least16_t:t(5,13)=(5,3)",128,0,173,0
  79               		.stabs	"uint_least16_t:t(5,14)=(5,4)",128,0,178,0
  80               		.stabs	"int_least32_t:t(5,15)=(5,5)",128,0,183,0
  81               		.stabs	"uint_least32_t:t(5,16)=(5,6)",128,0,188,0
  82               		.stabs	"int_least64_t:t(5,17)=(5,7)",128,0,196,0
  83               		.stabs	"uint_least64_t:t(5,18)=(5,8)",128,0,203,0
  84               		.stabs	"int_fast8_t:t(5,19)=(5,1)",128,0,217,0
  85               		.stabs	"uint_fast8_t:t(5,20)=(5,2)",128,0,222,0
  86               		.stabs	"int_fast16_t:t(5,21)=(5,3)",128,0,227,0
  87               		.stabs	"uint_fast16_t:t(5,22)=(5,4)",128,0,232,0
  88               		.stabs	"int_fast32_t:t(5,23)=(5,5)",128,0,237,0
  89               		.stabs	"uint_fast32_t:t(5,24)=(5,6)",128,0,242,0
  90               		.stabs	"int_fast64_t:t(5,25)=(5,7)",128,0,250,0
  91               		.stabs	"uint_fast64_t:t(5,26)=(5,8)",128,0,257,0
  92               		.stabs	"intmax_t:t(5,27)=(5,7)",128,0,277,0
  93               		.stabs	"uintmax_t:t(5,28)=(5,8)",128,0,282,0
  94               		.stabn	162,0,0,0
  95               		.stabn	162,0,0,0
  96               		.stabs	"int_farptr_t:t(3,1)=(5,5)",128,0,77,0
  97               		.stabs	"uint_farptr_t:t(3,2)=(5,6)",128,0,81,0
  98               		.stabn	162,0,0,0
  99               		.stabn	162,0,0,0
 100               		.stabs	"/usr/lib/avr/include/avr/fuse.h",130,0,0,0
 101               		.stabs	"__fuse_t:t(6,1)=(6,2)=s3low:(0,13),0,8;high:(0,13),8,8;extended:(0,13),16,8;;",128,0,244,0
 102               		.stabn	162,0,0,0
 103               		.stabn	162,0,0,0
 104               		.stabs	"Point:T(0,50)=s2x:(0,1),0,16;;",128,0,0,0
 105               		.stabs	"timeNum:T(0,51)=s12n1:(0,1),0,16;n2:(0,1),16,16;n3:(0,1),32,16;n4:(0,1),48,16;SecNum:(0,1)
 106               		.stabs	"CursorPoint:t(0,52)=(0,50)",128,0,44,0
 107               		.stabs	"SecNum:t(0,53)=(0,51)",128,0,45,0
 108               		.stabs	"bool:t(0,54)=(0,1)",128,0,46,0
 109               		.stabs	"Value_init:F(0,49)",36,0,232,Value_init
 110               	.global	Value_init
 111               		.type	Value_init, @function
 112               	Value_init:
 113               		.stabd	46,0,0
   1:/home/student/avr_src/SimulIDE_1.0.0-SR1_Lin64/Timer/Timer.c **** #ifndef F_CPU
   2:/home/student/avr_src/SimulIDE_1.0.0-SR1_Lin64/Timer/Timer.c **** #define F_CPU 16000000UL // or whatever may be your frequency
   3:/home/student/avr_src/SimulIDE_1.0.0-SR1_Lin64/Timer/Timer.c **** #endif
   4:/home/student/avr_src/SimulIDE_1.0.0-SR1_Lin64/Timer/Timer.c **** //====================================================
   5:/home/student/avr_src/SimulIDE_1.0.0-SR1_Lin64/Timer/Timer.c **** #include <avr/io.h>
   6:/home/student/avr_src/SimulIDE_1.0.0-SR1_Lin64/Timer/Timer.c **** #include <util/delay.h>
   7:/home/student/avr_src/SimulIDE_1.0.0-SR1_Lin64/Timer/Timer.c **** #include <avr/interrupt.h>
   8:/home/student/avr_src/SimulIDE_1.0.0-SR1_Lin64/Timer/Timer.c **** //====================================================
   9:/home/student/avr_src/SimulIDE_1.0.0-SR1_Lin64/Timer/Timer.c **** #define AT24CxxPORT PORTB
  10:/home/student/avr_src/SimulIDE_1.0.0-SR1_Lin64/Timer/Timer.c **** #define AT24CxxDDR DDRB
  11:/home/student/avr_src/SimulIDE_1.0.0-SR1_Lin64/Timer/Timer.c **** #define AT24CxxPIN PINB
  12:/home/student/avr_src/SimulIDE_1.0.0-SR1_Lin64/Timer/Timer.c **** #define AT24Cxx_SCL 0b00100000
  13:/home/student/avr_src/SimulIDE_1.0.0-SR1_Lin64/Timer/Timer.c **** #define AT24Cxx_SDA 0b00010000
  14:/home/student/avr_src/SimulIDE_1.0.0-SR1_Lin64/Timer/Timer.c **** #define E_BIT 0x04 //location of E BIT
  15:/home/student/avr_src/SimulIDE_1.0.0-SR1_Lin64/Timer/Timer.c **** #define B_BIT 0x08 //location of bright
  16:/home/student/avr_src/SimulIDE_1.0.0-SR1_Lin64/Timer/Timer.c **** #define I2CLCD_ADDR 0x27
  17:/home/student/avr_src/SimulIDE_1.0.0-SR1_Lin64/Timer/Timer.c **** #define ACK 0x00 // ACK LOW
  18:/home/student/avr_src/SimulIDE_1.0.0-SR1_Lin64/Timer/Timer.c **** #define NACK 0x01 // NACK HIGH
  19:/home/student/avr_src/SimulIDE_1.0.0-SR1_Lin64/Timer/Timer.c **** #define EEP_WRITE_WAIT 10 // write wait time
  20:/home/student/avr_src/SimulIDE_1.0.0-SR1_Lin64/Timer/Timer.c **** #define AT24Cxx_SDA_HIGH() (AT24CxxPORT |= AT24Cxx_SDA)
  21:/home/student/avr_src/SimulIDE_1.0.0-SR1_Lin64/Timer/Timer.c **** #define AT24Cxx_SDA_LOW() (AT24CxxPORT &= ~AT24Cxx_SDA)
  22:/home/student/avr_src/SimulIDE_1.0.0-SR1_Lin64/Timer/Timer.c **** #define AT24Cxx_SCL_HIGH() (AT24CxxPORT |= AT24Cxx_SCL)
  23:/home/student/avr_src/SimulIDE_1.0.0-SR1_Lin64/Timer/Timer.c **** #define AT24Cxx_SCL_LOW() (AT24CxxPORT &= ~(AT24Cxx_SCL))
  24:/home/student/avr_src/SimulIDE_1.0.0-SR1_Lin64/Timer/Timer.c **** #define AT24Cxx_SDA_IN() (AT24CxxDDR &= ~AT24Cxx_SDA)
  25:/home/student/avr_src/SimulIDE_1.0.0-SR1_Lin64/Timer/Timer.c **** #define AT24Cxx_SDA_OUT() (AT24CxxDDR |= AT24Cxx_SDA)
  26:/home/student/avr_src/SimulIDE_1.0.0-SR1_Lin64/Timer/Timer.c **** #define Q_LENGTH 16
  27:/home/student/avr_src/SimulIDE_1.0.0-SR1_Lin64/Timer/Timer.c **** #define true 1
  28:/home/student/avr_src/SimulIDE_1.0.0-SR1_Lin64/Timer/Timer.c **** #define false 0
  29:/home/student/avr_src/SimulIDE_1.0.0-SR1_Lin64/Timer/Timer.c **** //====================================================
  30:/home/student/avr_src/SimulIDE_1.0.0-SR1_Lin64/Timer/Timer.c **** struct Point
  31:/home/student/avr_src/SimulIDE_1.0.0-SR1_Lin64/Timer/Timer.c **** {
  32:/home/student/avr_src/SimulIDE_1.0.0-SR1_Lin64/Timer/Timer.c **** 	int x;
  33:/home/student/avr_src/SimulIDE_1.0.0-SR1_Lin64/Timer/Timer.c **** };
  34:/home/student/avr_src/SimulIDE_1.0.0-SR1_Lin64/Timer/Timer.c **** struct timeNum
  35:/home/student/avr_src/SimulIDE_1.0.0-SR1_Lin64/Timer/Timer.c **** {
  36:/home/student/avr_src/SimulIDE_1.0.0-SR1_Lin64/Timer/Timer.c **** 	int n1;
  37:/home/student/avr_src/SimulIDE_1.0.0-SR1_Lin64/Timer/Timer.c **** 	int n2;
  38:/home/student/avr_src/SimulIDE_1.0.0-SR1_Lin64/Timer/Timer.c **** 	int n3;
  39:/home/student/avr_src/SimulIDE_1.0.0-SR1_Lin64/Timer/Timer.c **** 	int n4;
  40:/home/student/avr_src/SimulIDE_1.0.0-SR1_Lin64/Timer/Timer.c **** 	int SecNum;
  41:/home/student/avr_src/SimulIDE_1.0.0-SR1_Lin64/Timer/Timer.c **** 	int MinNum;
  42:/home/student/avr_src/SimulIDE_1.0.0-SR1_Lin64/Timer/Timer.c **** };
  43:/home/student/avr_src/SimulIDE_1.0.0-SR1_Lin64/Timer/Timer.c **** //====================================================
  44:/home/student/avr_src/SimulIDE_1.0.0-SR1_Lin64/Timer/Timer.c **** typedef struct Point CursorPoint;
  45:/home/student/avr_src/SimulIDE_1.0.0-SR1_Lin64/Timer/Timer.c **** typedef struct timeNum SecNum;
  46:/home/student/avr_src/SimulIDE_1.0.0-SR1_Lin64/Timer/Timer.c **** typedef int bool;
  47:/home/student/avr_src/SimulIDE_1.0.0-SR1_Lin64/Timer/Timer.c **** volatile CursorPoint cp;
  48:/home/student/avr_src/SimulIDE_1.0.0-SR1_Lin64/Timer/Timer.c **** volatile SecNum sel;
  49:/home/student/avr_src/SimulIDE_1.0.0-SR1_Lin64/Timer/Timer.c **** volatile unsigned char ptr_read = 0;
  50:/home/student/avr_src/SimulIDE_1.0.0-SR1_Lin64/Timer/Timer.c **** volatile unsigned char ptr_write = 0;
  51:/home/student/avr_src/SimulIDE_1.0.0-SR1_Lin64/Timer/Timer.c **** volatile unsigned char q[Q_LENGTH];
  52:/home/student/avr_src/SimulIDE_1.0.0-SR1_Lin64/Timer/Timer.c **** //====================================================
  53:/home/student/avr_src/SimulIDE_1.0.0-SR1_Lin64/Timer/Timer.c **** volatile unsigned char job = 0; //Timer job flag
  54:/home/student/avr_src/SimulIDE_1.0.0-SR1_Lin64/Timer/Timer.c **** volatile unsigned char sel_flag = 0; //Time selector
  55:/home/student/avr_src/SimulIDE_1.0.0-SR1_Lin64/Timer/Timer.c **** volatile unsigned char lcd_flag = 0; //lcd on check flag
  56:/home/student/avr_src/SimulIDE_1.0.0-SR1_Lin64/Timer/Timer.c **** volatile unsigned char end_flag = 0; //timer end flag
  57:/home/student/avr_src/SimulIDE_1.0.0-SR1_Lin64/Timer/Timer.c **** volatile unsigned char addr = 0; 
  58:/home/student/avr_src/SimulIDE_1.0.0-SR1_Lin64/Timer/Timer.c **** volatile unsigned char timer_start_flag = 0;
  59:/home/student/avr_src/SimulIDE_1.0.0-SR1_Lin64/Timer/Timer.c **** volatile unsigned char counting_timer_start_flag = 0;
  60:/home/student/avr_src/SimulIDE_1.0.0-SR1_Lin64/Timer/Timer.c **** volatile unsigned char first_flag = 1;
  61:/home/student/avr_src/SimulIDE_1.0.0-SR1_Lin64/Timer/Timer.c **** //====================================================
  62:/home/student/avr_src/SimulIDE_1.0.0-SR1_Lin64/Timer/Timer.c **** volatile unsigned char key_flag = 0; //key check flag
  63:/home/student/avr_src/SimulIDE_1.0.0-SR1_Lin64/Timer/Timer.c **** volatile unsigned char new_key = 0;
  64:/home/student/avr_src/SimulIDE_1.0.0-SR1_Lin64/Timer/Timer.c **** volatile unsigned char key_data = 0;
  65:/home/student/avr_src/SimulIDE_1.0.0-SR1_Lin64/Timer/Timer.c **** volatile unsigned char pressing_flag = 0;
  66:/home/student/avr_src/SimulIDE_1.0.0-SR1_Lin64/Timer/Timer.c **** volatile unsigned char keyNum = 0;
  67:/home/student/avr_src/SimulIDE_1.0.0-SR1_Lin64/Timer/Timer.c **** volatile unsigned char current_key = 0;
  68:/home/student/avr_src/SimulIDE_1.0.0-SR1_Lin64/Timer/Timer.c **** volatile unsigned char old_key;
  69:/home/student/avr_src/SimulIDE_1.0.0-SR1_Lin64/Timer/Timer.c **** volatile unsigned char flag_time = 0;
  70:/home/student/avr_src/SimulIDE_1.0.0-SR1_Lin64/Timer/Timer.c **** volatile unsigned char Wait_time = 0;
  71:/home/student/avr_src/SimulIDE_1.0.0-SR1_Lin64/Timer/Timer.c **** //====================================================
  72:/home/student/avr_src/SimulIDE_1.0.0-SR1_Lin64/Timer/Timer.c **** volatile uint16_t time_1s = 0; // 100 : 1s
  73:/home/student/avr_src/SimulIDE_1.0.0-SR1_Lin64/Timer/Timer.c **** volatile uint16_t time_10ms = 0; 
  74:/home/student/avr_src/SimulIDE_1.0.0-SR1_Lin64/Timer/Timer.c **** volatile uint16_t time_tmp = 0;
  75:/home/student/avr_src/SimulIDE_1.0.0-SR1_Lin64/Timer/Timer.c **** volatile unsigned char min = 0;
  76:/home/student/avr_src/SimulIDE_1.0.0-SR1_Lin64/Timer/Timer.c **** volatile unsigned char sec = 0;
  77:/home/student/avr_src/SimulIDE_1.0.0-SR1_Lin64/Timer/Timer.c **** volatile unsigned char input = 0;
  78:/home/student/avr_src/SimulIDE_1.0.0-SR1_Lin64/Timer/Timer.c **** //====================================================
  79:/home/student/avr_src/SimulIDE_1.0.0-SR1_Lin64/Timer/Timer.c **** volatile unsigned char STX_flag = 0;
  80:/home/student/avr_src/SimulIDE_1.0.0-SR1_Lin64/Timer/Timer.c **** volatile unsigned char ETX_flag = 0;
  81:/home/student/avr_src/SimulIDE_1.0.0-SR1_Lin64/Timer/Timer.c **** volatile unsigned char Command_flag = 0;
  82:/home/student/avr_src/SimulIDE_1.0.0-SR1_Lin64/Timer/Timer.c **** volatile unsigned char instr_flag = 0;
  83:/home/student/avr_src/SimulIDE_1.0.0-SR1_Lin64/Timer/Timer.c **** volatile unsigned char time_arr[4];
  84:/home/student/avr_src/SimulIDE_1.0.0-SR1_Lin64/Timer/Timer.c **** volatile unsigned char IN_2_CHAR;
  85:/home/student/avr_src/SimulIDE_1.0.0-SR1_Lin64/Timer/Timer.c **** volatile unsigned char RX_flag = 0;
  86:/home/student/avr_src/SimulIDE_1.0.0-SR1_Lin64/Timer/Timer.c **** volatile unsigned char c_index = 0;
  87:/home/student/avr_src/SimulIDE_1.0.0-SR1_Lin64/Timer/Timer.c **** //====================================================
  88:/home/student/avr_src/SimulIDE_1.0.0-SR1_Lin64/Timer/Timer.c **** void Timer0_init();
  89:/home/student/avr_src/SimulIDE_1.0.0-SR1_Lin64/Timer/Timer.c **** void Timer1_init();
  90:/home/student/avr_src/SimulIDE_1.0.0-SR1_Lin64/Timer/Timer.c **** void Port_init();
  91:/home/student/avr_src/SimulIDE_1.0.0-SR1_Lin64/Timer/Timer.c **** void USART_init();
  92:/home/student/avr_src/SimulIDE_1.0.0-SR1_Lin64/Timer/Timer.c **** void setup_watchdog();
  93:/home/student/avr_src/SimulIDE_1.0.0-SR1_Lin64/Timer/Timer.c **** //====================================================
  94:/home/student/avr_src/SimulIDE_1.0.0-SR1_Lin64/Timer/Timer.c **** void Tx_char(unsigned char data);
  95:/home/student/avr_src/SimulIDE_1.0.0-SR1_Lin64/Timer/Timer.c **** unsigned char key_scan(void);
  96:/home/student/avr_src/SimulIDE_1.0.0-SR1_Lin64/Timer/Timer.c **** unsigned char key_analysis(unsigned char key, unsigned char Raw);
  97:/home/student/avr_src/SimulIDE_1.0.0-SR1_Lin64/Timer/Timer.c **** unsigned char read_AT24Cxx_i2c_byte(void);
  98:/home/student/avr_src/SimulIDE_1.0.0-SR1_Lin64/Timer/Timer.c **** unsigned char AT24Cxx_Read(unsigned char address, unsigned char sub_addr1, unsigned char sub_addr2)
  99:/home/student/avr_src/SimulIDE_1.0.0-SR1_Lin64/Timer/Timer.c **** void AT24Cxx_i2c_init(void);
 100:/home/student/avr_src/SimulIDE_1.0.0-SR1_Lin64/Timer/Timer.c **** void AT24Cxx_i2c_start(void);
 101:/home/student/avr_src/SimulIDE_1.0.0-SR1_Lin64/Timer/Timer.c **** void AT24Cxx_ACK_send(unsigned char ack_data);
 102:/home/student/avr_src/SimulIDE_1.0.0-SR1_Lin64/Timer/Timer.c **** void AT24Cxx_i2c_stop(void);
 103:/home/student/avr_src/SimulIDE_1.0.0-SR1_Lin64/Timer/Timer.c **** void write_AT24Cxx_i2c_byte(unsigned char byte);
 104:/home/student/avr_src/SimulIDE_1.0.0-SR1_Lin64/Timer/Timer.c **** void write_AT24Cxx_i2cControl(unsigned char byte);
 105:/home/student/avr_src/SimulIDE_1.0.0-SR1_Lin64/Timer/Timer.c **** void LCD_Write(unsigned char byte);
 106:/home/student/avr_src/SimulIDE_1.0.0-SR1_Lin64/Timer/Timer.c **** void write_AT24Cxx_i2c_LCDAddressing(unsigned char byte);
 107:/home/student/avr_src/SimulIDE_1.0.0-SR1_Lin64/Timer/Timer.c **** void LCD_NEBIT(unsigned char byte);
 108:/home/student/avr_src/SimulIDE_1.0.0-SR1_Lin64/Timer/Timer.c **** void I2C_LCD_init(unsigned char data);
 109:/home/student/avr_src/SimulIDE_1.0.0-SR1_Lin64/Timer/Timer.c **** void LCD_clear(void);
 110:/home/student/avr_src/SimulIDE_1.0.0-SR1_Lin64/Timer/Timer.c **** void LCD_CharWrite(uint16_t byte);
 111:/home/student/avr_src/SimulIDE_1.0.0-SR1_Lin64/Timer/Timer.c **** void I2C_LCD_Reset();
 112:/home/student/avr_src/SimulIDE_1.0.0-SR1_Lin64/Timer/Timer.c **** void I2C_LCD_Erase();
 113:/home/student/avr_src/SimulIDE_1.0.0-SR1_Lin64/Timer/Timer.c **** void I2C_LCD_MoveLeft(unsigned char cnt);
 114:/home/student/avr_src/SimulIDE_1.0.0-SR1_Lin64/Timer/Timer.c **** void I2C_LCD_MoveRight(unsigned char cnt);
 115:/home/student/avr_src/SimulIDE_1.0.0-SR1_Lin64/Timer/Timer.c **** void I2C_LCD_SELECT();
 116:/home/student/avr_src/SimulIDE_1.0.0-SR1_Lin64/Timer/Timer.c **** void I2C_Timer_Default();
 117:/home/student/avr_src/SimulIDE_1.0.0-SR1_Lin64/Timer/Timer.c **** void I2C_Timer_act();
 118:/home/student/avr_src/SimulIDE_1.0.0-SR1_Lin64/Timer/Timer.c **** void I2C_Timer_act_ms();
 119:/home/student/avr_src/SimulIDE_1.0.0-SR1_Lin64/Timer/Timer.c **** void I2C_Timer_test();
 120:/home/student/avr_src/SimulIDE_1.0.0-SR1_Lin64/Timer/Timer.c **** void Value_init();
 121:/home/student/avr_src/SimulIDE_1.0.0-SR1_Lin64/Timer/Timer.c **** void ERROR_MESSAGE();
 122:/home/student/avr_src/SimulIDE_1.0.0-SR1_Lin64/Timer/Timer.c **** void COMMAND_RESET();
 123:/home/student/avr_src/SimulIDE_1.0.0-SR1_Lin64/Timer/Timer.c **** void RX_init();
 124:/home/student/avr_src/SimulIDE_1.0.0-SR1_Lin64/Timer/Timer.c **** void TIME_SETTING(unsigned char m, unsigned char s);
 125:/home/student/avr_src/SimulIDE_1.0.0-SR1_Lin64/Timer/Timer.c **** uint16_t num2lcdbyte(unsigned char num);
 126:/home/student/avr_src/SimulIDE_1.0.0-SR1_Lin64/Timer/Timer.c **** //====================================================
 127:/home/student/avr_src/SimulIDE_1.0.0-SR1_Lin64/Timer/Timer.c **** void q_push(unsigned char data);
 128:/home/student/avr_src/SimulIDE_1.0.0-SR1_Lin64/Timer/Timer.c **** unsigned char q_pop();
 129:/home/student/avr_src/SimulIDE_1.0.0-SR1_Lin64/Timer/Timer.c **** bool q_isFull();
 130:/home/student/avr_src/SimulIDE_1.0.0-SR1_Lin64/Timer/Timer.c **** bool q_isEmpty();
 131:/home/student/avr_src/SimulIDE_1.0.0-SR1_Lin64/Timer/Timer.c **** void q_clear();
 132:/home/student/avr_src/SimulIDE_1.0.0-SR1_Lin64/Timer/Timer.c **** //====================================================
 133:/home/student/avr_src/SimulIDE_1.0.0-SR1_Lin64/Timer/Timer.c **** int main(void){
 134:/home/student/avr_src/SimulIDE_1.0.0-SR1_Lin64/Timer/Timer.c **** 	
 135:/home/student/avr_src/SimulIDE_1.0.0-SR1_Lin64/Timer/Timer.c **** 	sei(); //must be set first position
 136:/home/student/avr_src/SimulIDE_1.0.0-SR1_Lin64/Timer/Timer.c **** 	Value_init();
 137:/home/student/avr_src/SimulIDE_1.0.0-SR1_Lin64/Timer/Timer.c ****     Port_init();
 138:/home/student/avr_src/SimulIDE_1.0.0-SR1_Lin64/Timer/Timer.c **** 	I2C_LCD_init(0x27);
 139:/home/student/avr_src/SimulIDE_1.0.0-SR1_Lin64/Timer/Timer.c **** 	I2C_LCD_Reset();
 140:/home/student/avr_src/SimulIDE_1.0.0-SR1_Lin64/Timer/Timer.c **** 	I2C_Timer_Default();
 141:/home/student/avr_src/SimulIDE_1.0.0-SR1_Lin64/Timer/Timer.c **** 	Timer1_init();
 142:/home/student/avr_src/SimulIDE_1.0.0-SR1_Lin64/Timer/Timer.c ****     USART_init();
 143:/home/student/avr_src/SimulIDE_1.0.0-SR1_Lin64/Timer/Timer.c **** 	RX_init();
 144:/home/student/avr_src/SimulIDE_1.0.0-SR1_Lin64/Timer/Timer.c **** 
 145:/home/student/avr_src/SimulIDE_1.0.0-SR1_Lin64/Timer/Timer.c **** 	while(1){
 146:/home/student/avr_src/SimulIDE_1.0.0-SR1_Lin64/Timer/Timer.c **** 
 147:/home/student/avr_src/SimulIDE_1.0.0-SR1_Lin64/Timer/Timer.c **** 		if(end_flag) {
 148:/home/student/avr_src/SimulIDE_1.0.0-SR1_Lin64/Timer/Timer.c **** 
 149:/home/student/avr_src/SimulIDE_1.0.0-SR1_Lin64/Timer/Timer.c **** 			end_flag = 0;
 150:/home/student/avr_src/SimulIDE_1.0.0-SR1_Lin64/Timer/Timer.c **** 			timer_start_flag = 0;
 151:/home/student/avr_src/SimulIDE_1.0.0-SR1_Lin64/Timer/Timer.c **** 			I2C_Timer_Default();
 152:/home/student/avr_src/SimulIDE_1.0.0-SR1_Lin64/Timer/Timer.c **** 			job = 0;
 153:/home/student/avr_src/SimulIDE_1.0.0-SR1_Lin64/Timer/Timer.c **** 			Value_init();
 154:/home/student/avr_src/SimulIDE_1.0.0-SR1_Lin64/Timer/Timer.c **** 		}
 155:/home/student/avr_src/SimulIDE_1.0.0-SR1_Lin64/Timer/Timer.c **** 
 156:/home/student/avr_src/SimulIDE_1.0.0-SR1_Lin64/Timer/Timer.c **** 		if(Command_flag){
 157:/home/student/avr_src/SimulIDE_1.0.0-SR1_Lin64/Timer/Timer.c **** 
 158:/home/student/avr_src/SimulIDE_1.0.0-SR1_Lin64/Timer/Timer.c **** 			c_index = 0;
 159:/home/student/avr_src/SimulIDE_1.0.0-SR1_Lin64/Timer/Timer.c **** 			Command_flag = 0;
 160:/home/student/avr_src/SimulIDE_1.0.0-SR1_Lin64/Timer/Timer.c **** 			unsigned char c_tmp = q_pop();
 161:/home/student/avr_src/SimulIDE_1.0.0-SR1_Lin64/Timer/Timer.c **** 			c_tmp = q_pop();
 162:/home/student/avr_src/SimulIDE_1.0.0-SR1_Lin64/Timer/Timer.c **** 
 163:/home/student/avr_src/SimulIDE_1.0.0-SR1_Lin64/Timer/Timer.c **** 			if(c_tmp == 0x24){ //$ : Timer set command
 164:/home/student/avr_src/SimulIDE_1.0.0-SR1_Lin64/Timer/Timer.c **** 				instr_flag = 1;
 165:/home/student/avr_src/SimulIDE_1.0.0-SR1_Lin64/Timer/Timer.c **** 			}
 166:/home/student/avr_src/SimulIDE_1.0.0-SR1_Lin64/Timer/Timer.c **** 			else if(c_tmp == 0x25){ //% : Timer start command
 167:/home/student/avr_src/SimulIDE_1.0.0-SR1_Lin64/Timer/Timer.c **** 				timer_start_flag = 1;
 168:/home/student/avr_src/SimulIDE_1.0.0-SR1_Lin64/Timer/Timer.c **** 				q_clear();
 169:/home/student/avr_src/SimulIDE_1.0.0-SR1_Lin64/Timer/Timer.c **** 			}
 170:/home/student/avr_src/SimulIDE_1.0.0-SR1_Lin64/Timer/Timer.c **** 
 171:/home/student/avr_src/SimulIDE_1.0.0-SR1_Lin64/Timer/Timer.c **** 			while(instr_flag){
 172:/home/student/avr_src/SimulIDE_1.0.0-SR1_Lin64/Timer/Timer.c **** 				
 173:/home/student/avr_src/SimulIDE_1.0.0-SR1_Lin64/Timer/Timer.c **** 				unsigned char cmd_tmp = 0;
 174:/home/student/avr_src/SimulIDE_1.0.0-SR1_Lin64/Timer/Timer.c **** 				if(c_index < 4) {
 175:/home/student/avr_src/SimulIDE_1.0.0-SR1_Lin64/Timer/Timer.c **** 					cmd_tmp = q_pop();
 176:/home/student/avr_src/SimulIDE_1.0.0-SR1_Lin64/Timer/Timer.c **** 					Tx_char(cmd_tmp);
 177:/home/student/avr_src/SimulIDE_1.0.0-SR1_Lin64/Timer/Timer.c **** 					if ((cmd_tmp-'0') <= 9 && (cmd_tmp-'0') >=0) time_arr[c_index] = cmd_tmp;
 178:/home/student/avr_src/SimulIDE_1.0.0-SR1_Lin64/Timer/Timer.c **** 					else {
 179:/home/student/avr_src/SimulIDE_1.0.0-SR1_Lin64/Timer/Timer.c **** 						//ERROR
 180:/home/student/avr_src/SimulIDE_1.0.0-SR1_Lin64/Timer/Timer.c **** 						ERROR_MESSAGE();
 181:/home/student/avr_src/SimulIDE_1.0.0-SR1_Lin64/Timer/Timer.c **** 						COMMAND_RESET();
 182:/home/student/avr_src/SimulIDE_1.0.0-SR1_Lin64/Timer/Timer.c **** 						break;
 183:/home/student/avr_src/SimulIDE_1.0.0-SR1_Lin64/Timer/Timer.c **** 					}
 184:/home/student/avr_src/SimulIDE_1.0.0-SR1_Lin64/Timer/Timer.c **** 					c_index ++;
 185:/home/student/avr_src/SimulIDE_1.0.0-SR1_Lin64/Timer/Timer.c **** 				}
 186:/home/student/avr_src/SimulIDE_1.0.0-SR1_Lin64/Timer/Timer.c **** 				if(c_index == 4) cmd_tmp = q_pop();
 187:/home/student/avr_src/SimulIDE_1.0.0-SR1_Lin64/Timer/Timer.c **** 				if(c_index > 4) {
 188:/home/student/avr_src/SimulIDE_1.0.0-SR1_Lin64/Timer/Timer.c **** 					//ERROR
 189:/home/student/avr_src/SimulIDE_1.0.0-SR1_Lin64/Timer/Timer.c **** 					ERROR_MESSAGE();
 190:/home/student/avr_src/SimulIDE_1.0.0-SR1_Lin64/Timer/Timer.c **** 					COMMAND_RESET();
 191:/home/student/avr_src/SimulIDE_1.0.0-SR1_Lin64/Timer/Timer.c **** 					break;
 192:/home/student/avr_src/SimulIDE_1.0.0-SR1_Lin64/Timer/Timer.c **** 				}
 193:/home/student/avr_src/SimulIDE_1.0.0-SR1_Lin64/Timer/Timer.c **** 				if(cmd_tmp == 0x23){ //#
 194:/home/student/avr_src/SimulIDE_1.0.0-SR1_Lin64/Timer/Timer.c **** 					if((((time_arr[0] - '0')*10 + (time_arr[1] - '0')) <= 60) && ((time_arr[2] - '0')*10 + (time_a
 195:/home/student/avr_src/SimulIDE_1.0.0-SR1_Lin64/Timer/Timer.c **** 						TIME_SETTING(((time_arr[0] - '0')*10 + (time_arr[1] - '0')), ((time_arr[2] - '0')*10 + (time_
 196:/home/student/avr_src/SimulIDE_1.0.0-SR1_Lin64/Timer/Timer.c **** 						COMMAND_RESET();
 197:/home/student/avr_src/SimulIDE_1.0.0-SR1_Lin64/Timer/Timer.c **** 						break;
 198:/home/student/avr_src/SimulIDE_1.0.0-SR1_Lin64/Timer/Timer.c **** 					}
 199:/home/student/avr_src/SimulIDE_1.0.0-SR1_Lin64/Timer/Timer.c **** 					else {
 200:/home/student/avr_src/SimulIDE_1.0.0-SR1_Lin64/Timer/Timer.c **** 						//ERROR
 201:/home/student/avr_src/SimulIDE_1.0.0-SR1_Lin64/Timer/Timer.c **** 						ERROR_MESSAGE();
 202:/home/student/avr_src/SimulIDE_1.0.0-SR1_Lin64/Timer/Timer.c **** 						COMMAND_RESET();
 203:/home/student/avr_src/SimulIDE_1.0.0-SR1_Lin64/Timer/Timer.c **** 						break;
 204:/home/student/avr_src/SimulIDE_1.0.0-SR1_Lin64/Timer/Timer.c **** 					}
 205:/home/student/avr_src/SimulIDE_1.0.0-SR1_Lin64/Timer/Timer.c **** 					break;
 206:/home/student/avr_src/SimulIDE_1.0.0-SR1_Lin64/Timer/Timer.c **** 				}
 207:/home/student/avr_src/SimulIDE_1.0.0-SR1_Lin64/Timer/Timer.c **** 			}
 208:/home/student/avr_src/SimulIDE_1.0.0-SR1_Lin64/Timer/Timer.c **** 		}			
 209:/home/student/avr_src/SimulIDE_1.0.0-SR1_Lin64/Timer/Timer.c **** 
 210:/home/student/avr_src/SimulIDE_1.0.0-SR1_Lin64/Timer/Timer.c **** 		switch (job) {//can append command and set timer here
 211:/home/student/avr_src/SimulIDE_1.0.0-SR1_Lin64/Timer/Timer.c **** 			case 0:
 212:/home/student/avr_src/SimulIDE_1.0.0-SR1_Lin64/Timer/Timer.c **** 				if(timer_start_flag) {
 213:/home/student/avr_src/SimulIDE_1.0.0-SR1_Lin64/Timer/Timer.c **** 					time_1s = 100;
 214:/home/student/avr_src/SimulIDE_1.0.0-SR1_Lin64/Timer/Timer.c **** 					job++;
 215:/home/student/avr_src/SimulIDE_1.0.0-SR1_Lin64/Timer/Timer.c **** 				}
 216:/home/student/avr_src/SimulIDE_1.0.0-SR1_Lin64/Timer/Timer.c **** 				break;
 217:/home/student/avr_src/SimulIDE_1.0.0-SR1_Lin64/Timer/Timer.c **** 			case 1:
 218:/home/student/avr_src/SimulIDE_1.0.0-SR1_Lin64/Timer/Timer.c **** 				if(time_1s) break;
 219:/home/student/avr_src/SimulIDE_1.0.0-SR1_Lin64/Timer/Timer.c **** 				else job++;
 220:/home/student/avr_src/SimulIDE_1.0.0-SR1_Lin64/Timer/Timer.c **** 			case 2:
 221:/home/student/avr_src/SimulIDE_1.0.0-SR1_Lin64/Timer/Timer.c **** 				I2C_Timer_act();
 222:/home/student/avr_src/SimulIDE_1.0.0-SR1_Lin64/Timer/Timer.c **** 				job++;
 223:/home/student/avr_src/SimulIDE_1.0.0-SR1_Lin64/Timer/Timer.c **** 			case 3:
 224:/home/student/avr_src/SimulIDE_1.0.0-SR1_Lin64/Timer/Timer.c **** 				if(end_flag) job++;
 225:/home/student/avr_src/SimulIDE_1.0.0-SR1_Lin64/Timer/Timer.c **** 				else job = 0;
 226:/home/student/avr_src/SimulIDE_1.0.0-SR1_Lin64/Timer/Timer.c **** 			default:
 227:/home/student/avr_src/SimulIDE_1.0.0-SR1_Lin64/Timer/Timer.c **** 				break;
 228:/home/student/avr_src/SimulIDE_1.0.0-SR1_Lin64/Timer/Timer.c **** 		}
 229:/home/student/avr_src/SimulIDE_1.0.0-SR1_Lin64/Timer/Timer.c **** 	}
 230:/home/student/avr_src/SimulIDE_1.0.0-SR1_Lin64/Timer/Timer.c **** }
 231:/home/student/avr_src/SimulIDE_1.0.0-SR1_Lin64/Timer/Timer.c **** //===================================================
 232:/home/student/avr_src/SimulIDE_1.0.0-SR1_Lin64/Timer/Timer.c **** void Value_init(){
 114               		.stabn	68,0,232,.LM0-.LFBB1
 115               	.LM0:
 116               	.LFBB1:
 117               	/* prologue: function */
 118               	/* frame size = 0 */
 119               	/* stack size = 0 */
 120               	.L__stack_usage = 0
 233:/home/student/avr_src/SimulIDE_1.0.0-SR1_Lin64/Timer/Timer.c **** 	sel.n1 = 0;
 121               		.stabn	68,0,233,.LM1-.LFBB1
 122               	.LM1:
 123 0000 E0E0      		ldi r30,lo8(sel)
 124 0002 F0E0      		ldi r31,hi8(sel)
 125 0004 1182      		std Z+1,__zero_reg__
 126 0006 1082      		st Z,__zero_reg__
 234:/home/student/avr_src/SimulIDE_1.0.0-SR1_Lin64/Timer/Timer.c **** 	sel.n2 = 0;
 127               		.stabn	68,0,234,.LM2-.LFBB1
 128               	.LM2:
 129 0008 1382      		std Z+3,__zero_reg__
 130 000a 1282      		std Z+2,__zero_reg__
 235:/home/student/avr_src/SimulIDE_1.0.0-SR1_Lin64/Timer/Timer.c **** 	sel.n3 = 0;
 131               		.stabn	68,0,235,.LM3-.LFBB1
 132               	.LM3:
 133 000c 1582      		std Z+5,__zero_reg__
 134 000e 1482      		std Z+4,__zero_reg__
 236:/home/student/avr_src/SimulIDE_1.0.0-SR1_Lin64/Timer/Timer.c **** 	sel.n4 = 0;
 135               		.stabn	68,0,236,.LM4-.LFBB1
 136               	.LM4:
 137 0010 1782      		std Z+7,__zero_reg__
 138 0012 1682      		std Z+6,__zero_reg__
 237:/home/student/avr_src/SimulIDE_1.0.0-SR1_Lin64/Timer/Timer.c **** 	sel.MinNum = 0;
 139               		.stabn	68,0,237,.LM5-.LFBB1
 140               	.LM5:
 141 0014 1386      		std Z+11,__zero_reg__
 142 0016 1286      		std Z+10,__zero_reg__
 238:/home/student/avr_src/SimulIDE_1.0.0-SR1_Lin64/Timer/Timer.c **** 	sel.SecNum = 0;
 143               		.stabn	68,0,238,.LM6-.LFBB1
 144               	.LM6:
 145 0018 1186      		std Z+9,__zero_reg__
 146 001a 1086      		std Z+8,__zero_reg__
 239:/home/student/avr_src/SimulIDE_1.0.0-SR1_Lin64/Timer/Timer.c **** 	cp.x = 9;
 147               		.stabn	68,0,239,.LM7-.LFBB1
 148               	.LM7:
 149 001c 89E0      		ldi r24,lo8(9)
 150 001e 90E0      		ldi r25,0
 151 0020 9093 0000 		sts cp+1,r25
 152 0024 8093 0000 		sts cp,r24
 153 0028 0895      		ret
 154               		.size	Value_init, .-Value_init
 155               	.Lscope1:
 156               		.stabs	"",36,0,0,.Lscope1-.LFBB1
 157               		.stabd	78,0,0
 158               		.stabs	"Port_init:F(0,49)",36,0,242,Port_init
 159               	.global	Port_init
 160               		.type	Port_init, @function
 161               	Port_init:
 162               		.stabd	46,0,0
 240:/home/student/avr_src/SimulIDE_1.0.0-SR1_Lin64/Timer/Timer.c **** }
 241:/home/student/avr_src/SimulIDE_1.0.0-SR1_Lin64/Timer/Timer.c **** 
 242:/home/student/avr_src/SimulIDE_1.0.0-SR1_Lin64/Timer/Timer.c **** void Port_init(){
 163               		.stabn	68,0,242,.LM8-.LFBB2
 164               	.LM8:
 165               	.LFBB2:
 166               	/* prologue: function */
 167               	/* frame size = 0 */
 168               	/* stack size = 0 */
 169               	.L__stack_usage = 0
 243:/home/student/avr_src/SimulIDE_1.0.0-SR1_Lin64/Timer/Timer.c **** 	//set B0~D4 as input,  D5, D6, D7 pins are set high to find key vals
 244:/home/student/avr_src/SimulIDE_1.0.0-SR1_Lin64/Timer/Timer.c **** 	DDRD = 0b01110000;
 170               		.stabn	68,0,244,.LM9-.LFBB2
 171               	.LM9:
 172 002a 80E7      		ldi r24,lo8(112)
 173 002c 8AB9      		out 0xa,r24
 245:/home/student/avr_src/SimulIDE_1.0.0-SR1_Lin64/Timer/Timer.c **** 	PORTD = 0b00000000;
 174               		.stabn	68,0,245,.LM10-.LFBB2
 175               	.LM10:
 176 002e 1BB8      		out 0xb,__zero_reg__
 246:/home/student/avr_src/SimulIDE_1.0.0-SR1_Lin64/Timer/Timer.c **** 	DDRB = 0b00110000;
 177               		.stabn	68,0,246,.LM11-.LFBB2
 178               	.LM11:
 179 0030 80E3      		ldi r24,lo8(48)
 180 0032 84B9      		out 0x4,r24
 181 0034 0895      		ret
 182               		.size	Port_init, .-Port_init
 183               	.Lscope2:
 184               		.stabs	"",36,0,0,.Lscope2-.LFBB2
 185               		.stabd	78,0,0
 186               		.stabs	"Timer1_init:F(0,49)",36,0,295,Timer1_init
 187               	.global	Timer1_init
 188               		.type	Timer1_init, @function
 189               	Timer1_init:
 190               		.stabd	46,0,0
 247:/home/student/avr_src/SimulIDE_1.0.0-SR1_Lin64/Timer/Timer.c **** }
 248:/home/student/avr_src/SimulIDE_1.0.0-SR1_Lin64/Timer/Timer.c **** //===================================================
 249:/home/student/avr_src/SimulIDE_1.0.0-SR1_Lin64/Timer/Timer.c **** void TIME_SETTING(unsigned char m, unsigned char s){
 250:/home/student/avr_src/SimulIDE_1.0.0-SR1_Lin64/Timer/Timer.c **** 	cli();
 251:/home/student/avr_src/SimulIDE_1.0.0-SR1_Lin64/Timer/Timer.c **** 	unsigned char min_tmp[2];
 252:/home/student/avr_src/SimulIDE_1.0.0-SR1_Lin64/Timer/Timer.c **** 	unsigned char sec_tmp[2];
 253:/home/student/avr_src/SimulIDE_1.0.0-SR1_Lin64/Timer/Timer.c **** 
 254:/home/student/avr_src/SimulIDE_1.0.0-SR1_Lin64/Timer/Timer.c **** 	//global variable set
 255:/home/student/avr_src/SimulIDE_1.0.0-SR1_Lin64/Timer/Timer.c **** 	min = m;
 256:/home/student/avr_src/SimulIDE_1.0.0-SR1_Lin64/Timer/Timer.c **** 	sec = s;
 257:/home/student/avr_src/SimulIDE_1.0.0-SR1_Lin64/Timer/Timer.c **** 
 258:/home/student/avr_src/SimulIDE_1.0.0-SR1_Lin64/Timer/Timer.c **** 	//display array set
 259:/home/student/avr_src/SimulIDE_1.0.0-SR1_Lin64/Timer/Timer.c **** 	if(min > 9){
 260:/home/student/avr_src/SimulIDE_1.0.0-SR1_Lin64/Timer/Timer.c **** 		min_tmp[0] = min / 10;
 261:/home/student/avr_src/SimulIDE_1.0.0-SR1_Lin64/Timer/Timer.c **** 		min_tmp[1] = min % 10;
 262:/home/student/avr_src/SimulIDE_1.0.0-SR1_Lin64/Timer/Timer.c **** 	}
 263:/home/student/avr_src/SimulIDE_1.0.0-SR1_Lin64/Timer/Timer.c **** 	else{
 264:/home/student/avr_src/SimulIDE_1.0.0-SR1_Lin64/Timer/Timer.c **** 		min_tmp[0] = 0;
 265:/home/student/avr_src/SimulIDE_1.0.0-SR1_Lin64/Timer/Timer.c **** 		min_tmp[1] = min % 10;
 266:/home/student/avr_src/SimulIDE_1.0.0-SR1_Lin64/Timer/Timer.c **** 	}
 267:/home/student/avr_src/SimulIDE_1.0.0-SR1_Lin64/Timer/Timer.c **** 
 268:/home/student/avr_src/SimulIDE_1.0.0-SR1_Lin64/Timer/Timer.c **** 	if(sec > 9){
 269:/home/student/avr_src/SimulIDE_1.0.0-SR1_Lin64/Timer/Timer.c **** 		sec_tmp[0] = sec / 10;
 270:/home/student/avr_src/SimulIDE_1.0.0-SR1_Lin64/Timer/Timer.c **** 		sec_tmp[1] = sec % 10;
 271:/home/student/avr_src/SimulIDE_1.0.0-SR1_Lin64/Timer/Timer.c **** 	}
 272:/home/student/avr_src/SimulIDE_1.0.0-SR1_Lin64/Timer/Timer.c **** 	else{
 273:/home/student/avr_src/SimulIDE_1.0.0-SR1_Lin64/Timer/Timer.c **** 		sec_tmp[0] = 0;
 274:/home/student/avr_src/SimulIDE_1.0.0-SR1_Lin64/Timer/Timer.c **** 		sec_tmp[1] = sec % 10;
 275:/home/student/avr_src/SimulIDE_1.0.0-SR1_Lin64/Timer/Timer.c **** 	}
 276:/home/student/avr_src/SimulIDE_1.0.0-SR1_Lin64/Timer/Timer.c **** 	I2C_LCD_Reset();
 277:/home/student/avr_src/SimulIDE_1.0.0-SR1_Lin64/Timer/Timer.c ****     LCD_CharWrite(0x2101);
 278:/home/student/avr_src/SimulIDE_1.0.0-SR1_Lin64/Timer/Timer.c ****     LCD_CharWrite(0x2101);
 279:/home/student/avr_src/SimulIDE_1.0.0-SR1_Lin64/Timer/Timer.c ****     LCD_CharWrite(0x2101);
 280:/home/student/avr_src/SimulIDE_1.0.0-SR1_Lin64/Timer/Timer.c ****     LCD_CharWrite(0x2101);
 281:/home/student/avr_src/SimulIDE_1.0.0-SR1_Lin64/Timer/Timer.c ****     LCD_CharWrite(num2lcdbyte(min_tmp[0]));
 282:/home/student/avr_src/SimulIDE_1.0.0-SR1_Lin64/Timer/Timer.c ****     LCD_CharWrite(num2lcdbyte(min_tmp[1]));
 283:/home/student/avr_src/SimulIDE_1.0.0-SR1_Lin64/Timer/Timer.c **** 	LCD_CharWrite(0x31A1);
 284:/home/student/avr_src/SimulIDE_1.0.0-SR1_Lin64/Timer/Timer.c ****     LCD_CharWrite(num2lcdbyte(sec_tmp[0]));
 285:/home/student/avr_src/SimulIDE_1.0.0-SR1_Lin64/Timer/Timer.c ****     LCD_CharWrite(num2lcdbyte(sec_tmp[1]));
 286:/home/student/avr_src/SimulIDE_1.0.0-SR1_Lin64/Timer/Timer.c ****     LCD_CharWrite(0x31A1);
 287:/home/student/avr_src/SimulIDE_1.0.0-SR1_Lin64/Timer/Timer.c ****     LCD_CharWrite(num2lcdbyte(0));
 288:/home/student/avr_src/SimulIDE_1.0.0-SR1_Lin64/Timer/Timer.c ****     LCD_CharWrite(num2lcdbyte(0));
 289:/home/student/avr_src/SimulIDE_1.0.0-SR1_Lin64/Timer/Timer.c **** 	LCD_CharWrite(0x00C0);
 290:/home/student/avr_src/SimulIDE_1.0.0-SR1_Lin64/Timer/Timer.c **** 	I2C_LCD_MoveLeft(4);
 291:/home/student/avr_src/SimulIDE_1.0.0-SR1_Lin64/Timer/Timer.c **** 	cp.x = 9;
 292:/home/student/avr_src/SimulIDE_1.0.0-SR1_Lin64/Timer/Timer.c **** 	sei();
 293:/home/student/avr_src/SimulIDE_1.0.0-SR1_Lin64/Timer/Timer.c **** }
 294:/home/student/avr_src/SimulIDE_1.0.0-SR1_Lin64/Timer/Timer.c **** //===================================================
 295:/home/student/avr_src/SimulIDE_1.0.0-SR1_Lin64/Timer/Timer.c **** void Timer1_init(){
 191               		.stabn	68,0,295,.LM12-.LFBB3
 192               	.LM12:
 193               	.LFBB3:
 194               	/* prologue: function */
 195               	/* frame size = 0 */
 196               	/* stack size = 0 */
 197               	.L__stack_usage = 0
 296:/home/student/avr_src/SimulIDE_1.0.0-SR1_Lin64/Timer/Timer.c **** 
 297:/home/student/avr_src/SimulIDE_1.0.0-SR1_Lin64/Timer/Timer.c ****     TCCR1B =  (1 << WGM12) | (0 << CS12) | (1 << CS11) | (1 << CS10);
 198               		.stabn	68,0,297,.LM13-.LFBB3
 199               	.LM13:
 200 0036 8BE0      		ldi r24,lo8(11)
 201 0038 8093 8100 		sts 129,r24
 298:/home/student/avr_src/SimulIDE_1.0.0-SR1_Lin64/Timer/Timer.c **** 	TCNT1 = 0;
 202               		.stabn	68,0,298,.LM14-.LFBB3
 203               	.LM14:
 204 003c 1092 8500 		sts 132+1,__zero_reg__
 205 0040 1092 8400 		sts 132,__zero_reg__
 299:/home/student/avr_src/SimulIDE_1.0.0-SR1_Lin64/Timer/Timer.c ****     OCR1A = 0x09c4; 
 206               		.stabn	68,0,299,.LM15-.LFBB3
 207               	.LM15:
 208 0044 84EC      		ldi r24,lo8(-60)
 209 0046 99E0      		ldi r25,lo8(9)
 210 0048 9093 8900 		sts 136+1,r25
 211 004c 8093 8800 		sts 136,r24
 300:/home/student/avr_src/SimulIDE_1.0.0-SR1_Lin64/Timer/Timer.c ****     TIMSK1 |= (1 << TOIE1) | (1 << OCIE1A);
 212               		.stabn	68,0,300,.LM16-.LFBB3
 213               	.LM16:
 214 0050 EFE6      		ldi r30,lo8(111)
 215 0052 F0E0      		ldi r31,0
 216 0054 8081      		ld r24,Z
 217 0056 8360      		ori r24,lo8(3)
 218 0058 8083      		st Z,r24
 301:/home/student/avr_src/SimulIDE_1.0.0-SR1_Lin64/Timer/Timer.c **** 	sel.n2 = 0;
 219               		.stabn	68,0,301,.LM17-.LFBB3
 220               	.LM17:
 221 005a E0E0      		ldi r30,lo8(sel)
 222 005c F0E0      		ldi r31,hi8(sel)
 223 005e 1382      		std Z+3,__zero_reg__
 224 0060 1282      		std Z+2,__zero_reg__
 302:/home/student/avr_src/SimulIDE_1.0.0-SR1_Lin64/Timer/Timer.c **** 	sel.n3 = 0;
 225               		.stabn	68,0,302,.LM18-.LFBB3
 226               	.LM18:
 227 0062 1582      		std Z+5,__zero_reg__
 228 0064 1482      		std Z+4,__zero_reg__
 303:/home/student/avr_src/SimulIDE_1.0.0-SR1_Lin64/Timer/Timer.c **** 	sel.n4 = 0;
 229               		.stabn	68,0,303,.LM19-.LFBB3
 230               	.LM19:
 231 0066 1782      		std Z+7,__zero_reg__
 232 0068 1682      		std Z+6,__zero_reg__
 304:/home/student/avr_src/SimulIDE_1.0.0-SR1_Lin64/Timer/Timer.c **** 	sel.SecNum = 0;
 233               		.stabn	68,0,304,.LM20-.LFBB3
 234               	.LM20:
 235 006a 1186      		std Z+9,__zero_reg__
 236 006c 1086      		std Z+8,__zero_reg__
 305:/home/student/avr_src/SimulIDE_1.0.0-SR1_Lin64/Timer/Timer.c **** 	sel.MinNum = 0;
 237               		.stabn	68,0,305,.LM21-.LFBB3
 238               	.LM21:
 239 006e 1386      		std Z+11,__zero_reg__
 240 0070 1286      		std Z+10,__zero_reg__
 241 0072 0895      		ret
 242               		.size	Timer1_init, .-Timer1_init
 243               	.Lscope3:
 244               		.stabs	"",36,0,0,.Lscope3-.LFBB3
 245               		.stabd	78,0,0
 246               		.stabs	"USART_init:F(0,49)",36,0,741,USART_init
 247               	.global	USART_init
 248               		.type	USART_init, @function
 249               	USART_init:
 250               		.stabd	46,0,0
 306:/home/student/avr_src/SimulIDE_1.0.0-SR1_Lin64/Timer/Timer.c **** }
 307:/home/student/avr_src/SimulIDE_1.0.0-SR1_Lin64/Timer/Timer.c **** //====================================================
 308:/home/student/avr_src/SimulIDE_1.0.0-SR1_Lin64/Timer/Timer.c **** void I2C_LCD_Erase(){
 309:/home/student/avr_src/SimulIDE_1.0.0-SR1_Lin64/Timer/Timer.c **** 	LCD_CharWrite(0x0040);
 310:/home/student/avr_src/SimulIDE_1.0.0-SR1_Lin64/Timer/Timer.c **** 	LCD_CharWrite(0xA101);
 311:/home/student/avr_src/SimulIDE_1.0.0-SR1_Lin64/Timer/Timer.c ****     LCD_CharWrite(0x0040);
 312:/home/student/avr_src/SimulIDE_1.0.0-SR1_Lin64/Timer/Timer.c ****     LCD_CharWrite(0xA101);
 313:/home/student/avr_src/SimulIDE_1.0.0-SR1_Lin64/Timer/Timer.c ****     LCD_CharWrite(0x0060);
 314:/home/student/avr_src/SimulIDE_1.0.0-SR1_Lin64/Timer/Timer.c **** }
 315:/home/student/avr_src/SimulIDE_1.0.0-SR1_Lin64/Timer/Timer.c **** 
 316:/home/student/avr_src/SimulIDE_1.0.0-SR1_Lin64/Timer/Timer.c **** void I2C_LCD_Reset(){
 317:/home/student/avr_src/SimulIDE_1.0.0-SR1_Lin64/Timer/Timer.c **** 	cli();
 318:/home/student/avr_src/SimulIDE_1.0.0-SR1_Lin64/Timer/Timer.c ****     LCD_CharWrite(0x0010);
 319:/home/student/avr_src/SimulIDE_1.0.0-SR1_Lin64/Timer/Timer.c **** 	_delay_us(38);
 320:/home/student/avr_src/SimulIDE_1.0.0-SR1_Lin64/Timer/Timer.c **** 	LCD_CharWrite(0x0010);
 321:/home/student/avr_src/SimulIDE_1.0.0-SR1_Lin64/Timer/Timer.c **** 	_delay_us(38);
 322:/home/student/avr_src/SimulIDE_1.0.0-SR1_Lin64/Timer/Timer.c **** 	LCD_CharWrite(0x0030);
 323:/home/student/avr_src/SimulIDE_1.0.0-SR1_Lin64/Timer/Timer.c **** 	_delay_us(38);
 324:/home/student/avr_src/SimulIDE_1.0.0-SR1_Lin64/Timer/Timer.c **** 
 325:/home/student/avr_src/SimulIDE_1.0.0-SR1_Lin64/Timer/Timer.c **** 	I2C_LCD_init(0x27);
 326:/home/student/avr_src/SimulIDE_1.0.0-SR1_Lin64/Timer/Timer.c **** 	_delay_us(38);
 327:/home/student/avr_src/SimulIDE_1.0.0-SR1_Lin64/Timer/Timer.c **** 
 328:/home/student/avr_src/SimulIDE_1.0.0-SR1_Lin64/Timer/Timer.c **** 	LCD_CharWrite(0x0010);
 329:/home/student/avr_src/SimulIDE_1.0.0-SR1_Lin64/Timer/Timer.c **** 	_delay_us(38);
 330:/home/student/avr_src/SimulIDE_1.0.0-SR1_Lin64/Timer/Timer.c **** 	LCD_CharWrite(0x0030);
 331:/home/student/avr_src/SimulIDE_1.0.0-SR1_Lin64/Timer/Timer.c **** 
 332:/home/student/avr_src/SimulIDE_1.0.0-SR1_Lin64/Timer/Timer.c **** 	_delay_us(38);
 333:/home/student/avr_src/SimulIDE_1.0.0-SR1_Lin64/Timer/Timer.c **** 
 334:/home/student/avr_src/SimulIDE_1.0.0-SR1_Lin64/Timer/Timer.c **** 	I2C_LCD_init(0x27);
 335:/home/student/avr_src/SimulIDE_1.0.0-SR1_Lin64/Timer/Timer.c **** 	_delay_us(38);
 336:/home/student/avr_src/SimulIDE_1.0.0-SR1_Lin64/Timer/Timer.c **** 	I2C_LCD_init(0x27);
 337:/home/student/avr_src/SimulIDE_1.0.0-SR1_Lin64/Timer/Timer.c **** 	LCD_CharWrite(0x20C0);
 338:/home/student/avr_src/SimulIDE_1.0.0-SR1_Lin64/Timer/Timer.c **** 	LCD_CharWrite(0x0020);
 339:/home/student/avr_src/SimulIDE_1.0.0-SR1_Lin64/Timer/Timer.c **** 	I2C_LCD_init(0x27);
 340:/home/student/avr_src/SimulIDE_1.0.0-SR1_Lin64/Timer/Timer.c ****     
 341:/home/student/avr_src/SimulIDE_1.0.0-SR1_Lin64/Timer/Timer.c **** 	sei();
 342:/home/student/avr_src/SimulIDE_1.0.0-SR1_Lin64/Timer/Timer.c ****     LCD_CharWrite(0x00C0);
 343:/home/student/avr_src/SimulIDE_1.0.0-SR1_Lin64/Timer/Timer.c **** }
 344:/home/student/avr_src/SimulIDE_1.0.0-SR1_Lin64/Timer/Timer.c **** void I2C_LCD_init(unsigned char address){
 345:/home/student/avr_src/SimulIDE_1.0.0-SR1_Lin64/Timer/Timer.c **** 	cli();
 346:/home/student/avr_src/SimulIDE_1.0.0-SR1_Lin64/Timer/Timer.c **** 
 347:/home/student/avr_src/SimulIDE_1.0.0-SR1_Lin64/Timer/Timer.c **** 	_delay_ms(18);
 348:/home/student/avr_src/SimulIDE_1.0.0-SR1_Lin64/Timer/Timer.c **** 	AT24Cxx_i2c_start();
 349:/home/student/avr_src/SimulIDE_1.0.0-SR1_Lin64/Timer/Timer.c **** 	write_AT24Cxx_i2c_LCDAddressing(address  << 1); //write mode
 350:/home/student/avr_src/SimulIDE_1.0.0-SR1_Lin64/Timer/Timer.c **** 	LCD_Write(0x20);
 351:/home/student/avr_src/SimulIDE_1.0.0-SR1_Lin64/Timer/Timer.c **** 
 352:/home/student/avr_src/SimulIDE_1.0.0-SR1_Lin64/Timer/Timer.c **** 
 353:/home/student/avr_src/SimulIDE_1.0.0-SR1_Lin64/Timer/Timer.c **** 	_delay_ms(2);
 354:/home/student/avr_src/SimulIDE_1.0.0-SR1_Lin64/Timer/Timer.c **** 	write_AT24Cxx_i2c_LCDAddressing(0x20);
 355:/home/student/avr_src/SimulIDE_1.0.0-SR1_Lin64/Timer/Timer.c **** 	_delay_ms(2);
 356:/home/student/avr_src/SimulIDE_1.0.0-SR1_Lin64/Timer/Timer.c **** 
 357:/home/student/avr_src/SimulIDE_1.0.0-SR1_Lin64/Timer/Timer.c **** 	write_AT24Cxx_i2c_LCDAddressing(0x30);
 358:/home/student/avr_src/SimulIDE_1.0.0-SR1_Lin64/Timer/Timer.c **** 	LCD_Write(0x00);
 359:/home/student/avr_src/SimulIDE_1.0.0-SR1_Lin64/Timer/Timer.c **** 	_delay_us(38);
 360:/home/student/avr_src/SimulIDE_1.0.0-SR1_Lin64/Timer/Timer.c **** 
 361:/home/student/avr_src/SimulIDE_1.0.0-SR1_Lin64/Timer/Timer.c **** 	LCD_Write(0x00);
 362:/home/student/avr_src/SimulIDE_1.0.0-SR1_Lin64/Timer/Timer.c **** 	write_AT24Cxx_i2c_LCDAddressing(0x00);
 363:/home/student/avr_src/SimulIDE_1.0.0-SR1_Lin64/Timer/Timer.c ****     _delay_us(38);
 364:/home/student/avr_src/SimulIDE_1.0.0-SR1_Lin64/Timer/Timer.c **** 
 365:/home/student/avr_src/SimulIDE_1.0.0-SR1_Lin64/Timer/Timer.c **** 	LCD_Write(0xE0);
 366:/home/student/avr_src/SimulIDE_1.0.0-SR1_Lin64/Timer/Timer.c **** 	write_AT24Cxx_i2c_LCDAddressing(0xE0);
 367:/home/student/avr_src/SimulIDE_1.0.0-SR1_Lin64/Timer/Timer.c **** 	_delay_us(38);
 368:/home/student/avr_src/SimulIDE_1.0.0-SR1_Lin64/Timer/Timer.c **** 
 369:/home/student/avr_src/SimulIDE_1.0.0-SR1_Lin64/Timer/Timer.c **** 	LCD_Write(0x00);
 370:/home/student/avr_src/SimulIDE_1.0.0-SR1_Lin64/Timer/Timer.c **** 	write_AT24Cxx_i2c_LCDAddressing(0x00);
 371:/home/student/avr_src/SimulIDE_1.0.0-SR1_Lin64/Timer/Timer.c **** 	_delay_us(38);
 372:/home/student/avr_src/SimulIDE_1.0.0-SR1_Lin64/Timer/Timer.c **** 
 373:/home/student/avr_src/SimulIDE_1.0.0-SR1_Lin64/Timer/Timer.c **** 	LCD_Write(0x60);
 374:/home/student/avr_src/SimulIDE_1.0.0-SR1_Lin64/Timer/Timer.c **** 	write_AT24Cxx_i2c_LCDAddressing(0x60);
 375:/home/student/avr_src/SimulIDE_1.0.0-SR1_Lin64/Timer/Timer.c **** 	_delay_us(38);
 376:/home/student/avr_src/SimulIDE_1.0.0-SR1_Lin64/Timer/Timer.c **** 
 377:/home/student/avr_src/SimulIDE_1.0.0-SR1_Lin64/Timer/Timer.c **** 	AT24Cxx_i2c_stop();
 378:/home/student/avr_src/SimulIDE_1.0.0-SR1_Lin64/Timer/Timer.c ****     _delay_us(40);
 379:/home/student/avr_src/SimulIDE_1.0.0-SR1_Lin64/Timer/Timer.c **** 	sei();
 380:/home/student/avr_src/SimulIDE_1.0.0-SR1_Lin64/Timer/Timer.c **** 	
 381:/home/student/avr_src/SimulIDE_1.0.0-SR1_Lin64/Timer/Timer.c **** }
 382:/home/student/avr_src/SimulIDE_1.0.0-SR1_Lin64/Timer/Timer.c **** //====================================================
 383:/home/student/avr_src/SimulIDE_1.0.0-SR1_Lin64/Timer/Timer.c **** void I2C_Timer_Default(){
 384:/home/student/avr_src/SimulIDE_1.0.0-SR1_Lin64/Timer/Timer.c **** 	I2C_LCD_Reset();
 385:/home/student/avr_src/SimulIDE_1.0.0-SR1_Lin64/Timer/Timer.c ****     LCD_CharWrite(0x2101);
 386:/home/student/avr_src/SimulIDE_1.0.0-SR1_Lin64/Timer/Timer.c ****     LCD_CharWrite(0x2101);
 387:/home/student/avr_src/SimulIDE_1.0.0-SR1_Lin64/Timer/Timer.c ****     LCD_CharWrite(0x2101);
 388:/home/student/avr_src/SimulIDE_1.0.0-SR1_Lin64/Timer/Timer.c ****     LCD_CharWrite(0x2101);
 389:/home/student/avr_src/SimulIDE_1.0.0-SR1_Lin64/Timer/Timer.c ****     LCD_CharWrite(num2lcdbyte(0));
 390:/home/student/avr_src/SimulIDE_1.0.0-SR1_Lin64/Timer/Timer.c ****     LCD_CharWrite(num2lcdbyte(0));
 391:/home/student/avr_src/SimulIDE_1.0.0-SR1_Lin64/Timer/Timer.c **** 	LCD_CharWrite(0x31A1);
 392:/home/student/avr_src/SimulIDE_1.0.0-SR1_Lin64/Timer/Timer.c ****     LCD_CharWrite(num2lcdbyte(0));
 393:/home/student/avr_src/SimulIDE_1.0.0-SR1_Lin64/Timer/Timer.c ****     LCD_CharWrite(num2lcdbyte(0));
 394:/home/student/avr_src/SimulIDE_1.0.0-SR1_Lin64/Timer/Timer.c ****     LCD_CharWrite(0x31A1);
 395:/home/student/avr_src/SimulIDE_1.0.0-SR1_Lin64/Timer/Timer.c ****     LCD_CharWrite(num2lcdbyte(0));
 396:/home/student/avr_src/SimulIDE_1.0.0-SR1_Lin64/Timer/Timer.c ****     LCD_CharWrite(num2lcdbyte(0));
 397:/home/student/avr_src/SimulIDE_1.0.0-SR1_Lin64/Timer/Timer.c **** 	LCD_CharWrite(0x00C0);
 398:/home/student/avr_src/SimulIDE_1.0.0-SR1_Lin64/Timer/Timer.c **** 	I2C_LCD_MoveLeft(4);
 399:/home/student/avr_src/SimulIDE_1.0.0-SR1_Lin64/Timer/Timer.c **** 	cp.x = 9;
 400:/home/student/avr_src/SimulIDE_1.0.0-SR1_Lin64/Timer/Timer.c **** }
 401:/home/student/avr_src/SimulIDE_1.0.0-SR1_Lin64/Timer/Timer.c **** //====================================================
 402:/home/student/avr_src/SimulIDE_1.0.0-SR1_Lin64/Timer/Timer.c **** void I2C_Timer_act(){
 403:/home/student/avr_src/SimulIDE_1.0.0-SR1_Lin64/Timer/Timer.c **** 		
 404:/home/student/avr_src/SimulIDE_1.0.0-SR1_Lin64/Timer/Timer.c **** 		if(min && !sec){
 405:/home/student/avr_src/SimulIDE_1.0.0-SR1_Lin64/Timer/Timer.c **** 			min--;
 406:/home/student/avr_src/SimulIDE_1.0.0-SR1_Lin64/Timer/Timer.c **** 			sec = 60;
 407:/home/student/avr_src/SimulIDE_1.0.0-SR1_Lin64/Timer/Timer.c **** 		}
 408:/home/student/avr_src/SimulIDE_1.0.0-SR1_Lin64/Timer/Timer.c **** 		/*------- Minutes Part start -------*/
 409:/home/student/avr_src/SimulIDE_1.0.0-SR1_Lin64/Timer/Timer.c **** 		if(min < 10){
 410:/home/student/avr_src/SimulIDE_1.0.0-SR1_Lin64/Timer/Timer.c **** 			I2C_LCD_MoveLeft(3);
 411:/home/student/avr_src/SimulIDE_1.0.0-SR1_Lin64/Timer/Timer.c **** 			LCD_CharWrite(num2lcdbyte(min));
 412:/home/student/avr_src/SimulIDE_1.0.0-SR1_Lin64/Timer/Timer.c **** 			I2C_LCD_MoveRight(2);
 413:/home/student/avr_src/SimulIDE_1.0.0-SR1_Lin64/Timer/Timer.c **** 			LCD_CharWrite(0x00C0);
 414:/home/student/avr_src/SimulIDE_1.0.0-SR1_Lin64/Timer/Timer.c **** 			LCD_CharWrite(0x00C0);
 415:/home/student/avr_src/SimulIDE_1.0.0-SR1_Lin64/Timer/Timer.c **** 		}
 416:/home/student/avr_src/SimulIDE_1.0.0-SR1_Lin64/Timer/Timer.c **** 		 if(min > 10){
 417:/home/student/avr_src/SimulIDE_1.0.0-SR1_Lin64/Timer/Timer.c **** 			I2C_LCD_MoveLeft(4);
 418:/home/student/avr_src/SimulIDE_1.0.0-SR1_Lin64/Timer/Timer.c **** 			LCD_CharWrite(num2lcdbyte(min/10));
 419:/home/student/avr_src/SimulIDE_1.0.0-SR1_Lin64/Timer/Timer.c **** 			LCD_CharWrite(num2lcdbyte(min%10));
 420:/home/student/avr_src/SimulIDE_1.0.0-SR1_Lin64/Timer/Timer.c **** 			I2C_LCD_MoveRight(2);
 421:/home/student/avr_src/SimulIDE_1.0.0-SR1_Lin64/Timer/Timer.c **** 			LCD_CharWrite(0x00C0);
 422:/home/student/avr_src/SimulIDE_1.0.0-SR1_Lin64/Timer/Timer.c **** 			LCD_CharWrite(0x00C0);
 423:/home/student/avr_src/SimulIDE_1.0.0-SR1_Lin64/Timer/Timer.c **** 		}
 424:/home/student/avr_src/SimulIDE_1.0.0-SR1_Lin64/Timer/Timer.c **** 		else if(min == 10){
 425:/home/student/avr_src/SimulIDE_1.0.0-SR1_Lin64/Timer/Timer.c **** 			I2C_LCD_MoveLeft(4);
 426:/home/student/avr_src/SimulIDE_1.0.0-SR1_Lin64/Timer/Timer.c **** 			LCD_CharWrite(num2lcdbyte(0));
 427:/home/student/avr_src/SimulIDE_1.0.0-SR1_Lin64/Timer/Timer.c **** 			LCD_CharWrite(num2lcdbyte(min%10));
 428:/home/student/avr_src/SimulIDE_1.0.0-SR1_Lin64/Timer/Timer.c **** 			I2C_LCD_MoveRight(2);
 429:/home/student/avr_src/SimulIDE_1.0.0-SR1_Lin64/Timer/Timer.c **** 			LCD_CharWrite(0x00C0);
 430:/home/student/avr_src/SimulIDE_1.0.0-SR1_Lin64/Timer/Timer.c **** 			LCD_CharWrite(0x00C0);
 431:/home/student/avr_src/SimulIDE_1.0.0-SR1_Lin64/Timer/Timer.c **** 		}
 432:/home/student/avr_src/SimulIDE_1.0.0-SR1_Lin64/Timer/Timer.c **** 		/*-------- Minutes part end --------*/
 433:/home/student/avr_src/SimulIDE_1.0.0-SR1_Lin64/Timer/Timer.c **** 
 434:/home/student/avr_src/SimulIDE_1.0.0-SR1_Lin64/Timer/Timer.c **** 		/*-------- Second part start -------*/
 435:/home/student/avr_src/SimulIDE_1.0.0-SR1_Lin64/Timer/Timer.c **** 		if(sec == 1 && !end_flag){
 436:/home/student/avr_src/SimulIDE_1.0.0-SR1_Lin64/Timer/Timer.c **** 			if(min){
 437:/home/student/avr_src/SimulIDE_1.0.0-SR1_Lin64/Timer/Timer.c **** 				LCD_CharWrite(num2lcdbyte(0));
 438:/home/student/avr_src/SimulIDE_1.0.0-SR1_Lin64/Timer/Timer.c **** 				I2C_LCD_MoveLeft(1);
 439:/home/student/avr_src/SimulIDE_1.0.0-SR1_Lin64/Timer/Timer.c **** 				time_10ms = 99;
 440:/home/student/avr_src/SimulIDE_1.0.0-SR1_Lin64/Timer/Timer.c **** 				sec = 60;
 441:/home/student/avr_src/SimulIDE_1.0.0-SR1_Lin64/Timer/Timer.c **** 				min--;
 442:/home/student/avr_src/SimulIDE_1.0.0-SR1_Lin64/Timer/Timer.c **** 			}
 443:/home/student/avr_src/SimulIDE_1.0.0-SR1_Lin64/Timer/Timer.c **** 			else {
 444:/home/student/avr_src/SimulIDE_1.0.0-SR1_Lin64/Timer/Timer.c **** 				end_flag = 1;
 445:/home/student/avr_src/SimulIDE_1.0.0-SR1_Lin64/Timer/Timer.c **** 			}
 446:/home/student/avr_src/SimulIDE_1.0.0-SR1_Lin64/Timer/Timer.c **** 		}
 447:/home/student/avr_src/SimulIDE_1.0.0-SR1_Lin64/Timer/Timer.c **** 		else if(sec == 60){
 448:/home/student/avr_src/SimulIDE_1.0.0-SR1_Lin64/Timer/Timer.c **** 			if (min == 0){
 449:/home/student/avr_src/SimulIDE_1.0.0-SR1_Lin64/Timer/Timer.c **** 				I2C_LCD_MoveLeft(3);
 450:/home/student/avr_src/SimulIDE_1.0.0-SR1_Lin64/Timer/Timer.c **** 				LCD_CharWrite(num2lcdbyte(0));
 451:/home/student/avr_src/SimulIDE_1.0.0-SR1_Lin64/Timer/Timer.c **** 				I2C_LCD_MoveRight(2);
 452:/home/student/avr_src/SimulIDE_1.0.0-SR1_Lin64/Timer/Timer.c **** 				LCD_CharWrite(0x00C0);
 453:/home/student/avr_src/SimulIDE_1.0.0-SR1_Lin64/Timer/Timer.c **** 				LCD_CharWrite(0x00C0);
 454:/home/student/avr_src/SimulIDE_1.0.0-SR1_Lin64/Timer/Timer.c **** 			}
 455:/home/student/avr_src/SimulIDE_1.0.0-SR1_Lin64/Timer/Timer.c **** 			else if(min){
 456:/home/student/avr_src/SimulIDE_1.0.0-SR1_Lin64/Timer/Timer.c **** 				I2C_LCD_MoveLeft(3);
 457:/home/student/avr_src/SimulIDE_1.0.0-SR1_Lin64/Timer/Timer.c **** 				LCD_CharWrite(num2lcdbyte(min));
 458:/home/student/avr_src/SimulIDE_1.0.0-SR1_Lin64/Timer/Timer.c **** 				I2C_LCD_MoveRight(2);
 459:/home/student/avr_src/SimulIDE_1.0.0-SR1_Lin64/Timer/Timer.c **** 				LCD_CharWrite(0x00C0);
 460:/home/student/avr_src/SimulIDE_1.0.0-SR1_Lin64/Timer/Timer.c **** 				LCD_CharWrite(0x00C0);
 461:/home/student/avr_src/SimulIDE_1.0.0-SR1_Lin64/Timer/Timer.c **** 			}
 462:/home/student/avr_src/SimulIDE_1.0.0-SR1_Lin64/Timer/Timer.c **** 			I2C_LCD_MoveLeft(1);
 463:/home/student/avr_src/SimulIDE_1.0.0-SR1_Lin64/Timer/Timer.c **** 			LCD_CharWrite(num2lcdbyte((5)));
 464:/home/student/avr_src/SimulIDE_1.0.0-SR1_Lin64/Timer/Timer.c **** 			LCD_CharWrite(num2lcdbyte((sec-1)%10));
 465:/home/student/avr_src/SimulIDE_1.0.0-SR1_Lin64/Timer/Timer.c **** 			I2C_LCD_MoveLeft(1);
 466:/home/student/avr_src/SimulIDE_1.0.0-SR1_Lin64/Timer/Timer.c **** 			LCD_CharWrite(0x00C0);
 467:/home/student/avr_src/SimulIDE_1.0.0-SR1_Lin64/Timer/Timer.c **** 			LCD_CharWrite(0x00C0);
 468:/home/student/avr_src/SimulIDE_1.0.0-SR1_Lin64/Timer/Timer.c **** 			time_10ms = 99;
 469:/home/student/avr_src/SimulIDE_1.0.0-SR1_Lin64/Timer/Timer.c **** 			--sec;
 470:/home/student/avr_src/SimulIDE_1.0.0-SR1_Lin64/Timer/Timer.c **** 		}
 471:/home/student/avr_src/SimulIDE_1.0.0-SR1_Lin64/Timer/Timer.c **** 		else if(sec != 10){
 472:/home/student/avr_src/SimulIDE_1.0.0-SR1_Lin64/Timer/Timer.c **** 			if(sec % 10 == 0){
 473:/home/student/avr_src/SimulIDE_1.0.0-SR1_Lin64/Timer/Timer.c **** 				I2C_LCD_MoveLeft(1);
 474:/home/student/avr_src/SimulIDE_1.0.0-SR1_Lin64/Timer/Timer.c **** 				LCD_CharWrite(num2lcdbyte((sec/10 -1)));
 475:/home/student/avr_src/SimulIDE_1.0.0-SR1_Lin64/Timer/Timer.c **** 			}
 476:/home/student/avr_src/SimulIDE_1.0.0-SR1_Lin64/Timer/Timer.c **** 			else {
 477:/home/student/avr_src/SimulIDE_1.0.0-SR1_Lin64/Timer/Timer.c **** 				I2C_LCD_MoveLeft(1);
 478:/home/student/avr_src/SimulIDE_1.0.0-SR1_Lin64/Timer/Timer.c **** 				LCD_CharWrite(num2lcdbyte((sec/10)));
 479:/home/student/avr_src/SimulIDE_1.0.0-SR1_Lin64/Timer/Timer.c **** 			}
 480:/home/student/avr_src/SimulIDE_1.0.0-SR1_Lin64/Timer/Timer.c **** 			LCD_CharWrite(num2lcdbyte((sec-1)%10));
 481:/home/student/avr_src/SimulIDE_1.0.0-SR1_Lin64/Timer/Timer.c **** 			I2C_LCD_MoveLeft(1);
 482:/home/student/avr_src/SimulIDE_1.0.0-SR1_Lin64/Timer/Timer.c **** 			LCD_CharWrite(0x00C0);
 483:/home/student/avr_src/SimulIDE_1.0.0-SR1_Lin64/Timer/Timer.c **** 			LCD_CharWrite(0x00C0);
 484:/home/student/avr_src/SimulIDE_1.0.0-SR1_Lin64/Timer/Timer.c **** 			time_10ms = 99;
 485:/home/student/avr_src/SimulIDE_1.0.0-SR1_Lin64/Timer/Timer.c **** 			--sec;
 486:/home/student/avr_src/SimulIDE_1.0.0-SR1_Lin64/Timer/Timer.c **** 		}
 487:/home/student/avr_src/SimulIDE_1.0.0-SR1_Lin64/Timer/Timer.c **** 		else if(sec == 10){
 488:/home/student/avr_src/SimulIDE_1.0.0-SR1_Lin64/Timer/Timer.c **** 			I2C_LCD_MoveLeft(1);
 489:/home/student/avr_src/SimulIDE_1.0.0-SR1_Lin64/Timer/Timer.c **** 			LCD_CharWrite(num2lcdbyte((0)));
 490:/home/student/avr_src/SimulIDE_1.0.0-SR1_Lin64/Timer/Timer.c **** 			LCD_CharWrite(num2lcdbyte((sec-1)%10));
 491:/home/student/avr_src/SimulIDE_1.0.0-SR1_Lin64/Timer/Timer.c **** 			I2C_LCD_MoveLeft(1);
 492:/home/student/avr_src/SimulIDE_1.0.0-SR1_Lin64/Timer/Timer.c **** 			LCD_CharWrite(0x00C0);
 493:/home/student/avr_src/SimulIDE_1.0.0-SR1_Lin64/Timer/Timer.c **** 			LCD_CharWrite(0x00C0);
 494:/home/student/avr_src/SimulIDE_1.0.0-SR1_Lin64/Timer/Timer.c **** 			time_10ms = 99;
 495:/home/student/avr_src/SimulIDE_1.0.0-SR1_Lin64/Timer/Timer.c **** 			--sec;
 496:/home/student/avr_src/SimulIDE_1.0.0-SR1_Lin64/Timer/Timer.c **** 		}
 497:/home/student/avr_src/SimulIDE_1.0.0-SR1_Lin64/Timer/Timer.c **** 
 498:/home/student/avr_src/SimulIDE_1.0.0-SR1_Lin64/Timer/Timer.c **** 
 499:/home/student/avr_src/SimulIDE_1.0.0-SR1_Lin64/Timer/Timer.c **** 		/*-------- Second part end -------*/
 500:/home/student/avr_src/SimulIDE_1.0.0-SR1_Lin64/Timer/Timer.c **** 
 501:/home/student/avr_src/SimulIDE_1.0.0-SR1_Lin64/Timer/Timer.c **** 		
 502:/home/student/avr_src/SimulIDE_1.0.0-SR1_Lin64/Timer/Timer.c **** 	
 503:/home/student/avr_src/SimulIDE_1.0.0-SR1_Lin64/Timer/Timer.c **** }
 504:/home/student/avr_src/SimulIDE_1.0.0-SR1_Lin64/Timer/Timer.c **** //====================================================
 505:/home/student/avr_src/SimulIDE_1.0.0-SR1_Lin64/Timer/Timer.c **** void I2C_LCD_MoveLeft(unsigned char cnt){
 506:/home/student/avr_src/SimulIDE_1.0.0-SR1_Lin64/Timer/Timer.c **** 	
 507:/home/student/avr_src/SimulIDE_1.0.0-SR1_Lin64/Timer/Timer.c ****     while(cnt){
 508:/home/student/avr_src/SimulIDE_1.0.0-SR1_Lin64/Timer/Timer.c **** 		LCD_CharWrite(0x1000);
 509:/home/student/avr_src/SimulIDE_1.0.0-SR1_Lin64/Timer/Timer.c **** 		cnt--;
 510:/home/student/avr_src/SimulIDE_1.0.0-SR1_Lin64/Timer/Timer.c **** 	}
 511:/home/student/avr_src/SimulIDE_1.0.0-SR1_Lin64/Timer/Timer.c ****     LCD_CharWrite(0x0060);
 512:/home/student/avr_src/SimulIDE_1.0.0-SR1_Lin64/Timer/Timer.c ****     LCD_CharWrite(0x00E0); //must add current state
 513:/home/student/avr_src/SimulIDE_1.0.0-SR1_Lin64/Timer/Timer.c **** }
 514:/home/student/avr_src/SimulIDE_1.0.0-SR1_Lin64/Timer/Timer.c **** 
 515:/home/student/avr_src/SimulIDE_1.0.0-SR1_Lin64/Timer/Timer.c **** void I2C_LCD_MoveRight(unsigned char cnt){
 516:/home/student/avr_src/SimulIDE_1.0.0-SR1_Lin64/Timer/Timer.c **** 	while(cnt){
 517:/home/student/avr_src/SimulIDE_1.0.0-SR1_Lin64/Timer/Timer.c **** 		LCD_CharWrite(0x1040);
 518:/home/student/avr_src/SimulIDE_1.0.0-SR1_Lin64/Timer/Timer.c **** 		cnt--;
 519:/home/student/avr_src/SimulIDE_1.0.0-SR1_Lin64/Timer/Timer.c **** 	}
 520:/home/student/avr_src/SimulIDE_1.0.0-SR1_Lin64/Timer/Timer.c ****     LCD_CharWrite(0x00E0); //must add current state
 521:/home/student/avr_src/SimulIDE_1.0.0-SR1_Lin64/Timer/Timer.c **** }
 522:/home/student/avr_src/SimulIDE_1.0.0-SR1_Lin64/Timer/Timer.c **** 
 523:/home/student/avr_src/SimulIDE_1.0.0-SR1_Lin64/Timer/Timer.c **** void I2C_LCD_SELECT(){
 524:/home/student/avr_src/SimulIDE_1.0.0-SR1_Lin64/Timer/Timer.c **** 	sel_flag ^= 1;
 525:/home/student/avr_src/SimulIDE_1.0.0-SR1_Lin64/Timer/Timer.c **** 	if(sel_flag){
 526:/home/student/avr_src/SimulIDE_1.0.0-SR1_Lin64/Timer/Timer.c **** 		LCD_CharWrite(0x00F0);
 527:/home/student/avr_src/SimulIDE_1.0.0-SR1_Lin64/Timer/Timer.c **** 		LCD_CharWrite(0x00F0);
 528:/home/student/avr_src/SimulIDE_1.0.0-SR1_Lin64/Timer/Timer.c **** 	} 
 529:/home/student/avr_src/SimulIDE_1.0.0-SR1_Lin64/Timer/Timer.c **** 	else {
 530:/home/student/avr_src/SimulIDE_1.0.0-SR1_Lin64/Timer/Timer.c **** 		LCD_CharWrite(0x00E0);
 531:/home/student/avr_src/SimulIDE_1.0.0-SR1_Lin64/Timer/Timer.c **** 		LCD_CharWrite(0x00E0);
 532:/home/student/avr_src/SimulIDE_1.0.0-SR1_Lin64/Timer/Timer.c **** 	}
 533:/home/student/avr_src/SimulIDE_1.0.0-SR1_Lin64/Timer/Timer.c **** }
 534:/home/student/avr_src/SimulIDE_1.0.0-SR1_Lin64/Timer/Timer.c **** 
 535:/home/student/avr_src/SimulIDE_1.0.0-SR1_Lin64/Timer/Timer.c **** //====================================================
 536:/home/student/avr_src/SimulIDE_1.0.0-SR1_Lin64/Timer/Timer.c **** //**NOTE: Timer must perform only the role of timer otherwise, global variables will be reset **
 537:/home/student/avr_src/SimulIDE_1.0.0-SR1_Lin64/Timer/Timer.c **** ISR(TIMER1_COMPA_vect){
 538:/home/student/avr_src/SimulIDE_1.0.0-SR1_Lin64/Timer/Timer.c **** //@@@@@@@@@@@@@@@@@@@@@@@@@@@@@@@@@@@@@@@@@@@@@@@@@@@@
 539:/home/student/avr_src/SimulIDE_1.0.0-SR1_Lin64/Timer/Timer.c **** 	if(RX_flag){
 540:/home/student/avr_src/SimulIDE_1.0.0-SR1_Lin64/Timer/Timer.c **** 		RX_flag = 0;
 541:/home/student/avr_src/SimulIDE_1.0.0-SR1_Lin64/Timer/Timer.c **** 		if(IN_2_CHAR == '@' && !ETX_flag){ //STX '@'
 542:/home/student/avr_src/SimulIDE_1.0.0-SR1_Lin64/Timer/Timer.c **** 			if(!STX_flag) {
 543:/home/student/avr_src/SimulIDE_1.0.0-SR1_Lin64/Timer/Timer.c **** 				STX_flag = 1;
 544:/home/student/avr_src/SimulIDE_1.0.0-SR1_Lin64/Timer/Timer.c **** 			}
 545:/home/student/avr_src/SimulIDE_1.0.0-SR1_Lin64/Timer/Timer.c **** 		}
 546:/home/student/avr_src/SimulIDE_1.0.0-SR1_Lin64/Timer/Timer.c **** 
 547:/home/student/avr_src/SimulIDE_1.0.0-SR1_Lin64/Timer/Timer.c **** 		if(IN_2_CHAR == '#' && STX_flag){ //ETX '#'
 548:/home/student/avr_src/SimulIDE_1.0.0-SR1_Lin64/Timer/Timer.c **** 			if(!ETX_flag) {
 549:/home/student/avr_src/SimulIDE_1.0.0-SR1_Lin64/Timer/Timer.c **** 				ETX_flag = 1;
 550:/home/student/avr_src/SimulIDE_1.0.0-SR1_Lin64/Timer/Timer.c **** 			}
 551:/home/student/avr_src/SimulIDE_1.0.0-SR1_Lin64/Timer/Timer.c **** 		}
 552:/home/student/avr_src/SimulIDE_1.0.0-SR1_Lin64/Timer/Timer.c **** 
 553:/home/student/avr_src/SimulIDE_1.0.0-SR1_Lin64/Timer/Timer.c **** 		if(STX_flag){
 554:/home/student/avr_src/SimulIDE_1.0.0-SR1_Lin64/Timer/Timer.c **** 			if(ETX_flag){
 555:/home/student/avr_src/SimulIDE_1.0.0-SR1_Lin64/Timer/Timer.c **** 				STX_flag = 0;
 556:/home/student/avr_src/SimulIDE_1.0.0-SR1_Lin64/Timer/Timer.c **** 				ETX_flag = 0;
 557:/home/student/avr_src/SimulIDE_1.0.0-SR1_Lin64/Timer/Timer.c **** 				q_push('#');
 558:/home/student/avr_src/SimulIDE_1.0.0-SR1_Lin64/Timer/Timer.c **** 				Command_flag = 1;
 559:/home/student/avr_src/SimulIDE_1.0.0-SR1_Lin64/Timer/Timer.c **** 				return;
 560:/home/student/avr_src/SimulIDE_1.0.0-SR1_Lin64/Timer/Timer.c **** 			}
 561:/home/student/avr_src/SimulIDE_1.0.0-SR1_Lin64/Timer/Timer.c **** 			q_push(IN_2_CHAR);
 562:/home/student/avr_src/SimulIDE_1.0.0-SR1_Lin64/Timer/Timer.c **** 		}
 563:/home/student/avr_src/SimulIDE_1.0.0-SR1_Lin64/Timer/Timer.c **** 	}
 564:/home/student/avr_src/SimulIDE_1.0.0-SR1_Lin64/Timer/Timer.c **** //@@@@@@@@@@@@@@@@@@@@@@@@@@@@@@@@@@@@@@@@@@@@@@@@@@@@
 565:/home/student/avr_src/SimulIDE_1.0.0-SR1_Lin64/Timer/Timer.c **** 	if(timer_start_flag){ 
 566:/home/student/avr_src/SimulIDE_1.0.0-SR1_Lin64/Timer/Timer.c **** 		if(time_1s) time_1s--;
 567:/home/student/avr_src/SimulIDE_1.0.0-SR1_Lin64/Timer/Timer.c **** 		if(time_10ms) {
 568:/home/student/avr_src/SimulIDE_1.0.0-SR1_Lin64/Timer/Timer.c **** 			time_10ms--;
 569:/home/student/avr_src/SimulIDE_1.0.0-SR1_Lin64/Timer/Timer.c **** 			I2C_LCD_MoveRight(2);
 570:/home/student/avr_src/SimulIDE_1.0.0-SR1_Lin64/Timer/Timer.c **** 			LCD_CharWrite(num2lcdbyte(time_10ms/10));
 571:/home/student/avr_src/SimulIDE_1.0.0-SR1_Lin64/Timer/Timer.c **** 			LCD_CharWrite(num2lcdbyte(time_10ms % 10));
 572:/home/student/avr_src/SimulIDE_1.0.0-SR1_Lin64/Timer/Timer.c **** 			I2C_LCD_MoveLeft(4);
 573:/home/student/avr_src/SimulIDE_1.0.0-SR1_Lin64/Timer/Timer.c **** 			LCD_CharWrite(0x00C0);
 574:/home/student/avr_src/SimulIDE_1.0.0-SR1_Lin64/Timer/Timer.c **** 			LCD_CharWrite(0x00C0);
 575:/home/student/avr_src/SimulIDE_1.0.0-SR1_Lin64/Timer/Timer.c **** 		}
 576:/home/student/avr_src/SimulIDE_1.0.0-SR1_Lin64/Timer/Timer.c **** 	}
 577:/home/student/avr_src/SimulIDE_1.0.0-SR1_Lin64/Timer/Timer.c **** //@@@@@@@@@@@@@@@@@@@@@@@@@@@@@@@@@@@@@@@@@@@@@@@@@@@@
 578:/home/student/avr_src/SimulIDE_1.0.0-SR1_Lin64/Timer/Timer.c ****     key_data = key_scan();
 579:/home/student/avr_src/SimulIDE_1.0.0-SR1_Lin64/Timer/Timer.c **** 	if(sel_flag && key_flag && !timer_start_flag){
 580:/home/student/avr_src/SimulIDE_1.0.0-SR1_Lin64/Timer/Timer.c **** 		key_flag = 0;
 581:/home/student/avr_src/SimulIDE_1.0.0-SR1_Lin64/Timer/Timer.c **** 		if(key_data == 0xff){
 582:/home/student/avr_src/SimulIDE_1.0.0-SR1_Lin64/Timer/Timer.c ****             return;
 583:/home/student/avr_src/SimulIDE_1.0.0-SR1_Lin64/Timer/Timer.c **** 		}
 584:/home/student/avr_src/SimulIDE_1.0.0-SR1_Lin64/Timer/Timer.c **** 		
 585:/home/student/avr_src/SimulIDE_1.0.0-SR1_Lin64/Timer/Timer.c **** 		if(key_data == 2){
 586:/home/student/avr_src/SimulIDE_1.0.0-SR1_Lin64/Timer/Timer.c **** 			if(cp.x == 5){
 587:/home/student/avr_src/SimulIDE_1.0.0-SR1_Lin64/Timer/Timer.c **** 				if((sel.MinNum + 10)< 60) {
 588:/home/student/avr_src/SimulIDE_1.0.0-SR1_Lin64/Timer/Timer.c **** 					sel.MinNum = sel.MinNum + 10;
 589:/home/student/avr_src/SimulIDE_1.0.0-SR1_Lin64/Timer/Timer.c **** 					sel.n1++;
 590:/home/student/avr_src/SimulIDE_1.0.0-SR1_Lin64/Timer/Timer.c **** 				}
 591:/home/student/avr_src/SimulIDE_1.0.0-SR1_Lin64/Timer/Timer.c **** 				LCD_CharWrite(num2lcdbyte(sel.n1));
 592:/home/student/avr_src/SimulIDE_1.0.0-SR1_Lin64/Timer/Timer.c ****         		LCD_CharWrite(0x1000);
 593:/home/student/avr_src/SimulIDE_1.0.0-SR1_Lin64/Timer/Timer.c ****         		LCD_CharWrite(0x00F0);
 594:/home/student/avr_src/SimulIDE_1.0.0-SR1_Lin64/Timer/Timer.c **** 			}
 595:/home/student/avr_src/SimulIDE_1.0.0-SR1_Lin64/Timer/Timer.c **** 			else if(cp.x == 6){
 596:/home/student/avr_src/SimulIDE_1.0.0-SR1_Lin64/Timer/Timer.c **** 				if(sel.MinNum < 9) {
 597:/home/student/avr_src/SimulIDE_1.0.0-SR1_Lin64/Timer/Timer.c **** 					sel.MinNum++;
 598:/home/student/avr_src/SimulIDE_1.0.0-SR1_Lin64/Timer/Timer.c **** 					sel.n2++;
 599:/home/student/avr_src/SimulIDE_1.0.0-SR1_Lin64/Timer/Timer.c **** 				}
 600:/home/student/avr_src/SimulIDE_1.0.0-SR1_Lin64/Timer/Timer.c **** 				LCD_CharWrite(num2lcdbyte(sel.n2));
 601:/home/student/avr_src/SimulIDE_1.0.0-SR1_Lin64/Timer/Timer.c ****         		LCD_CharWrite(0x1000);
 602:/home/student/avr_src/SimulIDE_1.0.0-SR1_Lin64/Timer/Timer.c ****         		LCD_CharWrite(0x00F0);
 603:/home/student/avr_src/SimulIDE_1.0.0-SR1_Lin64/Timer/Timer.c **** 			}
 604:/home/student/avr_src/SimulIDE_1.0.0-SR1_Lin64/Timer/Timer.c **** 			else if(cp.x == 8){
 605:/home/student/avr_src/SimulIDE_1.0.0-SR1_Lin64/Timer/Timer.c **** 				if((sel.SecNum + 10) < 60) {
 606:/home/student/avr_src/SimulIDE_1.0.0-SR1_Lin64/Timer/Timer.c **** 					sel.SecNum = sel.SecNum + 10;
 607:/home/student/avr_src/SimulIDE_1.0.0-SR1_Lin64/Timer/Timer.c **** 					sel.n3++;
 608:/home/student/avr_src/SimulIDE_1.0.0-SR1_Lin64/Timer/Timer.c **** 				}
 609:/home/student/avr_src/SimulIDE_1.0.0-SR1_Lin64/Timer/Timer.c **** 				LCD_CharWrite(num2lcdbyte(sel.n3));
 610:/home/student/avr_src/SimulIDE_1.0.0-SR1_Lin64/Timer/Timer.c ****         		LCD_CharWrite(0x1000);
 611:/home/student/avr_src/SimulIDE_1.0.0-SR1_Lin64/Timer/Timer.c ****         		LCD_CharWrite(0x00F0);
 612:/home/student/avr_src/SimulIDE_1.0.0-SR1_Lin64/Timer/Timer.c **** 			}
 613:/home/student/avr_src/SimulIDE_1.0.0-SR1_Lin64/Timer/Timer.c **** 			else if(cp.x == 9){
 614:/home/student/avr_src/SimulIDE_1.0.0-SR1_Lin64/Timer/Timer.c **** 				if(sel.SecNum < 9) {
 615:/home/student/avr_src/SimulIDE_1.0.0-SR1_Lin64/Timer/Timer.c **** 					sel.SecNum++;
 616:/home/student/avr_src/SimulIDE_1.0.0-SR1_Lin64/Timer/Timer.c **** 					sel.n4++;
 617:/home/student/avr_src/SimulIDE_1.0.0-SR1_Lin64/Timer/Timer.c **** 				}
 618:/home/student/avr_src/SimulIDE_1.0.0-SR1_Lin64/Timer/Timer.c **** 				LCD_CharWrite(num2lcdbyte(sel.n4));
 619:/home/student/avr_src/SimulIDE_1.0.0-SR1_Lin64/Timer/Timer.c ****         		LCD_CharWrite(0x1000);
 620:/home/student/avr_src/SimulIDE_1.0.0-SR1_Lin64/Timer/Timer.c ****         		LCD_CharWrite(0x00F0);
 621:/home/student/avr_src/SimulIDE_1.0.0-SR1_Lin64/Timer/Timer.c **** 			}
 622:/home/student/avr_src/SimulIDE_1.0.0-SR1_Lin64/Timer/Timer.c **** 		}
 623:/home/student/avr_src/SimulIDE_1.0.0-SR1_Lin64/Timer/Timer.c **** 		if(key_data == 5){
 624:/home/student/avr_src/SimulIDE_1.0.0-SR1_Lin64/Timer/Timer.c **** 			I2C_LCD_SELECT();
 625:/home/student/avr_src/SimulIDE_1.0.0-SR1_Lin64/Timer/Timer.c **** 			TIME_SETTING(sel.MinNum, sel.SecNum);
 626:/home/student/avr_src/SimulIDE_1.0.0-SR1_Lin64/Timer/Timer.c **** 		}
 627:/home/student/avr_src/SimulIDE_1.0.0-SR1_Lin64/Timer/Timer.c **** 
 628:/home/student/avr_src/SimulIDE_1.0.0-SR1_Lin64/Timer/Timer.c **** 		if(key_data == 8){
 629:/home/student/avr_src/SimulIDE_1.0.0-SR1_Lin64/Timer/Timer.c **** 			if(cp.x == 5){
 630:/home/student/avr_src/SimulIDE_1.0.0-SR1_Lin64/Timer/Timer.c **** 				if(sel.MinNum > 10 && sel.n1 > 0) {
 631:/home/student/avr_src/SimulIDE_1.0.0-SR1_Lin64/Timer/Timer.c **** 					sel.MinNum = sel.MinNum - 10;
 632:/home/student/avr_src/SimulIDE_1.0.0-SR1_Lin64/Timer/Timer.c **** 					sel.n1--;
 633:/home/student/avr_src/SimulIDE_1.0.0-SR1_Lin64/Timer/Timer.c **** 				}
 634:/home/student/avr_src/SimulIDE_1.0.0-SR1_Lin64/Timer/Timer.c **** 				LCD_CharWrite(num2lcdbyte(sel.n1));
 635:/home/student/avr_src/SimulIDE_1.0.0-SR1_Lin64/Timer/Timer.c ****         		LCD_CharWrite(0x1000);
 636:/home/student/avr_src/SimulIDE_1.0.0-SR1_Lin64/Timer/Timer.c ****         		LCD_CharWrite(0x00F0);
 637:/home/student/avr_src/SimulIDE_1.0.0-SR1_Lin64/Timer/Timer.c **** 			}
 638:/home/student/avr_src/SimulIDE_1.0.0-SR1_Lin64/Timer/Timer.c **** 			else if(cp.x == 6){
 639:/home/student/avr_src/SimulIDE_1.0.0-SR1_Lin64/Timer/Timer.c **** 				if(sel.MinNum > 0) {
 640:/home/student/avr_src/SimulIDE_1.0.0-SR1_Lin64/Timer/Timer.c **** 					sel.MinNum--;
 641:/home/student/avr_src/SimulIDE_1.0.0-SR1_Lin64/Timer/Timer.c **** 					sel.n2--;
 642:/home/student/avr_src/SimulIDE_1.0.0-SR1_Lin64/Timer/Timer.c **** 				}
 643:/home/student/avr_src/SimulIDE_1.0.0-SR1_Lin64/Timer/Timer.c **** 				LCD_CharWrite(num2lcdbyte(sel.n2));
 644:/home/student/avr_src/SimulIDE_1.0.0-SR1_Lin64/Timer/Timer.c ****         		LCD_CharWrite(0x1000);
 645:/home/student/avr_src/SimulIDE_1.0.0-SR1_Lin64/Timer/Timer.c ****         		LCD_CharWrite(0x00F0);
 646:/home/student/avr_src/SimulIDE_1.0.0-SR1_Lin64/Timer/Timer.c **** 			}
 647:/home/student/avr_src/SimulIDE_1.0.0-SR1_Lin64/Timer/Timer.c **** 			else if(cp.x == 8){
 648:/home/student/avr_src/SimulIDE_1.0.0-SR1_Lin64/Timer/Timer.c **** 				if(sel.SecNum > 10 && sel.n3 > 0) {
 649:/home/student/avr_src/SimulIDE_1.0.0-SR1_Lin64/Timer/Timer.c **** 					sel.SecNum = sel.SecNum - 10;
 650:/home/student/avr_src/SimulIDE_1.0.0-SR1_Lin64/Timer/Timer.c **** 					sel.n3--;
 651:/home/student/avr_src/SimulIDE_1.0.0-SR1_Lin64/Timer/Timer.c **** 				}
 652:/home/student/avr_src/SimulIDE_1.0.0-SR1_Lin64/Timer/Timer.c **** 				LCD_CharWrite(num2lcdbyte(sel.n3));
 653:/home/student/avr_src/SimulIDE_1.0.0-SR1_Lin64/Timer/Timer.c ****         		LCD_CharWrite(0x1000);
 654:/home/student/avr_src/SimulIDE_1.0.0-SR1_Lin64/Timer/Timer.c ****         		LCD_CharWrite(0x00F0);
 655:/home/student/avr_src/SimulIDE_1.0.0-SR1_Lin64/Timer/Timer.c **** 			}
 656:/home/student/avr_src/SimulIDE_1.0.0-SR1_Lin64/Timer/Timer.c **** 			else if(cp.x == 9){
 657:/home/student/avr_src/SimulIDE_1.0.0-SR1_Lin64/Timer/Timer.c **** 				if(sel.SecNum > 0) {
 658:/home/student/avr_src/SimulIDE_1.0.0-SR1_Lin64/Timer/Timer.c **** 					sel.SecNum--;
 659:/home/student/avr_src/SimulIDE_1.0.0-SR1_Lin64/Timer/Timer.c **** 					sel.n4--;
 660:/home/student/avr_src/SimulIDE_1.0.0-SR1_Lin64/Timer/Timer.c **** 				}
 661:/home/student/avr_src/SimulIDE_1.0.0-SR1_Lin64/Timer/Timer.c **** 				LCD_CharWrite(num2lcdbyte(sel.n4));
 662:/home/student/avr_src/SimulIDE_1.0.0-SR1_Lin64/Timer/Timer.c ****         		LCD_CharWrite(0x1000);
 663:/home/student/avr_src/SimulIDE_1.0.0-SR1_Lin64/Timer/Timer.c ****         		LCD_CharWrite(0x00F0);
 664:/home/student/avr_src/SimulIDE_1.0.0-SR1_Lin64/Timer/Timer.c **** 			}
 665:/home/student/avr_src/SimulIDE_1.0.0-SR1_Lin64/Timer/Timer.c **** 		}
 666:/home/student/avr_src/SimulIDE_1.0.0-SR1_Lin64/Timer/Timer.c **** 	}
 667:/home/student/avr_src/SimulIDE_1.0.0-SR1_Lin64/Timer/Timer.c **** //@@@@@@@@@@@@@@@@@@@@@@@@@@@@@@@@@@@@@@@@@@@@@@@@@@@@
 668:/home/student/avr_src/SimulIDE_1.0.0-SR1_Lin64/Timer/Timer.c ****     if(key_flag && !sel_flag){
 669:/home/student/avr_src/SimulIDE_1.0.0-SR1_Lin64/Timer/Timer.c **** 		key_flag = 0;
 670:/home/student/avr_src/SimulIDE_1.0.0-SR1_Lin64/Timer/Timer.c **** 		if(key_data == 0xff){
 671:/home/student/avr_src/SimulIDE_1.0.0-SR1_Lin64/Timer/Timer.c ****             return;
 672:/home/student/avr_src/SimulIDE_1.0.0-SR1_Lin64/Timer/Timer.c **** 		}
 673:/home/student/avr_src/SimulIDE_1.0.0-SR1_Lin64/Timer/Timer.c ****         if(key_data == 10){
 674:/home/student/avr_src/SimulIDE_1.0.0-SR1_Lin64/Timer/Timer.c **** 			I2C_Timer_Default(); //set 00:00:00
 675:/home/student/avr_src/SimulIDE_1.0.0-SR1_Lin64/Timer/Timer.c ****         }
 676:/home/student/avr_src/SimulIDE_1.0.0-SR1_Lin64/Timer/Timer.c ****         if(key_data == 11){
 677:/home/student/avr_src/SimulIDE_1.0.0-SR1_Lin64/Timer/Timer.c **** 			if(cp.x > 9) {
 678:/home/student/avr_src/SimulIDE_1.0.0-SR1_Lin64/Timer/Timer.c **** 				I2C_LCD_MoveLeft(cp.x - 9);
 679:/home/student/avr_src/SimulIDE_1.0.0-SR1_Lin64/Timer/Timer.c **** 				cp.x = 9;
 680:/home/student/avr_src/SimulIDE_1.0.0-SR1_Lin64/Timer/Timer.c **** 				LCD_CharWrite(0x00C0);
 681:/home/student/avr_src/SimulIDE_1.0.0-SR1_Lin64/Timer/Timer.c **** 				LCD_CharWrite(0x00C0);
 682:/home/student/avr_src/SimulIDE_1.0.0-SR1_Lin64/Timer/Timer.c **** 			}
 683:/home/student/avr_src/SimulIDE_1.0.0-SR1_Lin64/Timer/Timer.c **** 			else if(cp.x <9){
 684:/home/student/avr_src/SimulIDE_1.0.0-SR1_Lin64/Timer/Timer.c **** 				I2C_LCD_MoveRight(9 -cp.x);
 685:/home/student/avr_src/SimulIDE_1.0.0-SR1_Lin64/Timer/Timer.c **** 				cp.x = 9;
 686:/home/student/avr_src/SimulIDE_1.0.0-SR1_Lin64/Timer/Timer.c **** 				LCD_CharWrite(0x00C0);
 687:/home/student/avr_src/SimulIDE_1.0.0-SR1_Lin64/Timer/Timer.c **** 				LCD_CharWrite(0x00C0);
 688:/home/student/avr_src/SimulIDE_1.0.0-SR1_Lin64/Timer/Timer.c **** 			}
 689:/home/student/avr_src/SimulIDE_1.0.0-SR1_Lin64/Timer/Timer.c **** 			timer_start_flag ^= 1;
 690:/home/student/avr_src/SimulIDE_1.0.0-SR1_Lin64/Timer/Timer.c **** 		}                                                       
 691:/home/student/avr_src/SimulIDE_1.0.0-SR1_Lin64/Timer/Timer.c **** 		if(key_data == 1){ //reverse function
 692:/home/student/avr_src/SimulIDE_1.0.0-SR1_Lin64/Timer/Timer.c **** 			
 693:/home/student/avr_src/SimulIDE_1.0.0-SR1_Lin64/Timer/Timer.c **** 		}
 694:/home/student/avr_src/SimulIDE_1.0.0-SR1_Lin64/Timer/Timer.c **** 		if(key_data == 3){
 695:/home/student/avr_src/SimulIDE_1.0.0-SR1_Lin64/Timer/Timer.c **** 			I2C_Timer_act();
 696:/home/student/avr_src/SimulIDE_1.0.0-SR1_Lin64/Timer/Timer.c **** 		}
 697:/home/student/avr_src/SimulIDE_1.0.0-SR1_Lin64/Timer/Timer.c **** 		if(key_data == 4 && !timer_start_flag){
 698:/home/student/avr_src/SimulIDE_1.0.0-SR1_Lin64/Timer/Timer.c **** 			if(cp.x > 5){
 699:/home/student/avr_src/SimulIDE_1.0.0-SR1_Lin64/Timer/Timer.c **** 				if(cp.x == 8) {
 700:/home/student/avr_src/SimulIDE_1.0.0-SR1_Lin64/Timer/Timer.c **** 					I2C_LCD_MoveLeft(2);
 701:/home/student/avr_src/SimulIDE_1.0.0-SR1_Lin64/Timer/Timer.c **** 					cp.x = cp.x -2;
 702:/home/student/avr_src/SimulIDE_1.0.0-SR1_Lin64/Timer/Timer.c **** 				}
 703:/home/student/avr_src/SimulIDE_1.0.0-SR1_Lin64/Timer/Timer.c **** 				else {
 704:/home/student/avr_src/SimulIDE_1.0.0-SR1_Lin64/Timer/Timer.c **** 					I2C_LCD_MoveLeft(1);
 705:/home/student/avr_src/SimulIDE_1.0.0-SR1_Lin64/Timer/Timer.c **** 					cp.x--;
 706:/home/student/avr_src/SimulIDE_1.0.0-SR1_Lin64/Timer/Timer.c **** 				}
 707:/home/student/avr_src/SimulIDE_1.0.0-SR1_Lin64/Timer/Timer.c **** 			}
 708:/home/student/avr_src/SimulIDE_1.0.0-SR1_Lin64/Timer/Timer.c **** 		}
 709:/home/student/avr_src/SimulIDE_1.0.0-SR1_Lin64/Timer/Timer.c **** 		if(key_data == 5  && !timer_start_flag){
 710:/home/student/avr_src/SimulIDE_1.0.0-SR1_Lin64/Timer/Timer.c **** 			if(cp.x == 5 || cp.x == 6 || cp.x == 8 || cp.x == 9) I2C_LCD_SELECT();
 711:/home/student/avr_src/SimulIDE_1.0.0-SR1_Lin64/Timer/Timer.c **** 		}
 712:/home/student/avr_src/SimulIDE_1.0.0-SR1_Lin64/Timer/Timer.c **** 		if(key_data == 6 && !timer_start_flag){
 713:/home/student/avr_src/SimulIDE_1.0.0-SR1_Lin64/Timer/Timer.c **** 			if(cp.x < 9){
 714:/home/student/avr_src/SimulIDE_1.0.0-SR1_Lin64/Timer/Timer.c **** 				if(cp.x == 6){
 715:/home/student/avr_src/SimulIDE_1.0.0-SR1_Lin64/Timer/Timer.c **** 					I2C_LCD_MoveRight(2);
 716:/home/student/avr_src/SimulIDE_1.0.0-SR1_Lin64/Timer/Timer.c **** 					cp.x = cp.x + 2;
 717:/home/student/avr_src/SimulIDE_1.0.0-SR1_Lin64/Timer/Timer.c **** 				}
 718:/home/student/avr_src/SimulIDE_1.0.0-SR1_Lin64/Timer/Timer.c **** 				else {
 719:/home/student/avr_src/SimulIDE_1.0.0-SR1_Lin64/Timer/Timer.c **** 					I2C_LCD_MoveRight(1);
 720:/home/student/avr_src/SimulIDE_1.0.0-SR1_Lin64/Timer/Timer.c **** 					cp.x++;
 721:/home/student/avr_src/SimulIDE_1.0.0-SR1_Lin64/Timer/Timer.c **** 				}
 722:/home/student/avr_src/SimulIDE_1.0.0-SR1_Lin64/Timer/Timer.c **** 			}
 723:/home/student/avr_src/SimulIDE_1.0.0-SR1_Lin64/Timer/Timer.c **** 		}
 724:/home/student/avr_src/SimulIDE_1.0.0-SR1_Lin64/Timer/Timer.c **** 		if(key_data == 7){
 725:/home/student/avr_src/SimulIDE_1.0.0-SR1_Lin64/Timer/Timer.c **** 		}
 726:/home/student/avr_src/SimulIDE_1.0.0-SR1_Lin64/Timer/Timer.c **** 		if(key_data == 9){
 727:/home/student/avr_src/SimulIDE_1.0.0-SR1_Lin64/Timer/Timer.c **** 
 728:/home/student/avr_src/SimulIDE_1.0.0-SR1_Lin64/Timer/Timer.c **** 		}
 729:/home/student/avr_src/SimulIDE_1.0.0-SR1_Lin64/Timer/Timer.c **** 		if(key_data == 0){
 730:/home/student/avr_src/SimulIDE_1.0.0-SR1_Lin64/Timer/Timer.c **** 			
 731:/home/student/avr_src/SimulIDE_1.0.0-SR1_Lin64/Timer/Timer.c **** 		}
 732:/home/student/avr_src/SimulIDE_1.0.0-SR1_Lin64/Timer/Timer.c **** 		PORTC |= 0b00100000;
 733:/home/student/avr_src/SimulIDE_1.0.0-SR1_Lin64/Timer/Timer.c ****         }
 734:/home/student/avr_src/SimulIDE_1.0.0-SR1_Lin64/Timer/Timer.c ****         else{
 735:/home/student/avr_src/SimulIDE_1.0.0-SR1_Lin64/Timer/Timer.c **** 			PORTC &= ~0b00100000;
 736:/home/student/avr_src/SimulIDE_1.0.0-SR1_Lin64/Timer/Timer.c ****   			PORTC &= ~0x01;
 737:/home/student/avr_src/SimulIDE_1.0.0-SR1_Lin64/Timer/Timer.c ****         }
 738:/home/student/avr_src/SimulIDE_1.0.0-SR1_Lin64/Timer/Timer.c **** 
 739:/home/student/avr_src/SimulIDE_1.0.0-SR1_Lin64/Timer/Timer.c **** }
 740:/home/student/avr_src/SimulIDE_1.0.0-SR1_Lin64/Timer/Timer.c **** //====================================================
 741:/home/student/avr_src/SimulIDE_1.0.0-SR1_Lin64/Timer/Timer.c **** void USART_init(){
 251               		.stabn	68,0,741,.LM22-.LFBB4
 252               	.LM22:
 253               	.LFBB4:
 254               	/* prologue: function */
 255               	/* frame size = 0 */
 256               	/* stack size = 0 */
 257               	.L__stack_usage = 0
 742:/home/student/avr_src/SimulIDE_1.0.0-SR1_Lin64/Timer/Timer.c ****     UCSR0A = 0x20;
 258               		.stabn	68,0,742,.LM23-.LFBB4
 259               	.LM23:
 260 0074 E0EC      		ldi r30,lo8(-64)
 261 0076 F0E0      		ldi r31,0
 262 0078 80E2      		ldi r24,lo8(32)
 263 007a 8083      		st Z,r24
 743:/home/student/avr_src/SimulIDE_1.0.0-SR1_Lin64/Timer/Timer.c **** 	UCSR0A |= (1 << UDRE0);
 264               		.stabn	68,0,743,.LM24-.LFBB4
 265               	.LM24:
 266 007c 8081      		ld r24,Z
 267 007e 8062      		ori r24,lo8(32)
 268 0080 8083      		st Z,r24
 744:/home/student/avr_src/SimulIDE_1.0.0-SR1_Lin64/Timer/Timer.c ****     UCSR0B |= (1 <<TXEN0);
 269               		.stabn	68,0,744,.LM25-.LFBB4
 270               	.LM25:
 271 0082 E1EC      		ldi r30,lo8(-63)
 272 0084 F0E0      		ldi r31,0
 273 0086 8081      		ld r24,Z
 274 0088 8860      		ori r24,lo8(8)
 275 008a 8083      		st Z,r24
 745:/home/student/avr_src/SimulIDE_1.0.0-SR1_Lin64/Timer/Timer.c ****     UCSR0C = 0x06;
 276               		.stabn	68,0,745,.LM26-.LFBB4
 277               	.LM26:
 278 008c 86E0      		ldi r24,lo8(6)
 279 008e 8093 C200 		sts 194,r24
 746:/home/student/avr_src/SimulIDE_1.0.0-SR1_Lin64/Timer/Timer.c ****     UBRR0 = 8;
 280               		.stabn	68,0,746,.LM27-.LFBB4
 281               	.LM27:
 282 0092 88E0      		ldi r24,lo8(8)
 283 0094 90E0      		ldi r25,0
 284 0096 9093 C500 		sts 196+1,r25
 285 009a 8093 C400 		sts 196,r24
 286 009e 0895      		ret
 287               		.size	USART_init, .-USART_init
 288               	.Lscope4:
 289               		.stabs	"",36,0,0,.Lscope4-.LFBB4
 290               		.stabd	78,0,0
 291               		.stabs	"Tx_char:F(0,49)",36,0,748,Tx_char
 292               		.stabs	"data:P(0,13)",64,0,748,24
 293               	.global	Tx_char
 294               		.type	Tx_char, @function
 295               	Tx_char:
 296               		.stabd	46,0,0
 747:/home/student/avr_src/SimulIDE_1.0.0-SR1_Lin64/Timer/Timer.c **** }
 748:/home/student/avr_src/SimulIDE_1.0.0-SR1_Lin64/Timer/Timer.c **** void Tx_char(unsigned char data){
 297               		.stabn	68,0,748,.LM28-.LFBB5
 298               	.LM28:
 299               	.LFBB5:
 300               	/* prologue: function */
 301               	/* frame size = 0 */
 302               	/* stack size = 0 */
 303               	.L__stack_usage = 0
 304               	.L6:
 749:/home/student/avr_src/SimulIDE_1.0.0-SR1_Lin64/Timer/Timer.c ****     while(!(UCSR0A & (1 << UDRE0)));
 305               		.stabn	68,0,749,.LM29-.LFBB5
 306               	.LM29:
 307 00a0 9091 C000 		lds r25,192
 308 00a4 95FF      		sbrs r25,5
 309 00a6 00C0      		rjmp .L6
 750:/home/student/avr_src/SimulIDE_1.0.0-SR1_Lin64/Timer/Timer.c ****     UDR0 = data;
 310               		.stabn	68,0,750,.LM30-.LFBB5
 311               	.LM30:
 312 00a8 8093 C600 		sts 198,r24
 313 00ac 0895      		ret
 314               		.size	Tx_char, .-Tx_char
 315               	.Lscope5:
 316               		.stabs	"",36,0,0,.Lscope5-.LFBB5
 317               		.stabd	78,0,0
 318               		.stabs	"RX_init:F(0,49)",36,0,752,RX_init
 319               	.global	RX_init
 320               		.type	RX_init, @function
 321               	RX_init:
 322               		.stabd	46,0,0
 751:/home/student/avr_src/SimulIDE_1.0.0-SR1_Lin64/Timer/Timer.c **** }
 752:/home/student/avr_src/SimulIDE_1.0.0-SR1_Lin64/Timer/Timer.c **** void RX_init(){
 323               		.stabn	68,0,752,.LM31-.LFBB6
 324               	.LM31:
 325               	.LFBB6:
 326               	/* prologue: function */
 327               	/* frame size = 0 */
 328               	/* stack size = 0 */
 329               	.L__stack_usage = 0
 753:/home/student/avr_src/SimulIDE_1.0.0-SR1_Lin64/Timer/Timer.c **** 	UCSR0B |= (1 << RXEN0) | (1 << RXCIE0);
 330               		.stabn	68,0,753,.LM32-.LFBB6
 331               	.LM32:
 332 00ae E1EC      		ldi r30,lo8(-63)
 333 00b0 F0E0      		ldi r31,0
 334 00b2 8081      		ld r24,Z
 335 00b4 8069      		ori r24,lo8(-112)
 336 00b6 8083      		st Z,r24
 337 00b8 0895      		ret
 338               		.size	RX_init, .-RX_init
 339               	.Lscope6:
 340               		.stabs	"",36,0,0,.Lscope6-.LFBB6
 341               		.stabd	78,0,0
 342               		.stabs	"__vector_18:F(0,49)",36,0,755,__vector_18
 343               	.global	__vector_18
 344               		.type	__vector_18, @function
 345               	__vector_18:
 346               		.stabd	46,0,0
 754:/home/student/avr_src/SimulIDE_1.0.0-SR1_Lin64/Timer/Timer.c **** }
 755:/home/student/avr_src/SimulIDE_1.0.0-SR1_Lin64/Timer/Timer.c **** ISR(USART_RX_vect) {
 347               		.stabn	68,0,755,.LM33-.LFBB7
 348               	.LM33:
 349               	.LFBB7:
 350 00ba 1F92      		push r1
 351 00bc 0F92      		push r0
 352 00be 0FB6      		in r0,__SREG__
 353 00c0 0F92      		push r0
 354 00c2 1124      		clr __zero_reg__
 355 00c4 8F93      		push r24
 356               	/* prologue: Signal */
 357               	/* frame size = 0 */
 358               	/* stack size = 4 */
 359               	.L__stack_usage = 4
 756:/home/student/avr_src/SimulIDE_1.0.0-SR1_Lin64/Timer/Timer.c ****     input = UDR0;
 360               		.stabn	68,0,756,.LM34-.LFBB7
 361               	.LM34:
 362 00c6 8091 C600 		lds r24,198
 363 00ca 8093 0000 		sts input,r24
 757:/home/student/avr_src/SimulIDE_1.0.0-SR1_Lin64/Timer/Timer.c **** 	IN_2_CHAR = '`' + input + 0x20;
 364               		.stabn	68,0,757,.LM35-.LFBB7
 365               	.LM35:
 366 00ce 8091 0000 		lds r24,input
 367 00d2 8058      		subi r24,lo8(-(-128))
 368 00d4 8093 0000 		sts IN_2_CHAR,r24
 758:/home/student/avr_src/SimulIDE_1.0.0-SR1_Lin64/Timer/Timer.c **** 	RX_flag = 1;
 369               		.stabn	68,0,758,.LM36-.LFBB7
 370               	.LM36:
 371 00d8 81E0      		ldi r24,lo8(1)
 372 00da 8093 0000 		sts RX_flag,r24
 373               	/* epilogue start */
 759:/home/student/avr_src/SimulIDE_1.0.0-SR1_Lin64/Timer/Timer.c **** 	
 760:/home/student/avr_src/SimulIDE_1.0.0-SR1_Lin64/Timer/Timer.c **** }
 374               		.stabn	68,0,760,.LM37-.LFBB7
 375               	.LM37:
 376 00de 8F91      		pop r24
 377 00e0 0F90      		pop r0
 378 00e2 0FBE      		out __SREG__,r0
 379 00e4 0F90      		pop r0
 380 00e6 1F90      		pop r1
 381 00e8 1895      		reti
 382               		.size	__vector_18, .-__vector_18
 383               	.Lscope7:
 384               		.stabs	"",36,0,0,.Lscope7-.LFBB7
 385               		.stabd	78,0,0
 386               		.stabs	"key_analysis:F(0,13)",36,0,823,key_analysis
 387               		.stabs	"key:P(0,13)",64,0,823,24
 388               		.stabs	"Raw:P(0,13)",64,0,823,22
 389               	.global	key_analysis
 390               		.type	key_analysis, @function
 391               	key_analysis:
 392               		.stabd	46,0,0
 761:/home/student/avr_src/SimulIDE_1.0.0-SR1_Lin64/Timer/Timer.c **** //====================================================
 762:/home/student/avr_src/SimulIDE_1.0.0-SR1_Lin64/Timer/Timer.c **** unsigned char key_scan(){
 763:/home/student/avr_src/SimulIDE_1.0.0-SR1_Lin64/Timer/Timer.c **** 
 764:/home/student/avr_src/SimulIDE_1.0.0-SR1_Lin64/Timer/Timer.c ****     unsigned char bit_shift = 0b00010000;
 765:/home/student/avr_src/SimulIDE_1.0.0-SR1_Lin64/Timer/Timer.c ****     if(key_flag) return -1;
 766:/home/student/avr_src/SimulIDE_1.0.0-SR1_Lin64/Timer/Timer.c ****     PORTD &= ~(0x70);
 767:/home/student/avr_src/SimulIDE_1.0.0-SR1_Lin64/Timer/Timer.c ****     new_key = (PINB) & 0x0f;
 768:/home/student/avr_src/SimulIDE_1.0.0-SR1_Lin64/Timer/Timer.c **** 
 769:/home/student/avr_src/SimulIDE_1.0.0-SR1_Lin64/Timer/Timer.c ****     /* procedure to prevent signals chattering */
 770:/home/student/avr_src/SimulIDE_1.0.0-SR1_Lin64/Timer/Timer.c ****     if(new_key != old_key){
 771:/home/student/avr_src/SimulIDE_1.0.0-SR1_Lin64/Timer/Timer.c ****         old_key = new_key;
 772:/home/student/avr_src/SimulIDE_1.0.0-SR1_Lin64/Timer/Timer.c ****         return -1;
 773:/home/student/avr_src/SimulIDE_1.0.0-SR1_Lin64/Timer/Timer.c ****     }
 774:/home/student/avr_src/SimulIDE_1.0.0-SR1_Lin64/Timer/Timer.c **** 
 775:/home/student/avr_src/SimulIDE_1.0.0-SR1_Lin64/Timer/Timer.c ****     if(pressing_flag){ //checking if btn released
 776:/home/student/avr_src/SimulIDE_1.0.0-SR1_Lin64/Timer/Timer.c ****         //pin 1 ,3, 5 => D4, D5, D6 / pin 2,7,6,4 => D0, D1, D2, D3
 777:/home/student/avr_src/SimulIDE_1.0.0-SR1_Lin64/Timer/Timer.c ****         if(new_key == 0x0f){ //compare with current key and the received new key
 778:/home/student/avr_src/SimulIDE_1.0.0-SR1_Lin64/Timer/Timer.c ****                              //because if one of btns is pressed, it can get signals 
 779:/home/student/avr_src/SimulIDE_1.0.0-SR1_Lin64/Timer/Timer.c ****             pressing_flag = 0;
 780:/home/student/avr_src/SimulIDE_1.0.0-SR1_Lin64/Timer/Timer.c ****             return -1;
 781:/home/student/avr_src/SimulIDE_1.0.0-SR1_Lin64/Timer/Timer.c ****         }
 782:/home/student/avr_src/SimulIDE_1.0.0-SR1_Lin64/Timer/Timer.c ****         else return -1;
 783:/home/student/avr_src/SimulIDE_1.0.0-SR1_Lin64/Timer/Timer.c ****     }
 784:/home/student/avr_src/SimulIDE_1.0.0-SR1_Lin64/Timer/Timer.c **** 
 785:/home/student/avr_src/SimulIDE_1.0.0-SR1_Lin64/Timer/Timer.c ****     else { //checking if key pressed has a diffrent value with the previous key 
 786:/home/student/avr_src/SimulIDE_1.0.0-SR1_Lin64/Timer/Timer.c ****         if (new_key == 0x0f){
 787:/home/student/avr_src/SimulIDE_1.0.0-SR1_Lin64/Timer/Timer.c ****             return -1;
 788:/home/student/avr_src/SimulIDE_1.0.0-SR1_Lin64/Timer/Timer.c ****         } 
 789:/home/student/avr_src/SimulIDE_1.0.0-SR1_Lin64/Timer/Timer.c ****         else { 
 790:/home/student/avr_src/SimulIDE_1.0.0-SR1_Lin64/Timer/Timer.c ****             for(int Raw = 0; Raw < 3; Raw++){
 791:/home/student/avr_src/SimulIDE_1.0.0-SR1_Lin64/Timer/Timer.c ****                 PORTD |= 0x70; 
 792:/home/student/avr_src/SimulIDE_1.0.0-SR1_Lin64/Timer/Timer.c ****                 PORTD &= ~(bit_shift); //to check specific raw, Ex) raw 1 -> D5, D6 must be HIGH st
 793:/home/student/avr_src/SimulIDE_1.0.0-SR1_Lin64/Timer/Timer.c **** 									   //in addition if pin of PORTD is on, PINB won't be low state
 794:/home/student/avr_src/SimulIDE_1.0.0-SR1_Lin64/Timer/Timer.c **** 			    
 795:/home/student/avr_src/SimulIDE_1.0.0-SR1_Lin64/Timer/Timer.c ****                 
 796:/home/student/avr_src/SimulIDE_1.0.0-SR1_Lin64/Timer/Timer.c ****                 DDRD &= ~(bit_shift); //refresh
 797:/home/student/avr_src/SimulIDE_1.0.0-SR1_Lin64/Timer/Timer.c **** 				DDRD |= 0x70; 
 798:/home/student/avr_src/SimulIDE_1.0.0-SR1_Lin64/Timer/Timer.c **** 				
 799:/home/student/avr_src/SimulIDE_1.0.0-SR1_Lin64/Timer/Timer.c ****                 new_key = (PINB) & 0x0f;
 800:/home/student/avr_src/SimulIDE_1.0.0-SR1_Lin64/Timer/Timer.c ****                 if(new_key == 0x0f){ // + when raw is LOW
 801:/home/student/avr_src/SimulIDE_1.0.0-SR1_Lin64/Timer/Timer.c ****                   
 802:/home/student/avr_src/SimulIDE_1.0.0-SR1_Lin64/Timer/Timer.c ****                     bit_shift <<= 1;
 803:/home/student/avr_src/SimulIDE_1.0.0-SR1_Lin64/Timer/Timer.c ****                     continue;
 804:/home/student/avr_src/SimulIDE_1.0.0-SR1_Lin64/Timer/Timer.c ****                 }
 805:/home/student/avr_src/SimulIDE_1.0.0-SR1_Lin64/Timer/Timer.c ****                 else {
 806:/home/student/avr_src/SimulIDE_1.0.0-SR1_Lin64/Timer/Timer.c **** 					// if(!lcd_flag) I2C_LCD_init(0x27);
 807:/home/student/avr_src/SimulIDE_1.0.0-SR1_Lin64/Timer/Timer.c **** 					// lcd_flag = 1;
 808:/home/student/avr_src/SimulIDE_1.0.0-SR1_Lin64/Timer/Timer.c ****                     pressing_flag = 1;
 809:/home/student/avr_src/SimulIDE_1.0.0-SR1_Lin64/Timer/Timer.c ****                     key_flag = 1;
 810:/home/student/avr_src/SimulIDE_1.0.0-SR1_Lin64/Timer/Timer.c ****                     return key_analysis(new_key, Raw);
 811:/home/student/avr_src/SimulIDE_1.0.0-SR1_Lin64/Timer/Timer.c ****                 }
 812:/home/student/avr_src/SimulIDE_1.0.0-SR1_Lin64/Timer/Timer.c ****             }
 813:/home/student/avr_src/SimulIDE_1.0.0-SR1_Lin64/Timer/Timer.c ****         
 814:/home/student/avr_src/SimulIDE_1.0.0-SR1_Lin64/Timer/Timer.c ****         }
 815:/home/student/avr_src/SimulIDE_1.0.0-SR1_Lin64/Timer/Timer.c ****     }
 816:/home/student/avr_src/SimulIDE_1.0.0-SR1_Lin64/Timer/Timer.c **** 
 817:/home/student/avr_src/SimulIDE_1.0.0-SR1_Lin64/Timer/Timer.c **** 	return -1;
 818:/home/student/avr_src/SimulIDE_1.0.0-SR1_Lin64/Timer/Timer.c **** 
 819:/home/student/avr_src/SimulIDE_1.0.0-SR1_Lin64/Timer/Timer.c ****     /* end checking */
 820:/home/student/avr_src/SimulIDE_1.0.0-SR1_Lin64/Timer/Timer.c **** }
 821:/home/student/avr_src/SimulIDE_1.0.0-SR1_Lin64/Timer/Timer.c **** 
 822:/home/student/avr_src/SimulIDE_1.0.0-SR1_Lin64/Timer/Timer.c **** 
 823:/home/student/avr_src/SimulIDE_1.0.0-SR1_Lin64/Timer/Timer.c **** unsigned char key_analysis(unsigned char key, unsigned char Raw){
 393               		.stabn	68,0,823,.LM38-.LFBB8
 394               	.LM38:
 395               	.LFBB8:
 396               	/* prologue: function */
 397               	/* frame size = 0 */
 398               	/* stack size = 0 */
 399               	.L__stack_usage = 0
 824:/home/student/avr_src/SimulIDE_1.0.0-SR1_Lin64/Timer/Timer.c **** 
 825:/home/student/avr_src/SimulIDE_1.0.0-SR1_Lin64/Timer/Timer.c **** 	key_flag = 1;
 400               		.stabn	68,0,825,.LM39-.LFBB8
 401               	.LM39:
 402 00ea 91E0      		ldi r25,lo8(1)
 403 00ec 9093 0000 		sts key_flag,r25
 826:/home/student/avr_src/SimulIDE_1.0.0-SR1_Lin64/Timer/Timer.c **** 	switch(Raw){
 404               		.stabn	68,0,826,.LM40-.LFBB8
 405               	.LM40:
 406 00f0 6130      		cpi r22,lo8(1)
 407 00f2 01F0      		breq .L14
 408 00f4 00F0      		brlo .L15
 409 00f6 6230      		cpi r22,lo8(2)
 410 00f8 01F0      		breq .L16
 411 00fa 00C0      		rjmp .L36
 412               	.L15:
 413               	.LBB98:
 414               	.LBB99:
 827:/home/student/avr_src/SimulIDE_1.0.0-SR1_Lin64/Timer/Timer.c **** 		case 0:
 828:/home/student/avr_src/SimulIDE_1.0.0-SR1_Lin64/Timer/Timer.c **** 		switch(key){
 415               		.stabn	68,0,828,.LM41-.LFBB8
 416               	.LM41:
 417 00fc 8B30      		cpi r24,lo8(11)
 418 00fe 01F0      		breq .L18
 419 0100 00F4      		brsh .L19
 420 0102 8730      		cpi r24,lo8(7)
 421 0104 01F4      		brne .L36
 829:/home/student/avr_src/SimulIDE_1.0.0-SR1_Lin64/Timer/Timer.c **** 			case 0b00001110:
 830:/home/student/avr_src/SimulIDE_1.0.0-SR1_Lin64/Timer/Timer.c **** 			return 1;
 831:/home/student/avr_src/SimulIDE_1.0.0-SR1_Lin64/Timer/Timer.c **** 			case 0b00001101:
 832:/home/student/avr_src/SimulIDE_1.0.0-SR1_Lin64/Timer/Timer.c **** 			return 4;
 833:/home/student/avr_src/SimulIDE_1.0.0-SR1_Lin64/Timer/Timer.c **** 			case 0b00001011:
 834:/home/student/avr_src/SimulIDE_1.0.0-SR1_Lin64/Timer/Timer.c **** 			return 7;
 835:/home/student/avr_src/SimulIDE_1.0.0-SR1_Lin64/Timer/Timer.c **** 			case 0b00000111:
 836:/home/student/avr_src/SimulIDE_1.0.0-SR1_Lin64/Timer/Timer.c **** 			return 10;
 422               		.stabn	68,0,836,.LM42-.LFBB8
 423               	.LM42:
 424 0106 8AE0      		ldi r24,lo8(10)
 425 0108 0895      		ret
 426               	.L19:
 828:/home/student/avr_src/SimulIDE_1.0.0-SR1_Lin64/Timer/Timer.c **** 			case 0b00001110:
 427               		.stabn	68,0,828,.LM43-.LFBB8
 428               	.LM43:
 429 010a 8D30      		cpi r24,lo8(13)
 430 010c 01F0      		breq .L21
 431 010e 8E30      		cpi r24,lo8(14)
 432 0110 01F0      		breq .L33
 433 0112 00C0      		rjmp .L36
 434               	.L21:
 832:/home/student/avr_src/SimulIDE_1.0.0-SR1_Lin64/Timer/Timer.c **** 			case 0b00001011:
 435               		.stabn	68,0,832,.LM44-.LFBB8
 436               	.LM44:
 437 0114 84E0      		ldi r24,lo8(4)
 438 0116 0895      		ret
 439               	.L18:
 834:/home/student/avr_src/SimulIDE_1.0.0-SR1_Lin64/Timer/Timer.c **** 			case 0b00000111:
 440               		.stabn	68,0,834,.LM45-.LFBB8
 441               	.LM45:
 442 0118 87E0      		ldi r24,lo8(7)
 443 011a 0895      		ret
 444               	.L14:
 445               	.LBE99:
 446               	.LBE98:
 837:/home/student/avr_src/SimulIDE_1.0.0-SR1_Lin64/Timer/Timer.c **** 			default:
 838:/home/student/avr_src/SimulIDE_1.0.0-SR1_Lin64/Timer/Timer.c **** 			key_flag = 0;
 839:/home/student/avr_src/SimulIDE_1.0.0-SR1_Lin64/Timer/Timer.c **** 			return -1;
 840:/home/student/avr_src/SimulIDE_1.0.0-SR1_Lin64/Timer/Timer.c **** 		}
 841:/home/student/avr_src/SimulIDE_1.0.0-SR1_Lin64/Timer/Timer.c **** 
 842:/home/student/avr_src/SimulIDE_1.0.0-SR1_Lin64/Timer/Timer.c **** 		case 1:
 843:/home/student/avr_src/SimulIDE_1.0.0-SR1_Lin64/Timer/Timer.c **** 		switch(key){
 447               		.stabn	68,0,843,.LM46-.LFBB8
 448               	.LM46:
 449 011c 8B30      		cpi r24,lo8(11)
 450 011e 01F0      		breq .L24
 451 0120 00F4      		brsh .L25
 452 0122 8730      		cpi r24,lo8(7)
 453 0124 01F4      		brne .L36
 844:/home/student/avr_src/SimulIDE_1.0.0-SR1_Lin64/Timer/Timer.c **** 			case 0b00001110:
 845:/home/student/avr_src/SimulIDE_1.0.0-SR1_Lin64/Timer/Timer.c **** 			return 2;
 846:/home/student/avr_src/SimulIDE_1.0.0-SR1_Lin64/Timer/Timer.c **** 			case 0b00001101:
 847:/home/student/avr_src/SimulIDE_1.0.0-SR1_Lin64/Timer/Timer.c **** 			return 5;
 848:/home/student/avr_src/SimulIDE_1.0.0-SR1_Lin64/Timer/Timer.c **** 			case 0b00001011:
 849:/home/student/avr_src/SimulIDE_1.0.0-SR1_Lin64/Timer/Timer.c **** 			return 8;
 850:/home/student/avr_src/SimulIDE_1.0.0-SR1_Lin64/Timer/Timer.c **** 			case 0b00000111:
 851:/home/student/avr_src/SimulIDE_1.0.0-SR1_Lin64/Timer/Timer.c **** 			return 0;
 454               		.stabn	68,0,851,.LM47-.LFBB8
 455               	.LM47:
 456 0126 80E0      		ldi r24,0
 457 0128 0895      		ret
 458               	.L25:
 843:/home/student/avr_src/SimulIDE_1.0.0-SR1_Lin64/Timer/Timer.c **** 			case 0b00001110:
 459               		.stabn	68,0,843,.LM48-.LFBB8
 460               	.LM48:
 461 012a 8D30      		cpi r24,lo8(13)
 462 012c 01F0      		breq .L27
 463 012e 8E30      		cpi r24,lo8(14)
 464 0130 01F0      		breq .L34
 465 0132 00C0      		rjmp .L36
 466               	.L27:
 847:/home/student/avr_src/SimulIDE_1.0.0-SR1_Lin64/Timer/Timer.c **** 			case 0b00001011:
 467               		.stabn	68,0,847,.LM49-.LFBB8
 468               	.LM49:
 469 0134 85E0      		ldi r24,lo8(5)
 470 0136 0895      		ret
 471               	.L24:
 849:/home/student/avr_src/SimulIDE_1.0.0-SR1_Lin64/Timer/Timer.c **** 			case 0b00000111:
 472               		.stabn	68,0,849,.LM50-.LFBB8
 473               	.LM50:
 474 0138 88E0      		ldi r24,lo8(8)
 475 013a 0895      		ret
 476               	.L16:
 852:/home/student/avr_src/SimulIDE_1.0.0-SR1_Lin64/Timer/Timer.c **** 			default:
 853:/home/student/avr_src/SimulIDE_1.0.0-SR1_Lin64/Timer/Timer.c **** 			key_flag = 0;
 854:/home/student/avr_src/SimulIDE_1.0.0-SR1_Lin64/Timer/Timer.c **** 			return -1;
 855:/home/student/avr_src/SimulIDE_1.0.0-SR1_Lin64/Timer/Timer.c **** 		}
 856:/home/student/avr_src/SimulIDE_1.0.0-SR1_Lin64/Timer/Timer.c **** 
 857:/home/student/avr_src/SimulIDE_1.0.0-SR1_Lin64/Timer/Timer.c **** 		case 2:
 858:/home/student/avr_src/SimulIDE_1.0.0-SR1_Lin64/Timer/Timer.c **** 		switch(key){
 477               		.stabn	68,0,858,.LM51-.LFBB8
 478               	.LM51:
 479 013c 8B30      		cpi r24,lo8(11)
 480 013e 01F0      		breq .L29
 481 0140 00F4      		brsh .L30
 482 0142 8730      		cpi r24,lo8(7)
 483 0144 01F4      		brne .L36
 859:/home/student/avr_src/SimulIDE_1.0.0-SR1_Lin64/Timer/Timer.c **** 			case 0b00001110:
 860:/home/student/avr_src/SimulIDE_1.0.0-SR1_Lin64/Timer/Timer.c **** 			return 3;
 861:/home/student/avr_src/SimulIDE_1.0.0-SR1_Lin64/Timer/Timer.c **** 			case 0b0001101:
 862:/home/student/avr_src/SimulIDE_1.0.0-SR1_Lin64/Timer/Timer.c **** 			return 6;
 863:/home/student/avr_src/SimulIDE_1.0.0-SR1_Lin64/Timer/Timer.c **** 			case 0b00001011:
 864:/home/student/avr_src/SimulIDE_1.0.0-SR1_Lin64/Timer/Timer.c **** 			return 9;
 865:/home/student/avr_src/SimulIDE_1.0.0-SR1_Lin64/Timer/Timer.c **** 			case 0b00000111:
 866:/home/student/avr_src/SimulIDE_1.0.0-SR1_Lin64/Timer/Timer.c **** 			return 11;
 484               		.stabn	68,0,866,.LM52-.LFBB8
 485               	.LM52:
 486 0146 8BE0      		ldi r24,lo8(11)
 487 0148 0895      		ret
 488               	.L30:
 858:/home/student/avr_src/SimulIDE_1.0.0-SR1_Lin64/Timer/Timer.c **** 			case 0b00001110:
 489               		.stabn	68,0,858,.LM53-.LFBB8
 490               	.LM53:
 491 014a 8D30      		cpi r24,lo8(13)
 492 014c 01F0      		breq .L32
 493 014e 8E30      		cpi r24,lo8(14)
 494 0150 01F0      		breq .L35
 495 0152 00C0      		rjmp .L36
 496               	.L32:
 862:/home/student/avr_src/SimulIDE_1.0.0-SR1_Lin64/Timer/Timer.c **** 			case 0b00001011:
 497               		.stabn	68,0,862,.LM54-.LFBB8
 498               	.LM54:
 499 0154 86E0      		ldi r24,lo8(6)
 500 0156 0895      		ret
 501               	.L29:
 864:/home/student/avr_src/SimulIDE_1.0.0-SR1_Lin64/Timer/Timer.c **** 			case 0b00000111:
 502               		.stabn	68,0,864,.LM55-.LFBB8
 503               	.LM55:
 504 0158 89E0      		ldi r24,lo8(9)
 505 015a 0895      		ret
 506               	.L36:
 867:/home/student/avr_src/SimulIDE_1.0.0-SR1_Lin64/Timer/Timer.c **** 			default:
 868:/home/student/avr_src/SimulIDE_1.0.0-SR1_Lin64/Timer/Timer.c **** 			key_flag = 0;
 869:/home/student/avr_src/SimulIDE_1.0.0-SR1_Lin64/Timer/Timer.c **** 			return -1;
 870:/home/student/avr_src/SimulIDE_1.0.0-SR1_Lin64/Timer/Timer.c **** 		}
 871:/home/student/avr_src/SimulIDE_1.0.0-SR1_Lin64/Timer/Timer.c **** 		default:
 872:/home/student/avr_src/SimulIDE_1.0.0-SR1_Lin64/Timer/Timer.c **** 		key_flag = 0;
 507               		.stabn	68,0,872,.LM56-.LFBB8
 508               	.LM56:
 509 015c 1092 0000 		sts key_flag,__zero_reg__
 873:/home/student/avr_src/SimulIDE_1.0.0-SR1_Lin64/Timer/Timer.c **** 		return -1;
 510               		.stabn	68,0,873,.LM57-.LFBB8
 511               	.LM57:
 512 0160 8FEF      		ldi r24,lo8(-1)
 513 0162 0895      		ret
 514               	.L33:
 515               	.LBB101:
 516               	.LBB100:
 830:/home/student/avr_src/SimulIDE_1.0.0-SR1_Lin64/Timer/Timer.c **** 			case 0b00001101:
 517               		.stabn	68,0,830,.LM58-.LFBB8
 518               	.LM58:
 519 0164 81E0      		ldi r24,lo8(1)
 520 0166 0895      		ret
 521               	.L34:
 522               	.LBE100:
 523               	.LBE101:
 845:/home/student/avr_src/SimulIDE_1.0.0-SR1_Lin64/Timer/Timer.c **** 			case 0b00001101:
 524               		.stabn	68,0,845,.LM59-.LFBB8
 525               	.LM59:
 526 0168 82E0      		ldi r24,lo8(2)
 527 016a 0895      		ret
 528               	.L35:
 860:/home/student/avr_src/SimulIDE_1.0.0-SR1_Lin64/Timer/Timer.c **** 			case 0b0001101:
 529               		.stabn	68,0,860,.LM60-.LFBB8
 530               	.LM60:
 531 016c 83E0      		ldi r24,lo8(3)
 874:/home/student/avr_src/SimulIDE_1.0.0-SR1_Lin64/Timer/Timer.c **** 	}
 875:/home/student/avr_src/SimulIDE_1.0.0-SR1_Lin64/Timer/Timer.c **** }
 532               		.stabn	68,0,875,.LM61-.LFBB8
 533               	.LM61:
 534 016e 0895      		ret
 535               		.size	key_analysis, .-key_analysis
 536               	.Lscope8:
 537               		.stabs	"",36,0,0,.Lscope8-.LFBB8
 538               		.stabd	78,0,0
 539               		.stabs	"key_scan:F(0,13)",36,0,762,key_scan
 540               	.global	key_scan
 541               		.type	key_scan, @function
 542               	key_scan:
 543               		.stabd	46,0,0
 762:/home/student/avr_src/SimulIDE_1.0.0-SR1_Lin64/Timer/Timer.c **** 
 544               		.stabn	68,0,762,.LM62-.LFBB9
 545               	.LM62:
 546               	.LFBB9:
 547               	/* prologue: function */
 548               	/* frame size = 0 */
 549               	/* stack size = 0 */
 550               	.L__stack_usage = 0
 765:/home/student/avr_src/SimulIDE_1.0.0-SR1_Lin64/Timer/Timer.c ****     PORTD &= ~(0x70);
 551               		.stabn	68,0,765,.LM63-.LFBB9
 552               	.LM63:
 553 0170 8091 0000 		lds r24,key_flag
 554 0174 8111      		cpse r24,__zero_reg__
 555 0176 00C0      		rjmp .L39
 766:/home/student/avr_src/SimulIDE_1.0.0-SR1_Lin64/Timer/Timer.c ****     new_key = (PINB) & 0x0f;
 556               		.stabn	68,0,766,.LM64-.LFBB9
 557               	.LM64:
 558 0178 8BB1      		in r24,0xb
 559 017a 8F78      		andi r24,lo8(-113)
 560 017c 8BB9      		out 0xb,r24
 767:/home/student/avr_src/SimulIDE_1.0.0-SR1_Lin64/Timer/Timer.c **** 
 561               		.stabn	68,0,767,.LM65-.LFBB9
 562               	.LM65:
 563 017e 83B1      		in r24,0x3
 564 0180 8F70      		andi r24,lo8(15)
 565 0182 8093 0000 		sts new_key,r24
 770:/home/student/avr_src/SimulIDE_1.0.0-SR1_Lin64/Timer/Timer.c ****         old_key = new_key;
 566               		.stabn	68,0,770,.LM66-.LFBB9
 567               	.LM66:
 568 0186 9091 0000 		lds r25,new_key
 569 018a 8091 0000 		lds r24,old_key
 570 018e 9817      		cp r25,r24
 571 0190 01F0      		breq .L40
 771:/home/student/avr_src/SimulIDE_1.0.0-SR1_Lin64/Timer/Timer.c ****         return -1;
 572               		.stabn	68,0,771,.LM67-.LFBB9
 573               	.LM67:
 574 0192 8091 0000 		lds r24,new_key
 575 0196 8093 0000 		sts old_key,r24
 772:/home/student/avr_src/SimulIDE_1.0.0-SR1_Lin64/Timer/Timer.c ****     }
 576               		.stabn	68,0,772,.LM68-.LFBB9
 577               	.LM68:
 578 019a 00C0      		rjmp .L39
 579               	.L40:
 775:/home/student/avr_src/SimulIDE_1.0.0-SR1_Lin64/Timer/Timer.c ****         //pin 1 ,3, 5 => D4, D5, D6 / pin 2,7,6,4 => D0, D1, D2, D3
 580               		.stabn	68,0,775,.LM69-.LFBB9
 581               	.LM69:
 582 019c 8091 0000 		lds r24,pressing_flag
 583 01a0 8823      		tst r24
 584 01a2 01F0      		breq .L41
 777:/home/student/avr_src/SimulIDE_1.0.0-SR1_Lin64/Timer/Timer.c ****                              //because if one of btns is pressed, it can get signals 
 585               		.stabn	68,0,777,.LM70-.LFBB9
 586               	.LM70:
 587 01a4 8091 0000 		lds r24,new_key
 588 01a8 8F30      		cpi r24,lo8(15)
 589 01aa 01F4      		brne .L39
 779:/home/student/avr_src/SimulIDE_1.0.0-SR1_Lin64/Timer/Timer.c ****             return -1;
 590               		.stabn	68,0,779,.LM71-.LFBB9
 591               	.LM71:
 592 01ac 1092 0000 		sts pressing_flag,__zero_reg__
 780:/home/student/avr_src/SimulIDE_1.0.0-SR1_Lin64/Timer/Timer.c ****         }
 593               		.stabn	68,0,780,.LM72-.LFBB9
 594               	.LM72:
 595 01b0 00C0      		rjmp .L39
 596               	.L41:
 786:/home/student/avr_src/SimulIDE_1.0.0-SR1_Lin64/Timer/Timer.c ****             return -1;
 597               		.stabn	68,0,786,.LM73-.LFBB9
 598               	.LM73:
 599 01b2 8091 0000 		lds r24,new_key
 600 01b6 8F30      		cpi r24,lo8(15)
 601 01b8 01F0      		breq .L39
 602 01ba 60E0      		ldi r22,0
 603 01bc 70E0      		ldi r23,0
 604 01be 90E1      		ldi r25,lo8(16)
 605               	.L44:
 606               	.LBB106:
 607               	.LBB107:
 608               	.LBB108:
 791:/home/student/avr_src/SimulIDE_1.0.0-SR1_Lin64/Timer/Timer.c ****                 PORTD &= ~(bit_shift); //to check specific raw, Ex) raw 1 -> D5, D6 must be HIGH st
 609               		.stabn	68,0,791,.LM74-.LFBB9
 610               	.LM74:
 611 01c0 8BB1      		in r24,0xb
 612 01c2 8067      		ori r24,lo8(112)
 613 01c4 8BB9      		out 0xb,r24
 792:/home/student/avr_src/SimulIDE_1.0.0-SR1_Lin64/Timer/Timer.c **** 									   //in addition if pin of PORTD is on, PINB won't be low state
 614               		.stabn	68,0,792,.LM75-.LFBB9
 615               	.LM75:
 616 01c6 2BB1      		in r18,0xb
 617 01c8 892F      		mov r24,r25
 618 01ca 8095      		com r24
 619 01cc 2823      		and r18,r24
 620 01ce 2BB9      		out 0xb,r18
 796:/home/student/avr_src/SimulIDE_1.0.0-SR1_Lin64/Timer/Timer.c **** 				DDRD |= 0x70; 
 621               		.stabn	68,0,796,.LM76-.LFBB9
 622               	.LM76:
 623 01d0 2AB1      		in r18,0xa
 624 01d2 8223      		and r24,r18
 625 01d4 8AB9      		out 0xa,r24
 797:/home/student/avr_src/SimulIDE_1.0.0-SR1_Lin64/Timer/Timer.c **** 				
 626               		.stabn	68,0,797,.LM77-.LFBB9
 627               	.LM77:
 628 01d6 8AB1      		in r24,0xa
 629 01d8 8067      		ori r24,lo8(112)
 630 01da 8AB9      		out 0xa,r24
 799:/home/student/avr_src/SimulIDE_1.0.0-SR1_Lin64/Timer/Timer.c ****                 if(new_key == 0x0f){ // + when raw is LOW
 631               		.stabn	68,0,799,.LM78-.LFBB9
 632               	.LM78:
 633 01dc 83B1      		in r24,0x3
 634 01de 8F70      		andi r24,lo8(15)
 635 01e0 8093 0000 		sts new_key,r24
 800:/home/student/avr_src/SimulIDE_1.0.0-SR1_Lin64/Timer/Timer.c ****                   
 636               		.stabn	68,0,800,.LM79-.LFBB9
 637               	.LM79:
 638 01e4 8091 0000 		lds r24,new_key
 639 01e8 8F30      		cpi r24,lo8(15)
 640 01ea 01F4      		brne .L43
 802:/home/student/avr_src/SimulIDE_1.0.0-SR1_Lin64/Timer/Timer.c ****                     continue;
 641               		.stabn	68,0,802,.LM80-.LFBB9
 642               	.LM80:
 643 01ec 990F      		lsl r25
 790:/home/student/avr_src/SimulIDE_1.0.0-SR1_Lin64/Timer/Timer.c ****                 PORTD |= 0x70; 
 644               		.stabn	68,0,790,.LM81-.LFBB9
 645               	.LM81:
 646 01ee 6F5F      		subi r22,-1
 647 01f0 7F4F      		sbci r23,-1
 648 01f2 6330      		cpi r22,3
 649 01f4 7105      		cpc r23,__zero_reg__
 650 01f6 01F0      		breq .L39
 651 01f8 00C0      		rjmp .L44
 652               	.L43:
 808:/home/student/avr_src/SimulIDE_1.0.0-SR1_Lin64/Timer/Timer.c ****                     key_flag = 1;
 653               		.stabn	68,0,808,.LM82-.LFBB9
 654               	.LM82:
 655 01fa 81E0      		ldi r24,lo8(1)
 656 01fc 8093 0000 		sts pressing_flag,r24
 809:/home/student/avr_src/SimulIDE_1.0.0-SR1_Lin64/Timer/Timer.c ****                     return key_analysis(new_key, Raw);
 657               		.stabn	68,0,809,.LM83-.LFBB9
 658               	.LM83:
 659 0200 8093 0000 		sts key_flag,r24
 810:/home/student/avr_src/SimulIDE_1.0.0-SR1_Lin64/Timer/Timer.c ****                 }
 660               		.stabn	68,0,810,.LM84-.LFBB9
 661               	.LM84:
 662 0204 8091 0000 		lds r24,new_key
 663 0208 0C94 0000 		jmp key_analysis
 664               	.L39:
 665               	.LBE108:
 666               	.LBE107:
 667               	.LBE106:
 820:/home/student/avr_src/SimulIDE_1.0.0-SR1_Lin64/Timer/Timer.c **** 
 668               		.stabn	68,0,820,.LM85-.LFBB9
 669               	.LM85:
 670 020c 8FEF      		ldi r24,lo8(-1)
 671 020e 0895      		ret
 672               		.size	key_scan, .-key_scan
 673               		.stabs	"bit_shift:r(0,13)",64,0,764,25
 674               		.stabn	192,0,0,.LBB107-.LFBB9
 675               		.stabs	"Raw:r(0,1)",64,0,790,22
 676               		.stabn	192,0,0,.LBB108-.LFBB9
 677               		.stabn	224,0,0,.LBE108-.LFBB9
 678               		.stabn	224,0,0,.LBE107-.LFBB9
 679               	.Lscope9:
 680               		.stabs	"",36,0,0,.Lscope9-.LFBB9
 681               		.stabd	78,0,0
 682               		.stabs	"num2lcdbyte:F(5,4)",36,0,904,num2lcdbyte
 683               		.stabs	"num:P(0,13)",64,0,904,24
 684               	.global	num2lcdbyte
 685               		.type	num2lcdbyte, @function
 686               	num2lcdbyte:
 687               		.stabd	46,0,0
 876:/home/student/avr_src/SimulIDE_1.0.0-SR1_Lin64/Timer/Timer.c **** //====================================================
 877:/home/student/avr_src/SimulIDE_1.0.0-SR1_Lin64/Timer/Timer.c **** 
 878:/home/student/avr_src/SimulIDE_1.0.0-SR1_Lin64/Timer/Timer.c **** void LCD_Write(unsigned char data){ //mainly command
 879:/home/student/avr_src/SimulIDE_1.0.0-SR1_Lin64/Timer/Timer.c **** 	
 880:/home/student/avr_src/SimulIDE_1.0.0-SR1_Lin64/Timer/Timer.c **** 	// D7 D6 D5 D4   X  E  RW RS
 881:/home/student/avr_src/SimulIDE_1.0.0-SR1_Lin64/Timer/Timer.c **** 	// P7 P6 P5 P4   P3 P2 P1 P0
 882:/home/student/avr_src/SimulIDE_1.0.0-SR1_Lin64/Timer/Timer.c **** 	_delay_us(1);
 883:/home/student/avr_src/SimulIDE_1.0.0-SR1_Lin64/Timer/Timer.c **** 	//LCD_NEBIT(data);
 884:/home/student/avr_src/SimulIDE_1.0.0-SR1_Lin64/Timer/Timer.c **** 	write_AT24Cxx_i2c_byte(data); 
 885:/home/student/avr_src/SimulIDE_1.0.0-SR1_Lin64/Timer/Timer.c **** 
 886:/home/student/avr_src/SimulIDE_1.0.0-SR1_Lin64/Timer/Timer.c **** }
 887:/home/student/avr_src/SimulIDE_1.0.0-SR1_Lin64/Timer/Timer.c **** 
 888:/home/student/avr_src/SimulIDE_1.0.0-SR1_Lin64/Timer/Timer.c **** void LCD_CharWrite(uint16_t byte){
 889:/home/student/avr_src/SimulIDE_1.0.0-SR1_Lin64/Timer/Timer.c **** 	
 890:/home/student/avr_src/SimulIDE_1.0.0-SR1_Lin64/Timer/Timer.c **** 	cli();
 891:/home/student/avr_src/SimulIDE_1.0.0-SR1_Lin64/Timer/Timer.c **** 
 892:/home/student/avr_src/SimulIDE_1.0.0-SR1_Lin64/Timer/Timer.c **** 	AT24Cxx_i2c_start();
 893:/home/student/avr_src/SimulIDE_1.0.0-SR1_Lin64/Timer/Timer.c **** 	write_AT24Cxx_i2c_LCDAddressing((I2CLCD_ADDR << 1)); 
 894:/home/student/avr_src/SimulIDE_1.0.0-SR1_Lin64/Timer/Timer.c **** 	unsigned char upperbits = byte>>8 & 0xFF;
 895:/home/student/avr_src/SimulIDE_1.0.0-SR1_Lin64/Timer/Timer.c **** 	unsigned char lowerbits = byte & 0xFF;
 896:/home/student/avr_src/SimulIDE_1.0.0-SR1_Lin64/Timer/Timer.c **** 	LCD_NEBIT(upperbits);
 897:/home/student/avr_src/SimulIDE_1.0.0-SR1_Lin64/Timer/Timer.c **** 	write_AT24Cxx_i2c_byte(upperbits); 
 898:/home/student/avr_src/SimulIDE_1.0.0-SR1_Lin64/Timer/Timer.c **** 	LCD_NEBIT(lowerbits);
 899:/home/student/avr_src/SimulIDE_1.0.0-SR1_Lin64/Timer/Timer.c **** 	write_AT24Cxx_i2c_byte(lowerbits); 
 900:/home/student/avr_src/SimulIDE_1.0.0-SR1_Lin64/Timer/Timer.c **** 	AT24Cxx_i2c_stop();
 901:/home/student/avr_src/SimulIDE_1.0.0-SR1_Lin64/Timer/Timer.c **** 	sei();
 902:/home/student/avr_src/SimulIDE_1.0.0-SR1_Lin64/Timer/Timer.c **** }
 903:/home/student/avr_src/SimulIDE_1.0.0-SR1_Lin64/Timer/Timer.c **** 
 904:/home/student/avr_src/SimulIDE_1.0.0-SR1_Lin64/Timer/Timer.c **** uint16_t num2lcdbyte(unsigned char num){
 688               		.stabn	68,0,904,.LM86-.LFBB10
 689               	.LM86:
 690               	.LFBB10:
 691               	/* prologue: function */
 692               	/* frame size = 0 */
 693               	/* stack size = 0 */
 694               	.L__stack_usage = 0
 905:/home/student/avr_src/SimulIDE_1.0.0-SR1_Lin64/Timer/Timer.c **** 	// D7 D6 D5 D4   X  E  RW RS
 906:/home/student/avr_src/SimulIDE_1.0.0-SR1_Lin64/Timer/Timer.c **** 	// P7 P6 P5 P4   P3 P2 P1 P0
 907:/home/student/avr_src/SimulIDE_1.0.0-SR1_Lin64/Timer/Timer.c **** 
 908:/home/student/avr_src/SimulIDE_1.0.0-SR1_Lin64/Timer/Timer.c **** 	if(num == 0) return 0x3101;
 695               		.stabn	68,0,908,.LM87-.LFBB10
 696               	.LM87:
 697 0210 8823      		tst r24
 698 0212 01F0      		breq .L51
 909:/home/student/avr_src/SimulIDE_1.0.0-SR1_Lin64/Timer/Timer.c **** 	if(num == 1) return 0x3111;
 699               		.stabn	68,0,909,.LM88-.LFBB10
 700               	.LM88:
 701 0214 8130      		cpi r24,lo8(1)
 702 0216 01F0      		breq .L52
 910:/home/student/avr_src/SimulIDE_1.0.0-SR1_Lin64/Timer/Timer.c **** 	if(num == 2) return 0x3121;
 703               		.stabn	68,0,910,.LM89-.LFBB10
 704               	.LM89:
 705 0218 8230      		cpi r24,lo8(2)
 706 021a 01F0      		breq .L53
 911:/home/student/avr_src/SimulIDE_1.0.0-SR1_Lin64/Timer/Timer.c **** 	if(num == 3) return 0x3131;
 707               		.stabn	68,0,911,.LM90-.LFBB10
 708               	.LM90:
 709 021c 8330      		cpi r24,lo8(3)
 710 021e 01F0      		breq .L54
 912:/home/student/avr_src/SimulIDE_1.0.0-SR1_Lin64/Timer/Timer.c **** 	if(num == 4) return 0x3141;
 711               		.stabn	68,0,912,.LM91-.LFBB10
 712               	.LM91:
 713 0220 8430      		cpi r24,lo8(4)
 714 0222 01F0      		breq .L55
 913:/home/student/avr_src/SimulIDE_1.0.0-SR1_Lin64/Timer/Timer.c **** 	if(num == 5) return 0x3151;
 715               		.stabn	68,0,913,.LM92-.LFBB10
 716               	.LM92:
 717 0224 8530      		cpi r24,lo8(5)
 718 0226 01F0      		breq .L56
 914:/home/student/avr_src/SimulIDE_1.0.0-SR1_Lin64/Timer/Timer.c **** 	if(num == 6) return 0x3161;
 719               		.stabn	68,0,914,.LM93-.LFBB10
 720               	.LM93:
 721 0228 8630      		cpi r24,lo8(6)
 722 022a 01F0      		breq .L57
 915:/home/student/avr_src/SimulIDE_1.0.0-SR1_Lin64/Timer/Timer.c **** 	if(num == 7) return 0x3171;
 723               		.stabn	68,0,915,.LM94-.LFBB10
 724               	.LM94:
 725 022c 8730      		cpi r24,lo8(7)
 726 022e 01F0      		breq .L58
 727               	.LBB111:
 728               	.LBB112:
 916:/home/student/avr_src/SimulIDE_1.0.0-SR1_Lin64/Timer/Timer.c **** 	if(num == 8) return 0x3181;
 729               		.stabn	68,0,916,.LM95-.LFBB10
 730               	.LM95:
 731 0230 8830      		cpi r24,lo8(8)
 732 0232 01F0      		breq .L59
 917:/home/student/avr_src/SimulIDE_1.0.0-SR1_Lin64/Timer/Timer.c **** 	if(num == 9) return 0x3191;
 733               		.stabn	68,0,917,.LM96-.LFBB10
 734               	.LM96:
 735 0234 8930      		cpi r24,lo8(9)
 736 0236 01F0      		breq .L60
 918:/home/student/avr_src/SimulIDE_1.0.0-SR1_Lin64/Timer/Timer.c **** 
 919:/home/student/avr_src/SimulIDE_1.0.0-SR1_Lin64/Timer/Timer.c **** 	return -1;
 737               		.stabn	68,0,919,.LM97-.LFBB10
 738               	.LM97:
 739 0238 8FEF      		ldi r24,lo8(-1)
 740 023a 9FEF      		ldi r25,lo8(-1)
 741 023c 0895      		ret
 742               	.L51:
 743               	.LBE112:
 744               	.LBE111:
 908:/home/student/avr_src/SimulIDE_1.0.0-SR1_Lin64/Timer/Timer.c **** 	if(num == 1) return 0x3111;
 745               		.stabn	68,0,908,.LM98-.LFBB10
 746               	.LM98:
 747 023e 81E0      		ldi r24,lo8(1)
 748 0240 91E3      		ldi r25,lo8(49)
 749 0242 0895      		ret
 750               	.L52:
 909:/home/student/avr_src/SimulIDE_1.0.0-SR1_Lin64/Timer/Timer.c **** 	if(num == 2) return 0x3121;
 751               		.stabn	68,0,909,.LM99-.LFBB10
 752               	.LM99:
 753 0244 81E1      		ldi r24,lo8(17)
 754 0246 91E3      		ldi r25,lo8(49)
 755 0248 0895      		ret
 756               	.L53:
 910:/home/student/avr_src/SimulIDE_1.0.0-SR1_Lin64/Timer/Timer.c **** 	if(num == 3) return 0x3131;
 757               		.stabn	68,0,910,.LM100-.LFBB10
 758               	.LM100:
 759 024a 81E2      		ldi r24,lo8(33)
 760 024c 91E3      		ldi r25,lo8(49)
 761 024e 0895      		ret
 762               	.L54:
 911:/home/student/avr_src/SimulIDE_1.0.0-SR1_Lin64/Timer/Timer.c **** 	if(num == 4) return 0x3141;
 763               		.stabn	68,0,911,.LM101-.LFBB10
 764               	.LM101:
 765 0250 81E3      		ldi r24,lo8(49)
 766 0252 91E3      		ldi r25,lo8(49)
 767 0254 0895      		ret
 768               	.L55:
 912:/home/student/avr_src/SimulIDE_1.0.0-SR1_Lin64/Timer/Timer.c **** 	if(num == 5) return 0x3151;
 769               		.stabn	68,0,912,.LM102-.LFBB10
 770               	.LM102:
 771 0256 81E4      		ldi r24,lo8(65)
 772 0258 91E3      		ldi r25,lo8(49)
 773 025a 0895      		ret
 774               	.L56:
 913:/home/student/avr_src/SimulIDE_1.0.0-SR1_Lin64/Timer/Timer.c **** 	if(num == 6) return 0x3161;
 775               		.stabn	68,0,913,.LM103-.LFBB10
 776               	.LM103:
 777 025c 81E5      		ldi r24,lo8(81)
 778 025e 91E3      		ldi r25,lo8(49)
 779 0260 0895      		ret
 780               	.L57:
 914:/home/student/avr_src/SimulIDE_1.0.0-SR1_Lin64/Timer/Timer.c **** 	if(num == 7) return 0x3171;
 781               		.stabn	68,0,914,.LM104-.LFBB10
 782               	.LM104:
 783 0262 81E6      		ldi r24,lo8(97)
 784 0264 91E3      		ldi r25,lo8(49)
 785 0266 0895      		ret
 786               	.L58:
 915:/home/student/avr_src/SimulIDE_1.0.0-SR1_Lin64/Timer/Timer.c **** 	if(num == 8) return 0x3181;
 787               		.stabn	68,0,915,.LM105-.LFBB10
 788               	.LM105:
 789 0268 81E7      		ldi r24,lo8(113)
 790 026a 91E3      		ldi r25,lo8(49)
 791 026c 0895      		ret
 792               	.L59:
 793               	.LBB114:
 794               	.LBB113:
 916:/home/student/avr_src/SimulIDE_1.0.0-SR1_Lin64/Timer/Timer.c **** 	if(num == 9) return 0x3191;
 795               		.stabn	68,0,916,.LM106-.LFBB10
 796               	.LM106:
 797 026e 81E8      		ldi r24,lo8(-127)
 798 0270 91E3      		ldi r25,lo8(49)
 799 0272 0895      		ret
 800               	.L60:
 917:/home/student/avr_src/SimulIDE_1.0.0-SR1_Lin64/Timer/Timer.c **** 
 801               		.stabn	68,0,917,.LM107-.LFBB10
 802               	.LM107:
 803 0274 81E9      		ldi r24,lo8(-111)
 804 0276 91E3      		ldi r25,lo8(49)
 805               	.LBE113:
 806               	.LBE114:
 920:/home/student/avr_src/SimulIDE_1.0.0-SR1_Lin64/Timer/Timer.c **** 
 921:/home/student/avr_src/SimulIDE_1.0.0-SR1_Lin64/Timer/Timer.c **** }
 807               		.stabn	68,0,921,.LM108-.LFBB10
 808               	.LM108:
 809 0278 0895      		ret
 810               		.size	num2lcdbyte, .-num2lcdbyte
 811               	.Lscope10:
 812               		.stabs	"",36,0,0,.Lscope10-.LFBB10
 813               		.stabd	78,0,0
 814               		.stabs	"write_AT24Cxx_i2c_LCDAddressing:F(0,49)",36,0,923,write_AT24Cxx_i2c_LCDAddressing
 815               		.stabs	"byte:P(0,13)",64,0,923,24
 816               	.global	write_AT24Cxx_i2c_LCDAddressing
 817               		.type	write_AT24Cxx_i2c_LCDAddressing, @function
 818               	write_AT24Cxx_i2c_LCDAddressing:
 819               		.stabd	46,0,0
 922:/home/student/avr_src/SimulIDE_1.0.0-SR1_Lin64/Timer/Timer.c **** //====================================================
 923:/home/student/avr_src/SimulIDE_1.0.0-SR1_Lin64/Timer/Timer.c **** void write_AT24Cxx_i2c_LCDAddressing(unsigned char byte){
 820               		.stabn	68,0,923,.LM109-.LFBB11
 821               	.LM109:
 822               	.LFBB11:
 823               	/* prologue: function */
 824               	/* frame size = 0 */
 825               	/* stack size = 0 */
 826               	.L__stack_usage = 0
 827               	.LBB115:
 828               	.LBB116:
 829               		.stabs	"/usr/lib/avr/include/util/delay.h",132,0,0,.Ltext1
 830               	.Ltext1:
   1:/usr/lib/avr/include/util/delay.h **** /* Copyright (c) 2002, Marek Michalkiewicz
   2:/usr/lib/avr/include/util/delay.h ****    Copyright (c) 2004,2005,2007 Joerg Wunsch
   3:/usr/lib/avr/include/util/delay.h ****    Copyright (c) 2007  Florin-Viorel Petrov
   4:/usr/lib/avr/include/util/delay.h ****    All rights reserved.
   5:/usr/lib/avr/include/util/delay.h **** 
   6:/usr/lib/avr/include/util/delay.h ****    Redistribution and use in source and binary forms, with or without
   7:/usr/lib/avr/include/util/delay.h ****    modification, are permitted provided that the following conditions are met:
   8:/usr/lib/avr/include/util/delay.h **** 
   9:/usr/lib/avr/include/util/delay.h ****    * Redistributions of source code must retain the above copyright
  10:/usr/lib/avr/include/util/delay.h ****      notice, this list of conditions and the following disclaimer.
  11:/usr/lib/avr/include/util/delay.h **** 
  12:/usr/lib/avr/include/util/delay.h ****    * Redistributions in binary form must reproduce the above copyright
  13:/usr/lib/avr/include/util/delay.h ****      notice, this list of conditions and the following disclaimer in
  14:/usr/lib/avr/include/util/delay.h ****      the documentation and/or other materials provided with the
  15:/usr/lib/avr/include/util/delay.h ****      distribution.
  16:/usr/lib/avr/include/util/delay.h **** 
  17:/usr/lib/avr/include/util/delay.h ****    * Neither the name of the copyright holders nor the names of
  18:/usr/lib/avr/include/util/delay.h ****      contributors may be used to endorse or promote products derived
  19:/usr/lib/avr/include/util/delay.h ****      from this software without specific prior written permission.
  20:/usr/lib/avr/include/util/delay.h **** 
  21:/usr/lib/avr/include/util/delay.h ****   THIS SOFTWARE IS PROVIDED BY THE COPYRIGHT HOLDERS AND CONTRIBUTORS "AS IS"
  22:/usr/lib/avr/include/util/delay.h ****   AND ANY EXPRESS OR IMPLIED WARRANTIES, INCLUDING, BUT NOT LIMITED TO, THE
  23:/usr/lib/avr/include/util/delay.h ****   IMPLIED WARRANTIES OF MERCHANTABILITY AND FITNESS FOR A PARTICULAR PURPOSE
  24:/usr/lib/avr/include/util/delay.h ****   ARE DISCLAIMED. IN NO EVENT SHALL THE COPYRIGHT OWNER OR CONTRIBUTORS BE
  25:/usr/lib/avr/include/util/delay.h ****   LIABLE FOR ANY DIRECT, INDIRECT, INCIDENTAL, SPECIAL, EXEMPLARY, OR
  26:/usr/lib/avr/include/util/delay.h ****   CONSEQUENTIAL DAMAGES (INCLUDING, BUT NOT LIMITED TO, PROCUREMENT OF
  27:/usr/lib/avr/include/util/delay.h ****   SUBSTITUTE GOODS OR SERVICES; LOSS OF USE, DATA, OR PROFITS; OR BUSINESS
  28:/usr/lib/avr/include/util/delay.h ****   INTERRUPTION) HOWEVER CAUSED AND ON ANY THEORY OF LIABILITY, WHETHER IN
  29:/usr/lib/avr/include/util/delay.h ****   CONTRACT, STRICT LIABILITY, OR TORT (INCLUDING NEGLIGENCE OR OTHERWISE)
  30:/usr/lib/avr/include/util/delay.h ****   ARISING IN ANY WAY OUT OF THE USE OF THIS SOFTWARE, EVEN IF ADVISED OF THE
  31:/usr/lib/avr/include/util/delay.h ****   POSSIBILITY OF SUCH DAMAGE. */
  32:/usr/lib/avr/include/util/delay.h **** 
  33:/usr/lib/avr/include/util/delay.h **** /* $Id$ */
  34:/usr/lib/avr/include/util/delay.h **** 
  35:/usr/lib/avr/include/util/delay.h **** #ifndef _UTIL_DELAY_H_
  36:/usr/lib/avr/include/util/delay.h **** #define _UTIL_DELAY_H_ 1
  37:/usr/lib/avr/include/util/delay.h **** 
  38:/usr/lib/avr/include/util/delay.h **** #ifndef __DOXYGEN__
  39:/usr/lib/avr/include/util/delay.h **** #  ifndef __HAS_DELAY_CYCLES
  40:/usr/lib/avr/include/util/delay.h **** #    define __HAS_DELAY_CYCLES 1
  41:/usr/lib/avr/include/util/delay.h **** #  endif
  42:/usr/lib/avr/include/util/delay.h **** #endif  /* __DOXYGEN__ */
  43:/usr/lib/avr/include/util/delay.h **** 
  44:/usr/lib/avr/include/util/delay.h **** #include <inttypes.h>
  45:/usr/lib/avr/include/util/delay.h **** #include <util/delay_basic.h>
  46:/usr/lib/avr/include/util/delay.h **** #include <math.h>
  47:/usr/lib/avr/include/util/delay.h **** 
  48:/usr/lib/avr/include/util/delay.h **** /** \file */
  49:/usr/lib/avr/include/util/delay.h **** /** \defgroup util_delay <util/delay.h>: Convenience functions for busy-wait delay loops
  50:/usr/lib/avr/include/util/delay.h ****     \code
  51:/usr/lib/avr/include/util/delay.h ****     #define F_CPU 1000000UL  // 1 MHz
  52:/usr/lib/avr/include/util/delay.h ****     //#define F_CPU 14.7456E6
  53:/usr/lib/avr/include/util/delay.h ****     #include <util/delay.h>
  54:/usr/lib/avr/include/util/delay.h ****     \endcode
  55:/usr/lib/avr/include/util/delay.h **** 
  56:/usr/lib/avr/include/util/delay.h ****     \note As an alternative method, it is possible to pass the
  57:/usr/lib/avr/include/util/delay.h ****     F_CPU macro down to the compiler from the Makefile.
  58:/usr/lib/avr/include/util/delay.h ****     Obviously, in that case, no \c \#define statement should be
  59:/usr/lib/avr/include/util/delay.h ****     used.
  60:/usr/lib/avr/include/util/delay.h **** 
  61:/usr/lib/avr/include/util/delay.h ****     The functions in this header file are wrappers around the basic
  62:/usr/lib/avr/include/util/delay.h ****     busy-wait functions from <util/delay_basic.h>.  They are meant as
  63:/usr/lib/avr/include/util/delay.h ****     convenience functions where actual time values can be specified
  64:/usr/lib/avr/include/util/delay.h ****     rather than a number of cycles to wait for.  The idea behind is
  65:/usr/lib/avr/include/util/delay.h ****     that compile-time constant expressions will be eliminated by
  66:/usr/lib/avr/include/util/delay.h ****     compiler optimization so floating-point expressions can be used
  67:/usr/lib/avr/include/util/delay.h ****     to calculate the number of delay cycles needed based on the CPU
  68:/usr/lib/avr/include/util/delay.h ****     frequency passed by the macro F_CPU.
  69:/usr/lib/avr/include/util/delay.h **** 
  70:/usr/lib/avr/include/util/delay.h ****     \note In order for these functions to work as intended, compiler
  71:/usr/lib/avr/include/util/delay.h ****     optimizations <em>must</em> be enabled, and the delay time
  72:/usr/lib/avr/include/util/delay.h ****     <em>must</em> be an expression that is a known constant at
  73:/usr/lib/avr/include/util/delay.h ****     compile-time.  If these requirements are not met, the resulting
  74:/usr/lib/avr/include/util/delay.h ****     delay will be much longer (and basically unpredictable), and
  75:/usr/lib/avr/include/util/delay.h ****     applications that otherwise do not use floating-point calculations
  76:/usr/lib/avr/include/util/delay.h ****     will experience severe code bloat by the floating-point library
  77:/usr/lib/avr/include/util/delay.h ****     routines linked into the application.
  78:/usr/lib/avr/include/util/delay.h **** 
  79:/usr/lib/avr/include/util/delay.h ****     The functions available allow the specification of microsecond, and
  80:/usr/lib/avr/include/util/delay.h ****     millisecond delays directly, using the application-supplied macro
  81:/usr/lib/avr/include/util/delay.h ****     F_CPU as the CPU clock frequency (in Hertz).
  82:/usr/lib/avr/include/util/delay.h **** 
  83:/usr/lib/avr/include/util/delay.h **** */
  84:/usr/lib/avr/include/util/delay.h **** 
  85:/usr/lib/avr/include/util/delay.h **** #if !defined(__DOXYGEN__)
  86:/usr/lib/avr/include/util/delay.h **** static __inline__ void _delay_us(double __us) __attribute__((__always_inline__));
  87:/usr/lib/avr/include/util/delay.h **** static __inline__ void _delay_ms(double __ms) __attribute__((__always_inline__));
  88:/usr/lib/avr/include/util/delay.h **** #endif
  89:/usr/lib/avr/include/util/delay.h **** 
  90:/usr/lib/avr/include/util/delay.h **** #ifndef F_CPU
  91:/usr/lib/avr/include/util/delay.h **** /* prevent compiler error by supplying a default */
  92:/usr/lib/avr/include/util/delay.h **** # warning "F_CPU not defined for <util/delay.h>"
  93:/usr/lib/avr/include/util/delay.h **** /** \ingroup util_delay
  94:/usr/lib/avr/include/util/delay.h ****     \def F_CPU
  95:/usr/lib/avr/include/util/delay.h ****     \brief CPU frequency in Hz
  96:/usr/lib/avr/include/util/delay.h **** 
  97:/usr/lib/avr/include/util/delay.h ****     The macro F_CPU specifies the CPU frequency to be considered by
  98:/usr/lib/avr/include/util/delay.h ****     the delay macros.  This macro is normally supplied by the
  99:/usr/lib/avr/include/util/delay.h ****     environment (e.g. from within a project header, or the project's
 100:/usr/lib/avr/include/util/delay.h ****     Makefile).  The value 1 MHz here is only provided as a "vanilla"
 101:/usr/lib/avr/include/util/delay.h ****     fallback if no such user-provided definition could be found.
 102:/usr/lib/avr/include/util/delay.h **** 
 103:/usr/lib/avr/include/util/delay.h ****     In terms of the delay functions, the CPU frequency can be given as
 104:/usr/lib/avr/include/util/delay.h ****     a floating-point constant (e.g. 3.6864E6 for 3.6864 MHz).
 105:/usr/lib/avr/include/util/delay.h ****     However, the macros in <util/setbaud.h> require it to be an
 106:/usr/lib/avr/include/util/delay.h ****     integer value.
 107:/usr/lib/avr/include/util/delay.h ****  */
 108:/usr/lib/avr/include/util/delay.h **** # define F_CPU 1000000UL
 109:/usr/lib/avr/include/util/delay.h **** #endif
 110:/usr/lib/avr/include/util/delay.h **** 
 111:/usr/lib/avr/include/util/delay.h **** #ifndef __OPTIMIZE__
 112:/usr/lib/avr/include/util/delay.h **** # warning "Compiler optimizations disabled; functions from <util/delay.h> won't work as designed"
 113:/usr/lib/avr/include/util/delay.h **** #endif
 114:/usr/lib/avr/include/util/delay.h **** 
 115:/usr/lib/avr/include/util/delay.h **** #if __HAS_DELAY_CYCLES && defined(__OPTIMIZE__) && \
 116:/usr/lib/avr/include/util/delay.h ****   !defined(__DELAY_BACKWARD_COMPATIBLE__) &&	   \
 117:/usr/lib/avr/include/util/delay.h ****   __STDC_HOSTED__
 118:/usr/lib/avr/include/util/delay.h **** #  include <math.h>
 119:/usr/lib/avr/include/util/delay.h **** #endif
 120:/usr/lib/avr/include/util/delay.h **** 
 121:/usr/lib/avr/include/util/delay.h **** /**
 122:/usr/lib/avr/include/util/delay.h ****    \ingroup util_delay
 123:/usr/lib/avr/include/util/delay.h **** 
 124:/usr/lib/avr/include/util/delay.h ****    Perform a delay of \c __ms milliseconds, using _delay_loop_2().
 125:/usr/lib/avr/include/util/delay.h **** 
 126:/usr/lib/avr/include/util/delay.h ****    The macro F_CPU is supposed to be defined to a
 127:/usr/lib/avr/include/util/delay.h ****    constant defining the CPU clock frequency (in Hertz).
 128:/usr/lib/avr/include/util/delay.h **** 
 129:/usr/lib/avr/include/util/delay.h ****    The maximal possible delay is 262.14 ms / F_CPU in MHz.
 130:/usr/lib/avr/include/util/delay.h **** 
 131:/usr/lib/avr/include/util/delay.h ****    When the user request delay which exceed the maximum possible one,
 132:/usr/lib/avr/include/util/delay.h ****    _delay_ms() provides a decreased resolution functionality. In this
 133:/usr/lib/avr/include/util/delay.h ****    mode _delay_ms() will work with a resolution of 1/10 ms, providing
 134:/usr/lib/avr/include/util/delay.h ****    delays up to 6.5535 seconds (independent from CPU frequency).  The
 135:/usr/lib/avr/include/util/delay.h ****    user will not be informed about decreased resolution.
 136:/usr/lib/avr/include/util/delay.h **** 
 137:/usr/lib/avr/include/util/delay.h ****    If the avr-gcc toolchain has __builtin_avr_delay_cycles()
 138:/usr/lib/avr/include/util/delay.h ****    support, maximal possible delay is 4294967.295 ms/ F_CPU in MHz. For
 139:/usr/lib/avr/include/util/delay.h ****    values greater than the maximal possible delay, overflows results in
 140:/usr/lib/avr/include/util/delay.h ****    no delay i.e., 0ms.
 141:/usr/lib/avr/include/util/delay.h **** 
 142:/usr/lib/avr/include/util/delay.h ****    Conversion of \c __ms into clock cycles may not always result in
 143:/usr/lib/avr/include/util/delay.h ****    integer.  By default, the clock cycles rounded up to next
 144:/usr/lib/avr/include/util/delay.h ****    integer. This ensures that the user gets at least \c __ms
 145:/usr/lib/avr/include/util/delay.h ****    microseconds of delay.
 146:/usr/lib/avr/include/util/delay.h **** 
 147:/usr/lib/avr/include/util/delay.h ****    Alternatively, by defining the macro \c __DELAY_ROUND_DOWN__, or
 148:/usr/lib/avr/include/util/delay.h ****    \c __DELAY_ROUND_CLOSEST__, before including this header file, the
 149:/usr/lib/avr/include/util/delay.h ****    algorithm can be made to round down, or round to closest integer,
 150:/usr/lib/avr/include/util/delay.h ****    respectively.
 151:/usr/lib/avr/include/util/delay.h **** 
 152:/usr/lib/avr/include/util/delay.h ****    \note
 153:/usr/lib/avr/include/util/delay.h **** 
 154:/usr/lib/avr/include/util/delay.h ****    The implementation of _delay_ms() based on
 155:/usr/lib/avr/include/util/delay.h ****    __builtin_avr_delay_cycles() is not backward compatible with older
 156:/usr/lib/avr/include/util/delay.h ****    implementations.  In order to get functionality backward compatible
 157:/usr/lib/avr/include/util/delay.h ****    with previous versions, the macro \c "__DELAY_BACKWARD_COMPATIBLE__"
 158:/usr/lib/avr/include/util/delay.h ****    must be defined before including this header file. Also, the
 159:/usr/lib/avr/include/util/delay.h ****    backward compatible algorithm will be chosen if the code is
 160:/usr/lib/avr/include/util/delay.h ****    compiled in a <em>freestanding environment</em> (GCC option
 161:/usr/lib/avr/include/util/delay.h ****    \c -ffreestanding), as the math functions required for rounding are
 162:/usr/lib/avr/include/util/delay.h ****    not available to the compiler then.
 163:/usr/lib/avr/include/util/delay.h **** 
 164:/usr/lib/avr/include/util/delay.h ****  */
 165:/usr/lib/avr/include/util/delay.h **** void
 166:/usr/lib/avr/include/util/delay.h **** _delay_ms(double __ms)
 167:/usr/lib/avr/include/util/delay.h **** {
 168:/usr/lib/avr/include/util/delay.h **** 	double __tmp ;
 169:/usr/lib/avr/include/util/delay.h **** #if __HAS_DELAY_CYCLES && defined(__OPTIMIZE__) && \
 170:/usr/lib/avr/include/util/delay.h ****   !defined(__DELAY_BACKWARD_COMPATIBLE__) &&	   \
 171:/usr/lib/avr/include/util/delay.h ****   __STDC_HOSTED__
 172:/usr/lib/avr/include/util/delay.h **** 	uint32_t __ticks_dc;
 173:/usr/lib/avr/include/util/delay.h **** 	extern void __builtin_avr_delay_cycles(unsigned long);
 174:/usr/lib/avr/include/util/delay.h **** 	__tmp = ((F_CPU) / 1e3) * __ms;
 175:/usr/lib/avr/include/util/delay.h **** 
 176:/usr/lib/avr/include/util/delay.h **** 	#if defined(__DELAY_ROUND_DOWN__)
 177:/usr/lib/avr/include/util/delay.h **** 		__ticks_dc = (uint32_t)fabs(__tmp);
 178:/usr/lib/avr/include/util/delay.h **** 
 179:/usr/lib/avr/include/util/delay.h **** 	#elif defined(__DELAY_ROUND_CLOSEST__)
 180:/usr/lib/avr/include/util/delay.h **** 		__ticks_dc = (uint32_t)(fabs(__tmp)+0.5);
 181:/usr/lib/avr/include/util/delay.h **** 
 182:/usr/lib/avr/include/util/delay.h **** 	#else
 183:/usr/lib/avr/include/util/delay.h **** 		//round up by default
 184:/usr/lib/avr/include/util/delay.h **** 		__ticks_dc = (uint32_t)(ceil(fabs(__tmp)));
 185:/usr/lib/avr/include/util/delay.h **** 	#endif
 186:/usr/lib/avr/include/util/delay.h **** 
 187:/usr/lib/avr/include/util/delay.h **** 	__builtin_avr_delay_cycles(__ticks_dc);
 188:/usr/lib/avr/include/util/delay.h **** 
 189:/usr/lib/avr/include/util/delay.h **** #else
 190:/usr/lib/avr/include/util/delay.h **** 	uint16_t __ticks;
 191:/usr/lib/avr/include/util/delay.h **** 	__tmp = ((F_CPU) / 4e3) * __ms;
 192:/usr/lib/avr/include/util/delay.h **** 	if (__tmp < 1.0)
 193:/usr/lib/avr/include/util/delay.h **** 		__ticks = 1;
 194:/usr/lib/avr/include/util/delay.h **** 	else if (__tmp > 65535)
 195:/usr/lib/avr/include/util/delay.h **** 	{
 196:/usr/lib/avr/include/util/delay.h **** 		//	__ticks = requested delay in 1/10 ms
 197:/usr/lib/avr/include/util/delay.h **** 		__ticks = (uint16_t) (__ms * 10.0);
 198:/usr/lib/avr/include/util/delay.h **** 		while(__ticks)
 199:/usr/lib/avr/include/util/delay.h **** 		{
 200:/usr/lib/avr/include/util/delay.h **** 			// wait 1/10 ms
 201:/usr/lib/avr/include/util/delay.h **** 			_delay_loop_2(((F_CPU) / 4e3) / 10);
 202:/usr/lib/avr/include/util/delay.h **** 			__ticks --;
 203:/usr/lib/avr/include/util/delay.h **** 		}
 204:/usr/lib/avr/include/util/delay.h **** 		return;
 205:/usr/lib/avr/include/util/delay.h **** 	}
 206:/usr/lib/avr/include/util/delay.h **** 	else
 207:/usr/lib/avr/include/util/delay.h **** 		__ticks = (uint16_t)__tmp;
 208:/usr/lib/avr/include/util/delay.h **** 	_delay_loop_2(__ticks);
 209:/usr/lib/avr/include/util/delay.h **** #endif
 210:/usr/lib/avr/include/util/delay.h **** }
 211:/usr/lib/avr/include/util/delay.h **** 
 212:/usr/lib/avr/include/util/delay.h **** /**
 213:/usr/lib/avr/include/util/delay.h ****    \ingroup util_delay
 214:/usr/lib/avr/include/util/delay.h **** 
 215:/usr/lib/avr/include/util/delay.h ****    Perform a delay of \c __us microseconds, using _delay_loop_1().
 216:/usr/lib/avr/include/util/delay.h **** 
 217:/usr/lib/avr/include/util/delay.h ****    The macro F_CPU is supposed to be defined to a
 218:/usr/lib/avr/include/util/delay.h ****    constant defining the CPU clock frequency (in Hertz).
 219:/usr/lib/avr/include/util/delay.h **** 
 220:/usr/lib/avr/include/util/delay.h ****    The maximal possible delay is 768 us / F_CPU in MHz.
 221:/usr/lib/avr/include/util/delay.h **** 
 222:/usr/lib/avr/include/util/delay.h ****    If the user requests a delay greater than the maximal possible one,
 223:/usr/lib/avr/include/util/delay.h ****    _delay_us() will automatically call _delay_ms() instead.  The user
 224:/usr/lib/avr/include/util/delay.h ****    will not be informed about this case.
 225:/usr/lib/avr/include/util/delay.h **** 
 226:/usr/lib/avr/include/util/delay.h ****    If the avr-gcc toolchain has __builtin_avr_delay_cycles()
 227:/usr/lib/avr/include/util/delay.h ****    support, maximal possible delay is 4294967.295 us/ F_CPU in MHz. For
 228:/usr/lib/avr/include/util/delay.h ****    values greater than the maximal possible delay, overflow results in
 229:/usr/lib/avr/include/util/delay.h ****    no delay i.e., 0us.
 230:/usr/lib/avr/include/util/delay.h **** 
 231:/usr/lib/avr/include/util/delay.h ****    Conversion of \c __us into clock cycles may not always result in
 232:/usr/lib/avr/include/util/delay.h ****    integer.  By default, the clock cycles rounded up to next
 233:/usr/lib/avr/include/util/delay.h ****    integer. This ensures that the user gets at least \c __us
 234:/usr/lib/avr/include/util/delay.h ****    microseconds of delay.
 235:/usr/lib/avr/include/util/delay.h **** 
 236:/usr/lib/avr/include/util/delay.h ****    Alternatively, by defining the macro \c __DELAY_ROUND_DOWN__, or
 237:/usr/lib/avr/include/util/delay.h ****    \c __DELAY_ROUND_CLOSEST__, before including this header file, the
 238:/usr/lib/avr/include/util/delay.h ****    algorithm can be made to round down, or round to closest integer,
 239:/usr/lib/avr/include/util/delay.h ****    respectively.
 240:/usr/lib/avr/include/util/delay.h **** 
 241:/usr/lib/avr/include/util/delay.h ****    \note
 242:/usr/lib/avr/include/util/delay.h **** 
 243:/usr/lib/avr/include/util/delay.h ****    The implementation of _delay_ms() based on
 244:/usr/lib/avr/include/util/delay.h ****    __builtin_avr_delay_cycles() is not backward compatible with older
 245:/usr/lib/avr/include/util/delay.h ****    implementations.  In order to get functionality backward compatible
 246:/usr/lib/avr/include/util/delay.h ****    with previous versions, the macro \c __DELAY_BACKWARD_COMPATIBLE__
 247:/usr/lib/avr/include/util/delay.h ****    must be defined before including this header file. Also, the
 248:/usr/lib/avr/include/util/delay.h ****    backward compatible algorithm will be chosen if the code is
 249:/usr/lib/avr/include/util/delay.h ****    compiled in a <em>freestanding environment</em> (GCC option
 250:/usr/lib/avr/include/util/delay.h ****    \c -ffreestanding), as the math functions required for rounding are
 251:/usr/lib/avr/include/util/delay.h ****    not available to the compiler then.
 252:/usr/lib/avr/include/util/delay.h **** 
 253:/usr/lib/avr/include/util/delay.h ****  */
 254:/usr/lib/avr/include/util/delay.h **** void
 255:/usr/lib/avr/include/util/delay.h **** _delay_us(double __us)
 256:/usr/lib/avr/include/util/delay.h **** {
 257:/usr/lib/avr/include/util/delay.h **** 	double __tmp ;
 258:/usr/lib/avr/include/util/delay.h **** #if __HAS_DELAY_CYCLES && defined(__OPTIMIZE__) && \
 259:/usr/lib/avr/include/util/delay.h ****   !defined(__DELAY_BACKWARD_COMPATIBLE__) &&	   \
 260:/usr/lib/avr/include/util/delay.h ****   __STDC_HOSTED__
 261:/usr/lib/avr/include/util/delay.h **** 	uint32_t __ticks_dc;
 262:/usr/lib/avr/include/util/delay.h **** 	extern void __builtin_avr_delay_cycles(unsigned long);
 263:/usr/lib/avr/include/util/delay.h **** 	__tmp = ((F_CPU) / 1e6) * __us;
 264:/usr/lib/avr/include/util/delay.h **** 
 265:/usr/lib/avr/include/util/delay.h **** 	#if defined(__DELAY_ROUND_DOWN__)
 266:/usr/lib/avr/include/util/delay.h **** 		__ticks_dc = (uint32_t)fabs(__tmp);
 267:/usr/lib/avr/include/util/delay.h **** 
 268:/usr/lib/avr/include/util/delay.h **** 	#elif defined(__DELAY_ROUND_CLOSEST__)
 269:/usr/lib/avr/include/util/delay.h **** 		__ticks_dc = (uint32_t)(fabs(__tmp)+0.5);
 270:/usr/lib/avr/include/util/delay.h **** 
 271:/usr/lib/avr/include/util/delay.h **** 	#else
 272:/usr/lib/avr/include/util/delay.h **** 		//round up by default
 273:/usr/lib/avr/include/util/delay.h **** 		__ticks_dc = (uint32_t)(ceil(fabs(__tmp)));
 274:/usr/lib/avr/include/util/delay.h **** 	#endif
 275:/usr/lib/avr/include/util/delay.h **** 
 276:/usr/lib/avr/include/util/delay.h **** 	__builtin_avr_delay_cycles(__ticks_dc);
 831               		.stabn	68,0,276,.LM110-.LFBB11
 832               	.LM110:
 833 027a 95E0      		ldi r25,lo8(5)
 834 027c 9A95      	1:	dec r25
 835 027e 01F4      		brne 1b
 836 0280 0000      		nop
 837 0282 28E0      		ldi r18,lo8(8)
 838 0284 30E0      		ldi r19,0
 839               	.L64:
 840               	.LBE116:
 841               	.LBE115:
 842               	.LBB117:
 843               		.stabs	"/home/student/avr_src/SimulIDE_1.0.0-SR1_Lin64/Timer/Timer.c",132,0,0,.Ltext2
 844               	.Ltext2:
 924:/home/student/avr_src/SimulIDE_1.0.0-SR1_Lin64/Timer/Timer.c **** 
 925:/home/student/avr_src/SimulIDE_1.0.0-SR1_Lin64/Timer/Timer.c **** 	_delay_us(1);
 926:/home/student/avr_src/SimulIDE_1.0.0-SR1_Lin64/Timer/Timer.c **** 	for(int i = 0; i <8; i++){
 927:/home/student/avr_src/SimulIDE_1.0.0-SR1_Lin64/Timer/Timer.c **** 		
 928:/home/student/avr_src/SimulIDE_1.0.0-SR1_Lin64/Timer/Timer.c **** 		if(byte & 0x80) AT24Cxx_SDA_HIGH(); //MSB
 845               		.stabn	68,0,928,.LM111-.LFBB11
 846               	.LM111:
 847 0286 87FF      		sbrs r24,7
 848 0288 00C0      		rjmp .L62
 849               		.stabn	68,0,928,.LM112-.LFBB11
 850               	.LM112:
 851 028a 2C9A      		sbi 0x5,4
 852 028c 00C0      		rjmp .L63
 853               	.L62:
 929:/home/student/avr_src/SimulIDE_1.0.0-SR1_Lin64/Timer/Timer.c **** 		else AT24Cxx_SDA_LOW(); //Clear
 854               		.stabn	68,0,929,.LM113-.LFBB11
 855               	.LM113:
 856 028e 2C98      		cbi 0x5,4
 857               	.L63:
 930:/home/student/avr_src/SimulIDE_1.0.0-SR1_Lin64/Timer/Timer.c **** 		
 931:/home/student/avr_src/SimulIDE_1.0.0-SR1_Lin64/Timer/Timer.c **** 		AT24Cxx_SCL_HIGH(); //clock data
 858               		.stabn	68,0,931,.LM114-.LFBB11
 859               	.LM114:
 860 0290 2D9A      		sbi 0x5,5
 932:/home/student/avr_src/SimulIDE_1.0.0-SR1_Lin64/Timer/Timer.c **** 		byte = byte << 1;
 861               		.stabn	68,0,932,.LM115-.LFBB11
 862               	.LM115:
 863 0292 880F      		lsl r24
 864               	.LBB118:
 865               	.LBB119:
 866               		.stabs	"/usr/lib/avr/include/util/delay.h",132,0,0,.Ltext3
 867               	.Ltext3:
 868               		.stabn	68,0,276,.LM116-.LFBB11
 869               	.LM116:
 870 0294 95E0      		ldi r25,lo8(5)
 871 0296 9A95      	1:	dec r25
 872 0298 01F4      		brne 1b
 873 029a 0000      		nop
 874               	.LBE119:
 875               	.LBE118:
 876               		.stabs	"/home/student/avr_src/SimulIDE_1.0.0-SR1_Lin64/Timer/Timer.c",132,0,0,.Ltext4
 877               	.Ltext4:
 933:/home/student/avr_src/SimulIDE_1.0.0-SR1_Lin64/Timer/Timer.c **** 		_delay_us(1);
 934:/home/student/avr_src/SimulIDE_1.0.0-SR1_Lin64/Timer/Timer.c **** 		AT24Cxx_SCL_LOW();
 878               		.stabn	68,0,934,.LM117-.LFBB11
 879               	.LM117:
 880 029c 2D98      		cbi 0x5,5
 881               	.LBB120:
 882               	.LBB121:
 883               		.stabs	"/usr/lib/avr/include/util/delay.h",132,0,0,.Ltext5
 884               	.Ltext5:
 885               		.stabn	68,0,276,.LM118-.LFBB11
 886               	.LM118:
 887 029e 95E0      		ldi r25,lo8(5)
 888 02a0 9A95      	1:	dec r25
 889 02a2 01F4      		brne 1b
 890 02a4 0000      		nop
 891 02a6 2150      		subi r18,1
 892 02a8 3109      		sbc r19,__zero_reg__
 893               	.LBE121:
 894               	.LBE120:
 895               		.stabs	"/home/student/avr_src/SimulIDE_1.0.0-SR1_Lin64/Timer/Timer.c",132,0,0,.Ltext6
 896               	.Ltext6:
 926:/home/student/avr_src/SimulIDE_1.0.0-SR1_Lin64/Timer/Timer.c **** 		
 897               		.stabn	68,0,926,.LM119-.LFBB11
 898               	.LM119:
 899 02aa 01F4      		brne .L64
 900               	.LBE117:
 935:/home/student/avr_src/SimulIDE_1.0.0-SR1_Lin64/Timer/Timer.c **** 		_delay_us(1);
 936:/home/student/avr_src/SimulIDE_1.0.0-SR1_Lin64/Timer/Timer.c **** 		
 937:/home/student/avr_src/SimulIDE_1.0.0-SR1_Lin64/Timer/Timer.c **** 	}
 938:/home/student/avr_src/SimulIDE_1.0.0-SR1_Lin64/Timer/Timer.c **** 	AT24Cxx_SDA_LOW();
 901               		.stabn	68,0,938,.LM120-.LFBB11
 902               	.LM120:
 903 02ac 2C98      		cbi 0x5,4
 904               	.LBB122:
 905               	.LBB123:
 906               		.stabs	"/usr/lib/avr/include/util/delay.h",132,0,0,.Ltext7
 907               	.Ltext7:
 908               		.stabn	68,0,276,.LM121-.LFBB11
 909               	.LM121:
 910 02ae 85E0      		ldi r24,lo8(5)
 911 02b0 8A95      	1:	dec r24
 912 02b2 01F4      		brne 1b
 913 02b4 0000      		nop
 914               	.LBE123:
 915               	.LBE122:
 916               		.stabs	"/home/student/avr_src/SimulIDE_1.0.0-SR1_Lin64/Timer/Timer.c",132,0,0,.Ltext8
 917               	.Ltext8:
 939:/home/student/avr_src/SimulIDE_1.0.0-SR1_Lin64/Timer/Timer.c **** 	_delay_us(1);
 940:/home/student/avr_src/SimulIDE_1.0.0-SR1_Lin64/Timer/Timer.c **** 	AT24Cxx_SCL_HIGH();
 918               		.stabn	68,0,940,.LM122-.LFBB11
 919               	.LM122:
 920 02b6 2D9A      		sbi 0x5,5
 921               	.LBB124:
 922               	.LBB125:
 923               		.stabs	"/usr/lib/avr/include/util/delay.h",132,0,0,.Ltext9
 924               	.Ltext9:
 925               		.stabn	68,0,276,.LM123-.LFBB11
 926               	.LM123:
 927 02b8 95E0      		ldi r25,lo8(5)
 928 02ba 9A95      	1:	dec r25
 929 02bc 01F4      		brne 1b
 930 02be 0000      		nop
 931               	.LBE125:
 932               	.LBE124:
 933               		.stabs	"/home/student/avr_src/SimulIDE_1.0.0-SR1_Lin64/Timer/Timer.c",132,0,0,.Ltext10
 934               	.Ltext10:
 941:/home/student/avr_src/SimulIDE_1.0.0-SR1_Lin64/Timer/Timer.c **** 	_delay_us(1);
 942:/home/student/avr_src/SimulIDE_1.0.0-SR1_Lin64/Timer/Timer.c **** 	AT24Cxx_SCL_LOW();
 935               		.stabn	68,0,942,.LM124-.LFBB11
 936               	.LM124:
 937 02c0 2D98      		cbi 0x5,5
 938 02c2 0895      		ret
 939               		.size	write_AT24Cxx_i2c_LCDAddressing, .-write_AT24Cxx_i2c_LCDAddressing
 940               	.Lscope11:
 941               		.stabs	"",36,0,0,.Lscope11-.LFBB11
 942               		.stabd	78,0,0
 943               		.stabs	"AT24Cxx_i2c_start:F(0,49)",36,0,944,AT24Cxx_i2c_start
 944               	.global	AT24Cxx_i2c_start
 945               		.type	AT24Cxx_i2c_start, @function
 946               	AT24Cxx_i2c_start:
 947               		.stabd	46,0,0
 943:/home/student/avr_src/SimulIDE_1.0.0-SR1_Lin64/Timer/Timer.c **** }
 944:/home/student/avr_src/SimulIDE_1.0.0-SR1_Lin64/Timer/Timer.c **** void AT24Cxx_i2c_start(void) { //start condition
 948               		.stabn	68,0,944,.LM125-.LFBB12
 949               	.LM125:
 950               	.LFBB12:
 951               	/* prologue: function */
 952               	/* frame size = 0 */
 953               	/* stack size = 0 */
 954               	.L__stack_usage = 0
 945:/home/student/avr_src/SimulIDE_1.0.0-SR1_Lin64/Timer/Timer.c **** 
 946:/home/student/avr_src/SimulIDE_1.0.0-SR1_Lin64/Timer/Timer.c **** 	AT24Cxx_SDA_LOW(); //clear SDA
 955               		.stabn	68,0,946,.LM126-.LFBB12
 956               	.LM126:
 957 02c4 2C98      		cbi 0x5,4
 958               	.LBB126:
 959               	.LBB127:
 960               		.stabs	"/usr/lib/avr/include/util/delay.h",132,0,0,.Ltext11
 961               	.Ltext11:
 962               		.stabn	68,0,276,.LM127-.LFBB12
 963               	.LM127:
 964 02c6 85E0      		ldi r24,lo8(5)
 965 02c8 8A95      	1:	dec r24
 966 02ca 01F4      		brne 1b
 967 02cc 0000      		nop
 968               	.LBE127:
 969               	.LBE126:
 970               		.stabs	"/home/student/avr_src/SimulIDE_1.0.0-SR1_Lin64/Timer/Timer.c",132,0,0,.Ltext12
 971               	.Ltext12:
 947:/home/student/avr_src/SimulIDE_1.0.0-SR1_Lin64/Timer/Timer.c **** 	_delay_us(1);
 948:/home/student/avr_src/SimulIDE_1.0.0-SR1_Lin64/Timer/Timer.c **** 	AT24Cxx_SCL_LOW();
 972               		.stabn	68,0,948,.LM128-.LFBB12
 973               	.LM128:
 974 02ce 2D98      		cbi 0x5,5
 975               	.LBB128:
 976               	.LBB129:
 977               		.stabs	"/usr/lib/avr/include/util/delay.h",132,0,0,.Ltext13
 978               	.Ltext13:
 979               		.stabn	68,0,276,.LM129-.LFBB12
 980               	.LM129:
 981 02d0 85E0      		ldi r24,lo8(5)
 982 02d2 8A95      	1:	dec r24
 983 02d4 01F4      		brne 1b
 984 02d6 0000      		nop
 985 02d8 0895      		ret
 986               	.LBE129:
 987               	.LBE128:
 988               		.size	AT24Cxx_i2c_start, .-AT24Cxx_i2c_start
 989               	.Lscope12:
 990               		.stabs	"",36,0,0,.Lscope12-.LFBB12
 991               		.stabd	78,0,0
 992               		.stabs	"AT24Cxx_ACK_send:F(0,49)",36,0,952,AT24Cxx_ACK_send
 993               		.stabs	"ack_data:P(0,13)",64,0,952,24
 994               	.global	AT24Cxx_ACK_send
 995               		.type	AT24Cxx_ACK_send, @function
 996               	AT24Cxx_ACK_send:
 997               		.stabd	46,0,0
 998               		.stabs	"/home/student/avr_src/SimulIDE_1.0.0-SR1_Lin64/Timer/Timer.c",132,0,0,.Ltext14
 999               	.Ltext14:
 949:/home/student/avr_src/SimulIDE_1.0.0-SR1_Lin64/Timer/Timer.c **** 	_delay_us(1);
 950:/home/student/avr_src/SimulIDE_1.0.0-SR1_Lin64/Timer/Timer.c **** }
 951:/home/student/avr_src/SimulIDE_1.0.0-SR1_Lin64/Timer/Timer.c **** 
 952:/home/student/avr_src/SimulIDE_1.0.0-SR1_Lin64/Timer/Timer.c **** void AT24Cxx_ACK_send(unsigned char ack_data){
 1000               		.stabn	68,0,952,.LM130-.LFBB13
 1001               	.LM130:
 1002               	.LFBB13:
 1003               	/* prologue: function */
 1004               	/* frame size = 0 */
 1005               	/* stack size = 0 */
 1006               	.L__stack_usage = 0
 1007               	.LBB130:
 1008               	.LBB131:
 1009               		.stabs	"/usr/lib/avr/include/util/delay.h",132,0,0,.Ltext15
 1010               	.Ltext15:
 1011               		.stabn	68,0,276,.LM131-.LFBB13
 1012               	.LM131:
 1013 02da 95E0      		ldi r25,lo8(5)
 1014 02dc 9A95      	1:	dec r25
 1015 02de 01F4      		brne 1b
 1016 02e0 0000      		nop
 1017               	.LBE131:
 1018               	.LBE130:
 1019               		.stabs	"/home/student/avr_src/SimulIDE_1.0.0-SR1_Lin64/Timer/Timer.c",132,0,0,.Ltext16
 1020               	.Ltext16:
 953:/home/student/avr_src/SimulIDE_1.0.0-SR1_Lin64/Timer/Timer.c **** 	_delay_us(1);
 954:/home/student/avr_src/SimulIDE_1.0.0-SR1_Lin64/Timer/Timer.c **** 	if(ack_data) AT24Cxx_SDA_HIGH(); //NACK
 1021               		.stabn	68,0,954,.LM132-.LFBB13
 1022               	.LM132:
 1023 02e2 8823      		tst r24
 1024 02e4 01F0      		breq .L68
 1025               		.stabn	68,0,954,.LM133-.LFBB13
 1026               	.LM133:
 1027 02e6 2C9A      		sbi 0x5,4
 1028 02e8 00C0      		rjmp .L69
 1029               	.L68:
 955:/home/student/avr_src/SimulIDE_1.0.0-SR1_Lin64/Timer/Timer.c **** 	else AT24Cxx_SDA_LOW(); //ACK
 1030               		.stabn	68,0,955,.LM134-.LFBB13
 1031               	.LM134:
 1032 02ea 2C98      		cbi 0x5,4
 1033               	.L69:
 1034               	.LBB132:
 1035               	.LBB133:
 1036               		.stabs	"/usr/lib/avr/include/util/delay.h",132,0,0,.Ltext17
 1037               	.Ltext17:
 1038               		.stabn	68,0,276,.LM135-.LFBB13
 1039               	.LM135:
 1040 02ec 85E0      		ldi r24,lo8(5)
 1041 02ee 8A95      	1:	dec r24
 1042 02f0 01F4      		brne 1b
 1043 02f2 0000      		nop
 1044               	.LBE133:
 1045               	.LBE132:
 1046               		.stabs	"/home/student/avr_src/SimulIDE_1.0.0-SR1_Lin64/Timer/Timer.c",132,0,0,.Ltext18
 1047               	.Ltext18:
 956:/home/student/avr_src/SimulIDE_1.0.0-SR1_Lin64/Timer/Timer.c **** 	_delay_us(1);
 957:/home/student/avr_src/SimulIDE_1.0.0-SR1_Lin64/Timer/Timer.c **** 	AT24Cxx_SDA_OUT(); //set SDA to Output
 1048               		.stabn	68,0,957,.LM136-.LFBB13
 1049               	.LM136:
 1050 02f4 249A      		sbi 0x4,4
 1051               	.LBB134:
 1052               	.LBB135:
 1053               		.stabs	"/usr/lib/avr/include/util/delay.h",132,0,0,.Ltext19
 1054               	.Ltext19:
 1055               		.stabn	68,0,276,.LM137-.LFBB13
 1056               	.LM137:
 1057 02f6 95E0      		ldi r25,lo8(5)
 1058 02f8 9A95      	1:	dec r25
 1059 02fa 01F4      		brne 1b
 1060 02fc 0000      		nop
 1061               	.LBE135:
 1062               	.LBE134:
 1063               		.stabs	"/home/student/avr_src/SimulIDE_1.0.0-SR1_Lin64/Timer/Timer.c",132,0,0,.Ltext20
 1064               	.Ltext20:
 958:/home/student/avr_src/SimulIDE_1.0.0-SR1_Lin64/Timer/Timer.c **** 	_delay_us(1);
 959:/home/student/avr_src/SimulIDE_1.0.0-SR1_Lin64/Timer/Timer.c **** 	AT24Cxx_SCL_HIGH(); //9th clk rising edge
 1065               		.stabn	68,0,959,.LM138-.LFBB13
 1066               	.LM138:
 1067 02fe 2D9A      		sbi 0x5,5
 1068               	.LBB136:
 1069               	.LBB137:
 1070               		.stabs	"/usr/lib/avr/include/util/delay.h",132,0,0,.Ltext21
 1071               	.Ltext21:
 1072               		.stabn	68,0,276,.LM139-.LFBB13
 1073               	.LM139:
 1074 0300 85E0      		ldi r24,lo8(5)
 1075 0302 8A95      	1:	dec r24
 1076 0304 01F4      		brne 1b
 1077 0306 0000      		nop
 1078               	.LBE137:
 1079               	.LBE136:
 1080               		.stabs	"/home/student/avr_src/SimulIDE_1.0.0-SR1_Lin64/Timer/Timer.c",132,0,0,.Ltext22
 1081               	.Ltext22:
 960:/home/student/avr_src/SimulIDE_1.0.0-SR1_Lin64/Timer/Timer.c **** 	_delay_us(1);
 961:/home/student/avr_src/SimulIDE_1.0.0-SR1_Lin64/Timer/Timer.c **** 	AT24Cxx_SCL_LOW();
 1082               		.stabn	68,0,961,.LM140-.LFBB13
 1083               	.LM140:
 1084 0308 2D98      		cbi 0x5,5
 1085 030a 0895      		ret
 1086               		.size	AT24Cxx_ACK_send, .-AT24Cxx_ACK_send
 1087               	.Lscope13:
 1088               		.stabs	"",36,0,0,.Lscope13-.LFBB13
 1089               		.stabd	78,0,0
 1090               		.stabs	"AT24Cxx_i2c_stop:F(0,49)",36,0,963,AT24Cxx_i2c_stop
 1091               	.global	AT24Cxx_i2c_stop
 1092               		.type	AT24Cxx_i2c_stop, @function
 1093               	AT24Cxx_i2c_stop:
 1094               		.stabd	46,0,0
 962:/home/student/avr_src/SimulIDE_1.0.0-SR1_Lin64/Timer/Timer.c **** }
 963:/home/student/avr_src/SimulIDE_1.0.0-SR1_Lin64/Timer/Timer.c **** void AT24Cxx_i2c_stop(void){
 1095               		.stabn	68,0,963,.LM141-.LFBB14
 1096               	.LM141:
 1097               	.LFBB14:
 1098               	/* prologue: function */
 1099               	/* frame size = 0 */
 1100               	/* stack size = 0 */
 1101               	.L__stack_usage = 0
 964:/home/student/avr_src/SimulIDE_1.0.0-SR1_Lin64/Timer/Timer.c **** 	//AT24Cxx_SDA_OUT(); //set SDA to output
 965:/home/student/avr_src/SimulIDE_1.0.0-SR1_Lin64/Timer/Timer.c **** 	AT24Cxx_SDA_LOW(); //clear SDA
 1102               		.stabn	68,0,965,.LM142-.LFBB14
 1103               	.LM142:
 1104 030c 2C98      		cbi 0x5,4
 1105               	.LBB138:
 1106               	.LBB139:
 1107               		.stabs	"/usr/lib/avr/include/util/delay.h",132,0,0,.Ltext23
 1108               	.Ltext23:
 1109               		.stabn	68,0,276,.LM143-.LFBB14
 1110               	.LM143:
 1111 030e 85E0      		ldi r24,lo8(5)
 1112 0310 8A95      	1:	dec r24
 1113 0312 01F4      		brne 1b
 1114 0314 0000      		nop
 1115               	.LBE139:
 1116               	.LBE138:
 1117               		.stabs	"/home/student/avr_src/SimulIDE_1.0.0-SR1_Lin64/Timer/Timer.c",132,0,0,.Ltext24
 1118               	.Ltext24:
 966:/home/student/avr_src/SimulIDE_1.0.0-SR1_Lin64/Timer/Timer.c **** 	
 967:/home/student/avr_src/SimulIDE_1.0.0-SR1_Lin64/Timer/Timer.c **** 	_delay_us(1);
 968:/home/student/avr_src/SimulIDE_1.0.0-SR1_Lin64/Timer/Timer.c **** 	AT24Cxx_SCL_HIGH(); // set SCL High
 1119               		.stabn	68,0,968,.LM144-.LFBB14
 1120               	.LM144:
 1121 0316 2D9A      		sbi 0x5,5
 1122               	.LBB140:
 1123               	.LBB141:
 1124               		.stabs	"/usr/lib/avr/include/util/delay.h",132,0,0,.Ltext25
 1125               	.Ltext25:
 1126               		.stabn	68,0,276,.LM145-.LFBB14
 1127               	.LM145:
 1128 0318 85E0      		ldi r24,lo8(5)
 1129 031a 8A95      	1:	dec r24
 1130 031c 01F4      		brne 1b
 1131 031e 0000      		nop
 1132               	.LBE141:
 1133               	.LBE140:
 1134               		.stabs	"/home/student/avr_src/SimulIDE_1.0.0-SR1_Lin64/Timer/Timer.c",132,0,0,.Ltext26
 1135               	.Ltext26:
 969:/home/student/avr_src/SimulIDE_1.0.0-SR1_Lin64/Timer/Timer.c **** 	_delay_us(1);
 970:/home/student/avr_src/SimulIDE_1.0.0-SR1_Lin64/Timer/Timer.c **** 	AT24Cxx_SDA_HIGH(); // set SDA High
 1136               		.stabn	68,0,970,.LM146-.LFBB14
 1137               	.LM146:
 1138 0320 2C9A      		sbi 0x5,4
 1139 0322 0895      		ret
 1140               		.size	AT24Cxx_i2c_stop, .-AT24Cxx_i2c_stop
 1141               	.Lscope14:
 1142               		.stabs	"",36,0,0,.Lscope14-.LFBB14
 1143               		.stabd	78,0,0
 1144               		.stabs	"write_AT24Cxx_i2c_byte:F(0,49)",36,0,972,write_AT24Cxx_i2c_byte
 1145               		.stabs	"byte:P(0,13)",64,0,972,24
 1146               	.global	write_AT24Cxx_i2c_byte
 1147               		.type	write_AT24Cxx_i2c_byte, @function
 1148               	write_AT24Cxx_i2c_byte:
 1149               		.stabd	46,0,0
 971:/home/student/avr_src/SimulIDE_1.0.0-SR1_Lin64/Timer/Timer.c **** }
 972:/home/student/avr_src/SimulIDE_1.0.0-SR1_Lin64/Timer/Timer.c **** void write_AT24Cxx_i2c_byte(unsigned char byte){
 1150               		.stabn	68,0,972,.LM147-.LFBB15
 1151               	.LM147:
 1152               	.LFBB15:
 1153               	/* prologue: function */
 1154               	/* frame size = 0 */
 1155               	/* stack size = 0 */
 1156               	.L__stack_usage = 0
 1157               	.LBB142:
 1158               	.LBB143:
 1159               		.stabs	"/usr/lib/avr/include/util/delay.h",132,0,0,.Ltext27
 1160               	.Ltext27:
 1161               		.stabn	68,0,276,.LM148-.LFBB15
 1162               	.LM148:
 1163 0324 95E0      		ldi r25,lo8(5)
 1164 0326 9A95      	1:	dec r25
 1165 0328 01F4      		brne 1b
 1166 032a 0000      		nop
 1167               	.LBE143:
 1168               	.LBE142:
 1169               		.stabs	"/home/student/avr_src/SimulIDE_1.0.0-SR1_Lin64/Timer/Timer.c",132,0,0,.Ltext28
 1170               	.Ltext28:
 973:/home/student/avr_src/SimulIDE_1.0.0-SR1_Lin64/Timer/Timer.c **** 	_delay_us(1);
 974:/home/student/avr_src/SimulIDE_1.0.0-SR1_Lin64/Timer/Timer.c **** 	if(!(byte & E_BIT)) byte |= E_BIT;
 1171               		.stabn	68,0,974,.LM149-.LFBB15
 1172               	.LM149:
 1173 032c 8460      		ori r24,lo8(4)
 975:/home/student/avr_src/SimulIDE_1.0.0-SR1_Lin64/Timer/Timer.c **** 	if(!(byte & B_BIT)) byte |= B_BIT;
 1174               		.stabn	68,0,975,.LM150-.LFBB15
 1175               	.LM150:
 1176 032e 8860      		ori r24,lo8(8)
 976:/home/student/avr_src/SimulIDE_1.0.0-SR1_Lin64/Timer/Timer.c **** 	write_AT24Cxx_i2c_LCDAddressing(byte);
 1177               		.stabn	68,0,976,.LM151-.LFBB15
 1178               	.LM151:
 1179 0330 0C94 0000 		jmp write_AT24Cxx_i2c_LCDAddressing
 1180               		.size	write_AT24Cxx_i2c_byte, .-write_AT24Cxx_i2c_byte
 1181               	.Lscope15:
 1182               		.stabs	"",36,0,0,.Lscope15-.LFBB15
 1183               		.stabd	78,0,0
 1184               		.stabs	"LCD_Write:F(0,49)",36,0,878,LCD_Write
 1185               		.stabs	"data:P(0,13)",64,0,878,24
 1186               	.global	LCD_Write
 1187               		.type	LCD_Write, @function
 1188               	LCD_Write:
 1189               		.stabd	46,0,0
 878:/home/student/avr_src/SimulIDE_1.0.0-SR1_Lin64/Timer/Timer.c **** 	
 1190               		.stabn	68,0,878,.LM152-.LFBB16
 1191               	.LM152:
 1192               	.LFBB16:
 1193               	/* prologue: function */
 1194               	/* frame size = 0 */
 1195               	/* stack size = 0 */
 1196               	.L__stack_usage = 0
 1197               	.LBB144:
 1198               	.LBB145:
 1199               		.stabs	"/usr/lib/avr/include/util/delay.h",132,0,0,.Ltext29
 1200               	.Ltext29:
 1201               		.stabn	68,0,276,.LM153-.LFBB16
 1202               	.LM153:
 1203 0334 95E0      		ldi r25,lo8(5)
 1204 0336 9A95      	1:	dec r25
 1205 0338 01F4      		brne 1b
 1206 033a 0000      		nop
 1207               	.LBE145:
 1208               	.LBE144:
 1209               		.stabs	"/home/student/avr_src/SimulIDE_1.0.0-SR1_Lin64/Timer/Timer.c",132,0,0,.Ltext30
 1210               	.Ltext30:
 884:/home/student/avr_src/SimulIDE_1.0.0-SR1_Lin64/Timer/Timer.c **** 
 1211               		.stabn	68,0,884,.LM154-.LFBB16
 1212               	.LM154:
 1213 033c 0C94 0000 		jmp write_AT24Cxx_i2c_byte
 1214               		.size	LCD_Write, .-LCD_Write
 1215               	.Lscope16:
 1216               		.stabs	"",36,0,0,.Lscope16-.LFBB16
 1217               		.stabd	78,0,0
 1218               		.stabs	"I2C_LCD_init:F(0,49)",36,0,344,I2C_LCD_init
 1219               		.stabs	"address:P(0,13)",64,0,344,28
 1220               	.global	I2C_LCD_init
 1221               		.type	I2C_LCD_init, @function
 1222               	I2C_LCD_init:
 1223               		.stabd	46,0,0
 344:/home/student/avr_src/SimulIDE_1.0.0-SR1_Lin64/Timer/Timer.c **** 	cli();
 1224               		.stabn	68,0,344,.LM155-.LFBB17
 1225               	.LM155:
 1226               	.LFBB17:
 1227 0340 CF93      		push r28
 1228               	/* prologue: function */
 1229               	/* frame size = 0 */
 1230               	/* stack size = 1 */
 1231               	.L__stack_usage = 1
 1232 0342 C82F      		mov r28,r24
 345:/home/student/avr_src/SimulIDE_1.0.0-SR1_Lin64/Timer/Timer.c **** 
 1233               		.stabn	68,0,345,.LM156-.LFBB17
 1234               	.LM156:
 1235               	/* #APP */
 1236               	 ;  345 "/home/student/avr_src/SimulIDE_1.0.0-SR1_Lin64/Timer/Timer.c" 1
 1237 0344 F894      		cli
 1238               	 ;  0 "" 2
 1239               	/* #NOAPP */
 1240               	.LBB146:
 1241               	.LBB147:
 1242               		.stabs	"/usr/lib/avr/include/util/delay.h",132,0,0,.Ltext31
 1243               	.Ltext31:
 187:/usr/lib/avr/include/util/delay.h **** 
 1244               		.stabn	68,0,187,.LM157-.LFBB17
 1245               	.LM157:
 1246 0346 2FEF      		ldi r18,lo8(57599)
 1247 0348 80EE      		ldi r24,hi8(57599)
 1248 034a 90E0      		ldi r25,hlo8(57599)
 1249 034c 2150      	1:	subi r18,1
 1250 034e 8040      		sbci r24,0
 1251 0350 9040      		sbci r25,0
 1252 0352 01F4      		brne 1b
 1253 0354 00C0      		rjmp .
 1254 0356 0000      		nop
 1255               	.LBE147:
 1256               	.LBE146:
 1257               		.stabs	"/home/student/avr_src/SimulIDE_1.0.0-SR1_Lin64/Timer/Timer.c",132,0,0,.Ltext32
 1258               	.Ltext32:
 348:/home/student/avr_src/SimulIDE_1.0.0-SR1_Lin64/Timer/Timer.c **** 	write_AT24Cxx_i2c_LCDAddressing(address  << 1); //write mode
 1259               		.stabn	68,0,348,.LM158-.LFBB17
 1260               	.LM158:
 1261 0358 0E94 0000 		call AT24Cxx_i2c_start
 349:/home/student/avr_src/SimulIDE_1.0.0-SR1_Lin64/Timer/Timer.c **** 	LCD_Write(0x20);
 1262               		.stabn	68,0,349,.LM159-.LFBB17
 1263               	.LM159:
 1264 035c 8C2F      		mov r24,r28
 1265 035e 880F      		lsl r24
 1266 0360 0E94 0000 		call write_AT24Cxx_i2c_LCDAddressing
 350:/home/student/avr_src/SimulIDE_1.0.0-SR1_Lin64/Timer/Timer.c **** 
 1267               		.stabn	68,0,350,.LM160-.LFBB17
 1268               	.LM160:
 1269 0364 80E2      		ldi r24,lo8(32)
 1270 0366 0E94 0000 		call LCD_Write
 1271               	.LBB148:
 1272               	.LBB149:
 1273               		.stabs	"/usr/lib/avr/include/util/delay.h",132,0,0,.Ltext33
 1274               	.Ltext33:
 187:/usr/lib/avr/include/util/delay.h **** 
 1275               		.stabn	68,0,187,.LM161-.LFBB17
 1276               	.LM161:
 1277 036a 8FE3      		ldi r24,lo8(7999)
 1278 036c 9FE1      		ldi r25,hi8(7999)
 1279 036e 0197      	1:	sbiw r24,1
 1280 0370 01F4      		brne 1b
 1281 0372 00C0      		rjmp .
 1282 0374 0000      		nop
 1283               	.LBE149:
 1284               	.LBE148:
 1285               		.stabs	"/home/student/avr_src/SimulIDE_1.0.0-SR1_Lin64/Timer/Timer.c",132,0,0,.Ltext34
 1286               	.Ltext34:
 354:/home/student/avr_src/SimulIDE_1.0.0-SR1_Lin64/Timer/Timer.c **** 	_delay_ms(2);
 1287               		.stabn	68,0,354,.LM162-.LFBB17
 1288               	.LM162:
 1289 0376 80E2      		ldi r24,lo8(32)
 1290 0378 0E94 0000 		call write_AT24Cxx_i2c_LCDAddressing
 1291               	.LBB150:
 1292               	.LBB151:
 1293               		.stabs	"/usr/lib/avr/include/util/delay.h",132,0,0,.Ltext35
 1294               	.Ltext35:
 187:/usr/lib/avr/include/util/delay.h **** 
 1295               		.stabn	68,0,187,.LM163-.LFBB17
 1296               	.LM163:
 1297 037c 8FE3      		ldi r24,lo8(7999)
 1298 037e 9FE1      		ldi r25,hi8(7999)
 1299 0380 0197      	1:	sbiw r24,1
 1300 0382 01F4      		brne 1b
 1301 0384 00C0      		rjmp .
 1302 0386 0000      		nop
 1303               	.LBE151:
 1304               	.LBE150:
 1305               		.stabs	"/home/student/avr_src/SimulIDE_1.0.0-SR1_Lin64/Timer/Timer.c",132,0,0,.Ltext36
 1306               	.Ltext36:
 357:/home/student/avr_src/SimulIDE_1.0.0-SR1_Lin64/Timer/Timer.c **** 	LCD_Write(0x00);
 1307               		.stabn	68,0,357,.LM164-.LFBB17
 1308               	.LM164:
 1309 0388 80E3      		ldi r24,lo8(48)
 1310 038a 0E94 0000 		call write_AT24Cxx_i2c_LCDAddressing
 358:/home/student/avr_src/SimulIDE_1.0.0-SR1_Lin64/Timer/Timer.c **** 	_delay_us(38);
 1311               		.stabn	68,0,358,.LM165-.LFBB17
 1312               	.LM165:
 1313 038e 80E0      		ldi r24,0
 1314 0390 0E94 0000 		call LCD_Write
 1315               	.LBB152:
 1316               	.LBB153:
 1317               		.stabs	"/usr/lib/avr/include/util/delay.h",132,0,0,.Ltext37
 1318               	.Ltext37:
 1319               		.stabn	68,0,276,.LM166-.LFBB17
 1320               	.LM166:
 1321 0394 9AEC      		ldi r25,lo8(-54)
 1322 0396 9A95      	1:	dec r25
 1323 0398 01F4      		brne 1b
 1324 039a 00C0      		rjmp .
 1325               	.LBE153:
 1326               	.LBE152:
 1327               		.stabs	"/home/student/avr_src/SimulIDE_1.0.0-SR1_Lin64/Timer/Timer.c",132,0,0,.Ltext38
 1328               	.Ltext38:
 361:/home/student/avr_src/SimulIDE_1.0.0-SR1_Lin64/Timer/Timer.c **** 	write_AT24Cxx_i2c_LCDAddressing(0x00);
 1329               		.stabn	68,0,361,.LM167-.LFBB17
 1330               	.LM167:
 1331 039c 80E0      		ldi r24,0
 1332 039e 0E94 0000 		call LCD_Write
 362:/home/student/avr_src/SimulIDE_1.0.0-SR1_Lin64/Timer/Timer.c ****     _delay_us(38);
 1333               		.stabn	68,0,362,.LM168-.LFBB17
 1334               	.LM168:
 1335 03a2 80E0      		ldi r24,0
 1336 03a4 0E94 0000 		call write_AT24Cxx_i2c_LCDAddressing
 1337               	.LBB154:
 1338               	.LBB155:
 1339               		.stabs	"/usr/lib/avr/include/util/delay.h",132,0,0,.Ltext39
 1340               	.Ltext39:
 1341               		.stabn	68,0,276,.LM169-.LFBB17
 1342               	.LM169:
 1343 03a8 2AEC      		ldi r18,lo8(-54)
 1344 03aa 2A95      	1:	dec r18
 1345 03ac 01F4      		brne 1b
 1346 03ae 00C0      		rjmp .
 1347               	.LBE155:
 1348               	.LBE154:
 1349               		.stabs	"/home/student/avr_src/SimulIDE_1.0.0-SR1_Lin64/Timer/Timer.c",132,0,0,.Ltext40
 1350               	.Ltext40:
 365:/home/student/avr_src/SimulIDE_1.0.0-SR1_Lin64/Timer/Timer.c **** 	write_AT24Cxx_i2c_LCDAddressing(0xE0);
 1351               		.stabn	68,0,365,.LM170-.LFBB17
 1352               	.LM170:
 1353 03b0 80EE      		ldi r24,lo8(-32)
 1354 03b2 0E94 0000 		call LCD_Write
 366:/home/student/avr_src/SimulIDE_1.0.0-SR1_Lin64/Timer/Timer.c **** 	_delay_us(38);
 1355               		.stabn	68,0,366,.LM171-.LFBB17
 1356               	.LM171:
 1357 03b6 80EE      		ldi r24,lo8(-32)
 1358 03b8 0E94 0000 		call write_AT24Cxx_i2c_LCDAddressing
 1359               	.LBB156:
 1360               	.LBB157:
 1361               		.stabs	"/usr/lib/avr/include/util/delay.h",132,0,0,.Ltext41
 1362               	.Ltext41:
 1363               		.stabn	68,0,276,.LM172-.LFBB17
 1364               	.LM172:
 1365 03bc 8AEC      		ldi r24,lo8(-54)
 1366 03be 8A95      	1:	dec r24
 1367 03c0 01F4      		brne 1b
 1368 03c2 00C0      		rjmp .
 1369               	.LBE157:
 1370               	.LBE156:
 1371               		.stabs	"/home/student/avr_src/SimulIDE_1.0.0-SR1_Lin64/Timer/Timer.c",132,0,0,.Ltext42
 1372               	.Ltext42:
 369:/home/student/avr_src/SimulIDE_1.0.0-SR1_Lin64/Timer/Timer.c **** 	write_AT24Cxx_i2c_LCDAddressing(0x00);
 1373               		.stabn	68,0,369,.LM173-.LFBB17
 1374               	.LM173:
 1375 03c4 80E0      		ldi r24,0
 1376 03c6 0E94 0000 		call LCD_Write
 370:/home/student/avr_src/SimulIDE_1.0.0-SR1_Lin64/Timer/Timer.c **** 	_delay_us(38);
 1377               		.stabn	68,0,370,.LM174-.LFBB17
 1378               	.LM174:
 1379 03ca 80E0      		ldi r24,0
 1380 03cc 0E94 0000 		call write_AT24Cxx_i2c_LCDAddressing
 1381               	.LBB158:
 1382               	.LBB159:
 1383               		.stabs	"/usr/lib/avr/include/util/delay.h",132,0,0,.Ltext43
 1384               	.Ltext43:
 1385               		.stabn	68,0,276,.LM175-.LFBB17
 1386               	.LM175:
 1387 03d0 9AEC      		ldi r25,lo8(-54)
 1388 03d2 9A95      	1:	dec r25
 1389 03d4 01F4      		brne 1b
 1390 03d6 00C0      		rjmp .
 1391               	.LBE159:
 1392               	.LBE158:
 1393               		.stabs	"/home/student/avr_src/SimulIDE_1.0.0-SR1_Lin64/Timer/Timer.c",132,0,0,.Ltext44
 1394               	.Ltext44:
 373:/home/student/avr_src/SimulIDE_1.0.0-SR1_Lin64/Timer/Timer.c **** 	write_AT24Cxx_i2c_LCDAddressing(0x60);
 1395               		.stabn	68,0,373,.LM176-.LFBB17
 1396               	.LM176:
 1397 03d8 80E6      		ldi r24,lo8(96)
 1398 03da 0E94 0000 		call LCD_Write
 374:/home/student/avr_src/SimulIDE_1.0.0-SR1_Lin64/Timer/Timer.c **** 	_delay_us(38);
 1399               		.stabn	68,0,374,.LM177-.LFBB17
 1400               	.LM177:
 1401 03de 80E6      		ldi r24,lo8(96)
 1402 03e0 0E94 0000 		call write_AT24Cxx_i2c_LCDAddressing
 1403               	.LBB160:
 1404               	.LBB161:
 1405               		.stabs	"/usr/lib/avr/include/util/delay.h",132,0,0,.Ltext45
 1406               	.Ltext45:
 1407               		.stabn	68,0,276,.LM178-.LFBB17
 1408               	.LM178:
 1409 03e4 2AEC      		ldi r18,lo8(-54)
 1410 03e6 2A95      	1:	dec r18
 1411 03e8 01F4      		brne 1b
 1412 03ea 00C0      		rjmp .
 1413               	.LBE161:
 1414               	.LBE160:
 1415               		.stabs	"/home/student/avr_src/SimulIDE_1.0.0-SR1_Lin64/Timer/Timer.c",132,0,0,.Ltext46
 1416               	.Ltext46:
 377:/home/student/avr_src/SimulIDE_1.0.0-SR1_Lin64/Timer/Timer.c ****     _delay_us(40);
 1417               		.stabn	68,0,377,.LM179-.LFBB17
 1418               	.LM179:
 1419 03ec 0E94 0000 		call AT24Cxx_i2c_stop
 1420               	.LBB162:
 1421               	.LBB163:
 1422               		.stabs	"/usr/lib/avr/include/util/delay.h",132,0,0,.Ltext47
 1423               	.Ltext47:
 1424               		.stabn	68,0,276,.LM180-.LFBB17
 1425               	.LM180:
 1426 03f0 85ED      		ldi r24,lo8(-43)
 1427 03f2 8A95      	1:	dec r24
 1428 03f4 01F4      		brne 1b
 1429 03f6 0000      		nop
 1430               	.LBE163:
 1431               	.LBE162:
 1432               		.stabs	"/home/student/avr_src/SimulIDE_1.0.0-SR1_Lin64/Timer/Timer.c",132,0,0,.Ltext48
 1433               	.Ltext48:
 379:/home/student/avr_src/SimulIDE_1.0.0-SR1_Lin64/Timer/Timer.c **** 	
 1434               		.stabn	68,0,379,.LM181-.LFBB17
 1435               	.LM181:
 1436               	/* #APP */
 1437               	 ;  379 "/home/student/avr_src/SimulIDE_1.0.0-SR1_Lin64/Timer/Timer.c" 1
 1438 03f8 7894      		sei
 1439               	 ;  0 "" 2
 1440               	/* epilogue start */
 381:/home/student/avr_src/SimulIDE_1.0.0-SR1_Lin64/Timer/Timer.c **** //====================================================
 1441               		.stabn	68,0,381,.LM182-.LFBB17
 1442               	.LM182:
 1443               	/* #NOAPP */
 1444 03fa CF91      		pop r28
 1445 03fc 0895      		ret
 1446               		.size	I2C_LCD_init, .-I2C_LCD_init
 1447               	.Lscope17:
 1448               		.stabs	"",36,0,0,.Lscope17-.LFBB17
 1449               		.stabd	78,0,0
 1450               		.stabs	"LCD_CharWrite:F(0,49)",36,0,888,LCD_CharWrite
 1451               	.global	LCD_CharWrite
 1452               		.type	LCD_CharWrite, @function
 1453               	LCD_CharWrite:
 1454               		.stabd	46,0,0
 888:/home/student/avr_src/SimulIDE_1.0.0-SR1_Lin64/Timer/Timer.c **** 	
 1455               		.stabn	68,0,888,.LM183-.LFBB18
 1456               	.LM183:
 1457               	.LFBB18:
 1458 03fe CF93      		push r28
 1459 0400 DF93      		push r29
 1460               	/* prologue: function */
 1461               	/* frame size = 0 */
 1462               	/* stack size = 2 */
 1463               	.L__stack_usage = 2
 1464 0402 EC01      		movw r28,r24
 890:/home/student/avr_src/SimulIDE_1.0.0-SR1_Lin64/Timer/Timer.c **** 
 1465               		.stabn	68,0,890,.LM184-.LFBB18
 1466               	.LM184:
 1467               	/* #APP */
 1468               	 ;  890 "/home/student/avr_src/SimulIDE_1.0.0-SR1_Lin64/Timer/Timer.c" 1
 1469 0404 F894      		cli
 1470               	 ;  0 "" 2
 892:/home/student/avr_src/SimulIDE_1.0.0-SR1_Lin64/Timer/Timer.c **** 	write_AT24Cxx_i2c_LCDAddressing((I2CLCD_ADDR << 1)); 
 1471               		.stabn	68,0,892,.LM185-.LFBB18
 1472               	.LM185:
 1473               	/* #NOAPP */
 1474 0406 0E94 0000 		call AT24Cxx_i2c_start
 893:/home/student/avr_src/SimulIDE_1.0.0-SR1_Lin64/Timer/Timer.c **** 	unsigned char upperbits = byte>>8 & 0xFF;
 1475               		.stabn	68,0,893,.LM186-.LFBB18
 1476               	.LM186:
 1477 040a 8EE4      		ldi r24,lo8(78)
 1478 040c 0E94 0000 		call write_AT24Cxx_i2c_LCDAddressing
 1479               	.LBB164:
 1480               	.LBB165:
 977:/home/student/avr_src/SimulIDE_1.0.0-SR1_Lin64/Timer/Timer.c **** 
 978:/home/student/avr_src/SimulIDE_1.0.0-SR1_Lin64/Timer/Timer.c **** }
 979:/home/student/avr_src/SimulIDE_1.0.0-SR1_Lin64/Timer/Timer.c **** void LCD_NEBIT(unsigned char byte){
 980:/home/student/avr_src/SimulIDE_1.0.0-SR1_Lin64/Timer/Timer.c **** 	write_AT24Cxx_i2c_LCDAddressing(byte);
 1481               		.stabn	68,0,980,.LM187-.LFBB18
 1482               	.LM187:
 1483 0410 8D2F      		mov r24,r29
 1484 0412 0E94 0000 		call write_AT24Cxx_i2c_LCDAddressing
 1485               	.LBE165:
 1486               	.LBE164:
 897:/home/student/avr_src/SimulIDE_1.0.0-SR1_Lin64/Timer/Timer.c **** 	LCD_NEBIT(lowerbits);
 1487               		.stabn	68,0,897,.LM188-.LFBB18
 1488               	.LM188:
 1489 0416 8D2F      		mov r24,r29
 1490 0418 0E94 0000 		call write_AT24Cxx_i2c_byte
 1491               	.LBB166:
 1492               	.LBB167:
 1493               		.stabn	68,0,980,.LM189-.LFBB18
 1494               	.LM189:
 1495 041c 8C2F      		mov r24,r28
 1496 041e 0E94 0000 		call write_AT24Cxx_i2c_LCDAddressing
 1497               	.LBE167:
 1498               	.LBE166:
 899:/home/student/avr_src/SimulIDE_1.0.0-SR1_Lin64/Timer/Timer.c **** 	AT24Cxx_i2c_stop();
 1499               		.stabn	68,0,899,.LM190-.LFBB18
 1500               	.LM190:
 1501 0422 8C2F      		mov r24,r28
 1502 0424 0E94 0000 		call write_AT24Cxx_i2c_byte
 900:/home/student/avr_src/SimulIDE_1.0.0-SR1_Lin64/Timer/Timer.c **** 	sei();
 1503               		.stabn	68,0,900,.LM191-.LFBB18
 1504               	.LM191:
 1505 0428 0E94 0000 		call AT24Cxx_i2c_stop
 901:/home/student/avr_src/SimulIDE_1.0.0-SR1_Lin64/Timer/Timer.c **** }
 1506               		.stabn	68,0,901,.LM192-.LFBB18
 1507               	.LM192:
 1508               	/* #APP */
 1509               	 ;  901 "/home/student/avr_src/SimulIDE_1.0.0-SR1_Lin64/Timer/Timer.c" 1
 1510 042c 7894      		sei
 1511               	 ;  0 "" 2
 1512               	/* epilogue start */
 902:/home/student/avr_src/SimulIDE_1.0.0-SR1_Lin64/Timer/Timer.c **** 
 1513               		.stabn	68,0,902,.LM193-.LFBB18
 1514               	.LM193:
 1515               	/* #NOAPP */
 1516 042e DF91      		pop r29
 1517 0430 CF91      		pop r28
 1518 0432 0895      		ret
 1519               		.size	LCD_CharWrite, .-LCD_CharWrite
 1520               	.Lscope18:
 1521               		.stabs	"",36,0,0,.Lscope18-.LFBB18
 1522               		.stabd	78,0,0
 1523               		.stabs	"I2C_LCD_Erase:F(0,49)",36,0,308,I2C_LCD_Erase
 1524               	.global	I2C_LCD_Erase
 1525               		.type	I2C_LCD_Erase, @function
 1526               	I2C_LCD_Erase:
 1527               		.stabd	46,0,0
 308:/home/student/avr_src/SimulIDE_1.0.0-SR1_Lin64/Timer/Timer.c **** 	LCD_CharWrite(0x0040);
 1528               		.stabn	68,0,308,.LM194-.LFBB19
 1529               	.LM194:
 1530               	.LFBB19:
 1531               	/* prologue: function */
 1532               	/* frame size = 0 */
 1533               	/* stack size = 0 */
 1534               	.L__stack_usage = 0
 309:/home/student/avr_src/SimulIDE_1.0.0-SR1_Lin64/Timer/Timer.c **** 	LCD_CharWrite(0xA101);
 1535               		.stabn	68,0,309,.LM195-.LFBB19
 1536               	.LM195:
 1537 0434 80E4      		ldi r24,lo8(64)
 1538 0436 90E0      		ldi r25,0
 1539 0438 0E94 0000 		call LCD_CharWrite
 310:/home/student/avr_src/SimulIDE_1.0.0-SR1_Lin64/Timer/Timer.c ****     LCD_CharWrite(0x0040);
 1540               		.stabn	68,0,310,.LM196-.LFBB19
 1541               	.LM196:
 1542 043c 81E0      		ldi r24,lo8(1)
 1543 043e 91EA      		ldi r25,lo8(-95)
 1544 0440 0E94 0000 		call LCD_CharWrite
 311:/home/student/avr_src/SimulIDE_1.0.0-SR1_Lin64/Timer/Timer.c ****     LCD_CharWrite(0xA101);
 1545               		.stabn	68,0,311,.LM197-.LFBB19
 1546               	.LM197:
 1547 0444 80E4      		ldi r24,lo8(64)
 1548 0446 90E0      		ldi r25,0
 1549 0448 0E94 0000 		call LCD_CharWrite
 312:/home/student/avr_src/SimulIDE_1.0.0-SR1_Lin64/Timer/Timer.c ****     LCD_CharWrite(0x0060);
 1550               		.stabn	68,0,312,.LM198-.LFBB19
 1551               	.LM198:
 1552 044c 81E0      		ldi r24,lo8(1)
 1553 044e 91EA      		ldi r25,lo8(-95)
 1554 0450 0E94 0000 		call LCD_CharWrite
 313:/home/student/avr_src/SimulIDE_1.0.0-SR1_Lin64/Timer/Timer.c **** }
 1555               		.stabn	68,0,313,.LM199-.LFBB19
 1556               	.LM199:
 1557 0454 80E6      		ldi r24,lo8(96)
 1558 0456 90E0      		ldi r25,0
 1559 0458 0C94 0000 		jmp LCD_CharWrite
 1560               		.size	I2C_LCD_Erase, .-I2C_LCD_Erase
 1561               	.Lscope19:
 1562               		.stabs	"",36,0,0,.Lscope19-.LFBB19
 1563               		.stabd	78,0,0
 1564               		.stabs	"I2C_LCD_Reset:F(0,49)",36,0,316,I2C_LCD_Reset
 1565               	.global	I2C_LCD_Reset
 1566               		.type	I2C_LCD_Reset, @function
 1567               	I2C_LCD_Reset:
 1568               		.stabd	46,0,0
 316:/home/student/avr_src/SimulIDE_1.0.0-SR1_Lin64/Timer/Timer.c **** 	cli();
 1569               		.stabn	68,0,316,.LM200-.LFBB20
 1570               	.LM200:
 1571               	.LFBB20:
 1572               	/* prologue: function */
 1573               	/* frame size = 0 */
 1574               	/* stack size = 0 */
 1575               	.L__stack_usage = 0
 317:/home/student/avr_src/SimulIDE_1.0.0-SR1_Lin64/Timer/Timer.c ****     LCD_CharWrite(0x0010);
 1576               		.stabn	68,0,317,.LM201-.LFBB20
 1577               	.LM201:
 1578               	/* #APP */
 1579               	 ;  317 "/home/student/avr_src/SimulIDE_1.0.0-SR1_Lin64/Timer/Timer.c" 1
 1580 045c F894      		cli
 1581               	 ;  0 "" 2
 318:/home/student/avr_src/SimulIDE_1.0.0-SR1_Lin64/Timer/Timer.c **** 	_delay_us(38);
 1582               		.stabn	68,0,318,.LM202-.LFBB20
 1583               	.LM202:
 1584               	/* #NOAPP */
 1585 045e 80E1      		ldi r24,lo8(16)
 1586 0460 90E0      		ldi r25,0
 1587 0462 0E94 0000 		call LCD_CharWrite
 1588               	.LBB168:
 1589               	.LBB169:
 1590               		.stabs	"/usr/lib/avr/include/util/delay.h",132,0,0,.Ltext49
 1591               	.Ltext49:
 1592               		.stabn	68,0,276,.LM203-.LFBB20
 1593               	.LM203:
 1594 0466 8AEC      		ldi r24,lo8(-54)
 1595 0468 8A95      	1:	dec r24
 1596 046a 01F4      		brne 1b
 1597 046c 00C0      		rjmp .
 1598               	.LBE169:
 1599               	.LBE168:
 1600               		.stabs	"/home/student/avr_src/SimulIDE_1.0.0-SR1_Lin64/Timer/Timer.c",132,0,0,.Ltext50
 1601               	.Ltext50:
 320:/home/student/avr_src/SimulIDE_1.0.0-SR1_Lin64/Timer/Timer.c **** 	_delay_us(38);
 1602               		.stabn	68,0,320,.LM204-.LFBB20
 1603               	.LM204:
 1604 046e 80E1      		ldi r24,lo8(16)
 1605 0470 90E0      		ldi r25,0
 1606 0472 0E94 0000 		call LCD_CharWrite
 1607               	.LBB170:
 1608               	.LBB171:
 1609               		.stabs	"/usr/lib/avr/include/util/delay.h",132,0,0,.Ltext51
 1610               	.Ltext51:
 1611               		.stabn	68,0,276,.LM205-.LFBB20
 1612               	.LM205:
 1613 0476 8AEC      		ldi r24,lo8(-54)
 1614 0478 8A95      	1:	dec r24
 1615 047a 01F4      		brne 1b
 1616 047c 00C0      		rjmp .
 1617               	.LBE171:
 1618               	.LBE170:
 1619               		.stabs	"/home/student/avr_src/SimulIDE_1.0.0-SR1_Lin64/Timer/Timer.c",132,0,0,.Ltext52
 1620               	.Ltext52:
 322:/home/student/avr_src/SimulIDE_1.0.0-SR1_Lin64/Timer/Timer.c **** 	_delay_us(38);
 1621               		.stabn	68,0,322,.LM206-.LFBB20
 1622               	.LM206:
 1623 047e 80E3      		ldi r24,lo8(48)
 1624 0480 90E0      		ldi r25,0
 1625 0482 0E94 0000 		call LCD_CharWrite
 1626               	.LBB172:
 1627               	.LBB173:
 1628               		.stabs	"/usr/lib/avr/include/util/delay.h",132,0,0,.Ltext53
 1629               	.Ltext53:
 1630               		.stabn	68,0,276,.LM207-.LFBB20
 1631               	.LM207:
 1632 0486 8AEC      		ldi r24,lo8(-54)
 1633 0488 8A95      	1:	dec r24
 1634 048a 01F4      		brne 1b
 1635 048c 00C0      		rjmp .
 1636               	.LBE173:
 1637               	.LBE172:
 1638               		.stabs	"/home/student/avr_src/SimulIDE_1.0.0-SR1_Lin64/Timer/Timer.c",132,0,0,.Ltext54
 1639               	.Ltext54:
 325:/home/student/avr_src/SimulIDE_1.0.0-SR1_Lin64/Timer/Timer.c **** 	_delay_us(38);
 1640               		.stabn	68,0,325,.LM208-.LFBB20
 1641               	.LM208:
 1642 048e 87E2      		ldi r24,lo8(39)
 1643 0490 0E94 0000 		call I2C_LCD_init
 1644               	.LBB174:
 1645               	.LBB175:
 1646               		.stabs	"/usr/lib/avr/include/util/delay.h",132,0,0,.Ltext55
 1647               	.Ltext55:
 1648               		.stabn	68,0,276,.LM209-.LFBB20
 1649               	.LM209:
 1650 0494 8AEC      		ldi r24,lo8(-54)
 1651 0496 8A95      	1:	dec r24
 1652 0498 01F4      		brne 1b
 1653 049a 00C0      		rjmp .
 1654               	.LBE175:
 1655               	.LBE174:
 1656               		.stabs	"/home/student/avr_src/SimulIDE_1.0.0-SR1_Lin64/Timer/Timer.c",132,0,0,.Ltext56
 1657               	.Ltext56:
 328:/home/student/avr_src/SimulIDE_1.0.0-SR1_Lin64/Timer/Timer.c **** 	_delay_us(38);
 1658               		.stabn	68,0,328,.LM210-.LFBB20
 1659               	.LM210:
 1660 049c 80E1      		ldi r24,lo8(16)
 1661 049e 90E0      		ldi r25,0
 1662 04a0 0E94 0000 		call LCD_CharWrite
 1663               	.LBB176:
 1664               	.LBB177:
 1665               		.stabs	"/usr/lib/avr/include/util/delay.h",132,0,0,.Ltext57
 1666               	.Ltext57:
 1667               		.stabn	68,0,276,.LM211-.LFBB20
 1668               	.LM211:
 1669 04a4 8AEC      		ldi r24,lo8(-54)
 1670 04a6 8A95      	1:	dec r24
 1671 04a8 01F4      		brne 1b
 1672 04aa 00C0      		rjmp .
 1673               	.LBE177:
 1674               	.LBE176:
 1675               		.stabs	"/home/student/avr_src/SimulIDE_1.0.0-SR1_Lin64/Timer/Timer.c",132,0,0,.Ltext58
 1676               	.Ltext58:
 330:/home/student/avr_src/SimulIDE_1.0.0-SR1_Lin64/Timer/Timer.c **** 
 1677               		.stabn	68,0,330,.LM212-.LFBB20
 1678               	.LM212:
 1679 04ac 80E3      		ldi r24,lo8(48)
 1680 04ae 90E0      		ldi r25,0
 1681 04b0 0E94 0000 		call LCD_CharWrite
 1682               	.LBB178:
 1683               	.LBB179:
 1684               		.stabs	"/usr/lib/avr/include/util/delay.h",132,0,0,.Ltext59
 1685               	.Ltext59:
 1686               		.stabn	68,0,276,.LM213-.LFBB20
 1687               	.LM213:
 1688 04b4 8AEC      		ldi r24,lo8(-54)
 1689 04b6 8A95      	1:	dec r24
 1690 04b8 01F4      		brne 1b
 1691 04ba 00C0      		rjmp .
 1692               	.LBE179:
 1693               	.LBE178:
 1694               		.stabs	"/home/student/avr_src/SimulIDE_1.0.0-SR1_Lin64/Timer/Timer.c",132,0,0,.Ltext60
 1695               	.Ltext60:
 334:/home/student/avr_src/SimulIDE_1.0.0-SR1_Lin64/Timer/Timer.c **** 	_delay_us(38);
 1696               		.stabn	68,0,334,.LM214-.LFBB20
 1697               	.LM214:
 1698 04bc 87E2      		ldi r24,lo8(39)
 1699 04be 0E94 0000 		call I2C_LCD_init
 1700               	.LBB180:
 1701               	.LBB181:
 1702               		.stabs	"/usr/lib/avr/include/util/delay.h",132,0,0,.Ltext61
 1703               	.Ltext61:
 1704               		.stabn	68,0,276,.LM215-.LFBB20
 1705               	.LM215:
 1706 04c2 8AEC      		ldi r24,lo8(-54)
 1707 04c4 8A95      	1:	dec r24
 1708 04c6 01F4      		brne 1b
 1709 04c8 00C0      		rjmp .
 1710               	.LBE181:
 1711               	.LBE180:
 1712               		.stabs	"/home/student/avr_src/SimulIDE_1.0.0-SR1_Lin64/Timer/Timer.c",132,0,0,.Ltext62
 1713               	.Ltext62:
 336:/home/student/avr_src/SimulIDE_1.0.0-SR1_Lin64/Timer/Timer.c **** 	LCD_CharWrite(0x20C0);
 1714               		.stabn	68,0,336,.LM216-.LFBB20
 1715               	.LM216:
 1716 04ca 87E2      		ldi r24,lo8(39)
 1717 04cc 0E94 0000 		call I2C_LCD_init
 337:/home/student/avr_src/SimulIDE_1.0.0-SR1_Lin64/Timer/Timer.c **** 	LCD_CharWrite(0x0020);
 1718               		.stabn	68,0,337,.LM217-.LFBB20
 1719               	.LM217:
 1720 04d0 80EC      		ldi r24,lo8(-64)
 1721 04d2 90E2      		ldi r25,lo8(32)
 1722 04d4 0E94 0000 		call LCD_CharWrite
 338:/home/student/avr_src/SimulIDE_1.0.0-SR1_Lin64/Timer/Timer.c **** 	I2C_LCD_init(0x27);
 1723               		.stabn	68,0,338,.LM218-.LFBB20
 1724               	.LM218:
 1725 04d8 80E2      		ldi r24,lo8(32)
 1726 04da 90E0      		ldi r25,0
 1727 04dc 0E94 0000 		call LCD_CharWrite
 339:/home/student/avr_src/SimulIDE_1.0.0-SR1_Lin64/Timer/Timer.c ****     
 1728               		.stabn	68,0,339,.LM219-.LFBB20
 1729               	.LM219:
 1730 04e0 87E2      		ldi r24,lo8(39)
 1731 04e2 0E94 0000 		call I2C_LCD_init
 341:/home/student/avr_src/SimulIDE_1.0.0-SR1_Lin64/Timer/Timer.c ****     LCD_CharWrite(0x00C0);
 1732               		.stabn	68,0,341,.LM220-.LFBB20
 1733               	.LM220:
 1734               	/* #APP */
 1735               	 ;  341 "/home/student/avr_src/SimulIDE_1.0.0-SR1_Lin64/Timer/Timer.c" 1
 1736 04e6 7894      		sei
 1737               	 ;  0 "" 2
 342:/home/student/avr_src/SimulIDE_1.0.0-SR1_Lin64/Timer/Timer.c **** }
 1738               		.stabn	68,0,342,.LM221-.LFBB20
 1739               	.LM221:
 1740               	/* #NOAPP */
 1741 04e8 80EC      		ldi r24,lo8(-64)
 1742 04ea 90E0      		ldi r25,0
 1743 04ec 0C94 0000 		jmp LCD_CharWrite
 1744               		.size	I2C_LCD_Reset, .-I2C_LCD_Reset
 1745               	.Lscope20:
 1746               		.stabs	"",36,0,0,.Lscope20-.LFBB20
 1747               		.stabd	78,0,0
 1748               		.stabs	"I2C_LCD_MoveLeft:F(0,49)",36,0,505,I2C_LCD_MoveLeft
 1749               		.stabs	"cnt:P(0,13)",64,0,505,28
 1750               	.global	I2C_LCD_MoveLeft
 1751               		.type	I2C_LCD_MoveLeft, @function
 1752               	I2C_LCD_MoveLeft:
 1753               		.stabd	46,0,0
 505:/home/student/avr_src/SimulIDE_1.0.0-SR1_Lin64/Timer/Timer.c **** 	
 1754               		.stabn	68,0,505,.LM222-.LFBB21
 1755               	.LM222:
 1756               	.LFBB21:
 1757 04f0 CF93      		push r28
 1758               	/* prologue: function */
 1759               	/* frame size = 0 */
 1760               	/* stack size = 1 */
 1761               	.L__stack_usage = 1
 1762 04f2 C82F      		mov r28,r24
 1763               	.L80:
 507:/home/student/avr_src/SimulIDE_1.0.0-SR1_Lin64/Timer/Timer.c **** 		LCD_CharWrite(0x1000);
 1764               		.stabn	68,0,507,.LM223-.LFBB21
 1765               	.LM223:
 1766 04f4 CC23      		tst r28
 1767 04f6 01F0      		breq .L82
 508:/home/student/avr_src/SimulIDE_1.0.0-SR1_Lin64/Timer/Timer.c **** 		cnt--;
 1768               		.stabn	68,0,508,.LM224-.LFBB21
 1769               	.LM224:
 1770 04f8 80E0      		ldi r24,0
 1771 04fa 90E1      		ldi r25,lo8(16)
 1772 04fc 0E94 0000 		call LCD_CharWrite
 509:/home/student/avr_src/SimulIDE_1.0.0-SR1_Lin64/Timer/Timer.c **** 	}
 1773               		.stabn	68,0,509,.LM225-.LFBB21
 1774               	.LM225:
 1775 0500 C150      		subi r28,lo8(-(-1))
 1776 0502 00C0      		rjmp .L80
 1777               	.L82:
 511:/home/student/avr_src/SimulIDE_1.0.0-SR1_Lin64/Timer/Timer.c ****     LCD_CharWrite(0x00E0); //must add current state
 1778               		.stabn	68,0,511,.LM226-.LFBB21
 1779               	.LM226:
 1780 0504 80E6      		ldi r24,lo8(96)
 1781 0506 90E0      		ldi r25,0
 1782 0508 0E94 0000 		call LCD_CharWrite
 512:/home/student/avr_src/SimulIDE_1.0.0-SR1_Lin64/Timer/Timer.c **** }
 1783               		.stabn	68,0,512,.LM227-.LFBB21
 1784               	.LM227:
 1785 050c 80EE      		ldi r24,lo8(-32)
 1786 050e 90E0      		ldi r25,0
 1787               	/* epilogue start */
 513:/home/student/avr_src/SimulIDE_1.0.0-SR1_Lin64/Timer/Timer.c **** 
 1788               		.stabn	68,0,513,.LM228-.LFBB21
 1789               	.LM228:
 1790 0510 CF91      		pop r28
 512:/home/student/avr_src/SimulIDE_1.0.0-SR1_Lin64/Timer/Timer.c **** }
 1791               		.stabn	68,0,512,.LM229-.LFBB21
 1792               	.LM229:
 1793 0512 0C94 0000 		jmp LCD_CharWrite
 1794               		.size	I2C_LCD_MoveLeft, .-I2C_LCD_MoveLeft
 1795               	.Lscope21:
 1796               		.stabs	"",36,0,0,.Lscope21-.LFBB21
 1797               		.stabd	78,0,0
 1798               		.stabs	"TIME_SETTING:F(0,49)",36,0,249,TIME_SETTING
 1799               		.stabs	"m:P(0,13)",64,0,249,24
 1800               		.stabs	"s:P(0,13)",64,0,249,22
 1801               	.global	TIME_SETTING
 1802               		.type	TIME_SETTING, @function
 1803               	TIME_SETTING:
 1804               		.stabd	46,0,0
 249:/home/student/avr_src/SimulIDE_1.0.0-SR1_Lin64/Timer/Timer.c **** 	cli();
 1805               		.stabn	68,0,249,.LM230-.LFBB22
 1806               	.LM230:
 1807               	.LFBB22:
 1808 0516 0F93      		push r16
 1809 0518 1F93      		push r17
 1810 051a CF93      		push r28
 1811 051c DF93      		push r29
 1812               	/* prologue: function */
 1813               	/* frame size = 0 */
 1814               	/* stack size = 4 */
 1815               	.L__stack_usage = 4
 250:/home/student/avr_src/SimulIDE_1.0.0-SR1_Lin64/Timer/Timer.c **** 	unsigned char min_tmp[2];
 1816               		.stabn	68,0,250,.LM231-.LFBB22
 1817               	.LM231:
 1818               	/* #APP */
 1819               	 ;  250 "/home/student/avr_src/SimulIDE_1.0.0-SR1_Lin64/Timer/Timer.c" 1
 1820 051e F894      		cli
 1821               	 ;  0 "" 2
 255:/home/student/avr_src/SimulIDE_1.0.0-SR1_Lin64/Timer/Timer.c **** 	sec = s;
 1822               		.stabn	68,0,255,.LM232-.LFBB22
 1823               	.LM232:
 1824               	/* #NOAPP */
 1825 0520 8093 0000 		sts min,r24
 256:/home/student/avr_src/SimulIDE_1.0.0-SR1_Lin64/Timer/Timer.c **** 
 1826               		.stabn	68,0,256,.LM233-.LFBB22
 1827               	.LM233:
 1828 0524 6093 0000 		sts sec,r22
 259:/home/student/avr_src/SimulIDE_1.0.0-SR1_Lin64/Timer/Timer.c **** 		min_tmp[0] = min / 10;
 1829               		.stabn	68,0,259,.LM234-.LFBB22
 1830               	.LM234:
 1831 0528 8091 0000 		lds r24,min
 1832 052c 8A30      		cpi r24,lo8(10)
 1833 052e 00F0      		brlo .L84
 260:/home/student/avr_src/SimulIDE_1.0.0-SR1_Lin64/Timer/Timer.c **** 		min_tmp[1] = min % 10;
 1834               		.stabn	68,0,260,.LM235-.LFBB22
 1835               	.LM235:
 1836 0530 8091 0000 		lds r24,min
 1837 0534 2AE0      		ldi r18,lo8(10)
 1838 0536 622F      		mov r22,r18
 1839 0538 0E94 0000 		call __udivmodqi4
 1840 053c 082F      		mov r16,r24
 261:/home/student/avr_src/SimulIDE_1.0.0-SR1_Lin64/Timer/Timer.c **** 	}
 1841               		.stabn	68,0,261,.LM236-.LFBB22
 1842               	.LM236:
 1843 053e 8091 0000 		lds r24,min
 1844 0542 0E94 0000 		call __udivmodqi4
 1845 0546 192F      		mov r17,r25
 1846 0548 00C0      		rjmp .L85
 1847               	.L84:
 265:/home/student/avr_src/SimulIDE_1.0.0-SR1_Lin64/Timer/Timer.c **** 	}
 1848               		.stabn	68,0,265,.LM237-.LFBB22
 1849               	.LM237:
 1850 054a 8091 0000 		lds r24,min
 1851 054e 6AE0      		ldi r22,lo8(10)
 1852 0550 0E94 0000 		call __udivmodqi4
 1853 0554 192F      		mov r17,r25
 264:/home/student/avr_src/SimulIDE_1.0.0-SR1_Lin64/Timer/Timer.c **** 		min_tmp[1] = min % 10;
 1854               		.stabn	68,0,264,.LM238-.LFBB22
 1855               	.LM238:
 1856 0556 00E0      		ldi r16,0
 1857               	.L85:
 268:/home/student/avr_src/SimulIDE_1.0.0-SR1_Lin64/Timer/Timer.c **** 		sec_tmp[0] = sec / 10;
 1858               		.stabn	68,0,268,.LM239-.LFBB22
 1859               	.LM239:
 1860 0558 8091 0000 		lds r24,sec
 1861 055c 8A30      		cpi r24,lo8(10)
 1862 055e 00F0      		brlo .L86
 269:/home/student/avr_src/SimulIDE_1.0.0-SR1_Lin64/Timer/Timer.c **** 		sec_tmp[1] = sec % 10;
 1863               		.stabn	68,0,269,.LM240-.LFBB22
 1864               	.LM240:
 1865 0560 8091 0000 		lds r24,sec
 1866 0564 2AE0      		ldi r18,lo8(10)
 1867 0566 622F      		mov r22,r18
 1868 0568 0E94 0000 		call __udivmodqi4
 1869 056c D82F      		mov r29,r24
 270:/home/student/avr_src/SimulIDE_1.0.0-SR1_Lin64/Timer/Timer.c **** 	}
 1870               		.stabn	68,0,270,.LM241-.LFBB22
 1871               	.LM241:
 1872 056e 8091 0000 		lds r24,sec
 1873 0572 0E94 0000 		call __udivmodqi4
 1874 0576 C92F      		mov r28,r25
 1875 0578 00C0      		rjmp .L87
 1876               	.L86:
 274:/home/student/avr_src/SimulIDE_1.0.0-SR1_Lin64/Timer/Timer.c **** 	}
 1877               		.stabn	68,0,274,.LM242-.LFBB22
 1878               	.LM242:
 1879 057a 8091 0000 		lds r24,sec
 1880 057e 6AE0      		ldi r22,lo8(10)
 1881 0580 0E94 0000 		call __udivmodqi4
 1882 0584 C92F      		mov r28,r25
 273:/home/student/avr_src/SimulIDE_1.0.0-SR1_Lin64/Timer/Timer.c **** 		sec_tmp[1] = sec % 10;
 1883               		.stabn	68,0,273,.LM243-.LFBB22
 1884               	.LM243:
 1885 0586 D0E0      		ldi r29,0
 1886               	.L87:
 276:/home/student/avr_src/SimulIDE_1.0.0-SR1_Lin64/Timer/Timer.c ****     LCD_CharWrite(0x2101);
 1887               		.stabn	68,0,276,.LM244-.LFBB22
 1888               	.LM244:
 1889 0588 0E94 0000 		call I2C_LCD_Reset
 277:/home/student/avr_src/SimulIDE_1.0.0-SR1_Lin64/Timer/Timer.c ****     LCD_CharWrite(0x2101);
 1890               		.stabn	68,0,277,.LM245-.LFBB22
 1891               	.LM245:
 1892 058c 81E0      		ldi r24,lo8(1)
 1893 058e 91E2      		ldi r25,lo8(33)
 1894 0590 0E94 0000 		call LCD_CharWrite
 278:/home/student/avr_src/SimulIDE_1.0.0-SR1_Lin64/Timer/Timer.c ****     LCD_CharWrite(0x2101);
 1895               		.stabn	68,0,278,.LM246-.LFBB22
 1896               	.LM246:
 1897 0594 81E0      		ldi r24,lo8(1)
 1898 0596 91E2      		ldi r25,lo8(33)
 1899 0598 0E94 0000 		call LCD_CharWrite
 279:/home/student/avr_src/SimulIDE_1.0.0-SR1_Lin64/Timer/Timer.c ****     LCD_CharWrite(0x2101);
 1900               		.stabn	68,0,279,.LM247-.LFBB22
 1901               	.LM247:
 1902 059c 81E0      		ldi r24,lo8(1)
 1903 059e 91E2      		ldi r25,lo8(33)
 1904 05a0 0E94 0000 		call LCD_CharWrite
 280:/home/student/avr_src/SimulIDE_1.0.0-SR1_Lin64/Timer/Timer.c ****     LCD_CharWrite(num2lcdbyte(min_tmp[0]));
 1905               		.stabn	68,0,280,.LM248-.LFBB22
 1906               	.LM248:
 1907 05a4 81E0      		ldi r24,lo8(1)
 1908 05a6 91E2      		ldi r25,lo8(33)
 1909 05a8 0E94 0000 		call LCD_CharWrite
 281:/home/student/avr_src/SimulIDE_1.0.0-SR1_Lin64/Timer/Timer.c ****     LCD_CharWrite(num2lcdbyte(min_tmp[1]));
 1910               		.stabn	68,0,281,.LM249-.LFBB22
 1911               	.LM249:
 1912 05ac 802F      		mov r24,r16
 1913 05ae 0E94 0000 		call num2lcdbyte
 1914 05b2 0E94 0000 		call LCD_CharWrite
 282:/home/student/avr_src/SimulIDE_1.0.0-SR1_Lin64/Timer/Timer.c **** 	LCD_CharWrite(0x31A1);
 1915               		.stabn	68,0,282,.LM250-.LFBB22
 1916               	.LM250:
 1917 05b6 812F      		mov r24,r17
 1918 05b8 0E94 0000 		call num2lcdbyte
 1919 05bc 0E94 0000 		call LCD_CharWrite
 283:/home/student/avr_src/SimulIDE_1.0.0-SR1_Lin64/Timer/Timer.c ****     LCD_CharWrite(num2lcdbyte(sec_tmp[0]));
 1920               		.stabn	68,0,283,.LM251-.LFBB22
 1921               	.LM251:
 1922 05c0 81EA      		ldi r24,lo8(-95)
 1923 05c2 91E3      		ldi r25,lo8(49)
 1924 05c4 0E94 0000 		call LCD_CharWrite
 284:/home/student/avr_src/SimulIDE_1.0.0-SR1_Lin64/Timer/Timer.c ****     LCD_CharWrite(num2lcdbyte(sec_tmp[1]));
 1925               		.stabn	68,0,284,.LM252-.LFBB22
 1926               	.LM252:
 1927 05c8 8D2F      		mov r24,r29
 1928 05ca 0E94 0000 		call num2lcdbyte
 1929 05ce 0E94 0000 		call LCD_CharWrite
 285:/home/student/avr_src/SimulIDE_1.0.0-SR1_Lin64/Timer/Timer.c ****     LCD_CharWrite(0x31A1);
 1930               		.stabn	68,0,285,.LM253-.LFBB22
 1931               	.LM253:
 1932 05d2 8C2F      		mov r24,r28
 1933 05d4 0E94 0000 		call num2lcdbyte
 1934 05d8 0E94 0000 		call LCD_CharWrite
 286:/home/student/avr_src/SimulIDE_1.0.0-SR1_Lin64/Timer/Timer.c ****     LCD_CharWrite(num2lcdbyte(0));
 1935               		.stabn	68,0,286,.LM254-.LFBB22
 1936               	.LM254:
 1937 05dc 81EA      		ldi r24,lo8(-95)
 1938 05de 91E3      		ldi r25,lo8(49)
 1939 05e0 0E94 0000 		call LCD_CharWrite
 287:/home/student/avr_src/SimulIDE_1.0.0-SR1_Lin64/Timer/Timer.c ****     LCD_CharWrite(num2lcdbyte(0));
 1940               		.stabn	68,0,287,.LM255-.LFBB22
 1941               	.LM255:
 1942 05e4 81E0      		ldi r24,lo8(1)
 1943 05e6 91E3      		ldi r25,lo8(49)
 1944 05e8 0E94 0000 		call LCD_CharWrite
 288:/home/student/avr_src/SimulIDE_1.0.0-SR1_Lin64/Timer/Timer.c **** 	LCD_CharWrite(0x00C0);
 1945               		.stabn	68,0,288,.LM256-.LFBB22
 1946               	.LM256:
 1947 05ec 81E0      		ldi r24,lo8(1)
 1948 05ee 91E3      		ldi r25,lo8(49)
 1949 05f0 0E94 0000 		call LCD_CharWrite
 289:/home/student/avr_src/SimulIDE_1.0.0-SR1_Lin64/Timer/Timer.c **** 	I2C_LCD_MoveLeft(4);
 1950               		.stabn	68,0,289,.LM257-.LFBB22
 1951               	.LM257:
 1952 05f4 80EC      		ldi r24,lo8(-64)
 1953 05f6 90E0      		ldi r25,0
 1954 05f8 0E94 0000 		call LCD_CharWrite
 290:/home/student/avr_src/SimulIDE_1.0.0-SR1_Lin64/Timer/Timer.c **** 	cp.x = 9;
 1955               		.stabn	68,0,290,.LM258-.LFBB22
 1956               	.LM258:
 1957 05fc 84E0      		ldi r24,lo8(4)
 1958 05fe 0E94 0000 		call I2C_LCD_MoveLeft
 291:/home/student/avr_src/SimulIDE_1.0.0-SR1_Lin64/Timer/Timer.c **** 	sei();
 1959               		.stabn	68,0,291,.LM259-.LFBB22
 1960               	.LM259:
 1961 0602 89E0      		ldi r24,lo8(9)
 1962 0604 90E0      		ldi r25,0
 1963 0606 9093 0000 		sts cp+1,r25
 1964 060a 8093 0000 		sts cp,r24
 292:/home/student/avr_src/SimulIDE_1.0.0-SR1_Lin64/Timer/Timer.c **** }
 1965               		.stabn	68,0,292,.LM260-.LFBB22
 1966               	.LM260:
 1967               	/* #APP */
 1968               	 ;  292 "/home/student/avr_src/SimulIDE_1.0.0-SR1_Lin64/Timer/Timer.c" 1
 1969 060e 7894      		sei
 1970               	 ;  0 "" 2
 1971               	/* epilogue start */
 293:/home/student/avr_src/SimulIDE_1.0.0-SR1_Lin64/Timer/Timer.c **** //===================================================
 1972               		.stabn	68,0,293,.LM261-.LFBB22
 1973               	.LM261:
 1974               	/* #NOAPP */
 1975 0610 DF91      		pop r29
 1976 0612 CF91      		pop r28
 1977 0614 1F91      		pop r17
 1978 0616 0F91      		pop r16
 1979 0618 0895      		ret
 1980               		.size	TIME_SETTING, .-TIME_SETTING
 1981               	.Lscope22:
 1982               		.stabs	"",36,0,0,.Lscope22-.LFBB22
 1983               		.stabd	78,0,0
 1984               		.stabs	"I2C_Timer_Default:F(0,49)",36,0,383,I2C_Timer_Default
 1985               	.global	I2C_Timer_Default
 1986               		.type	I2C_Timer_Default, @function
 1987               	I2C_Timer_Default:
 1988               		.stabd	46,0,0
 383:/home/student/avr_src/SimulIDE_1.0.0-SR1_Lin64/Timer/Timer.c **** 	I2C_LCD_Reset();
 1989               		.stabn	68,0,383,.LM262-.LFBB23
 1990               	.LM262:
 1991               	.LFBB23:
 1992               	/* prologue: function */
 1993               	/* frame size = 0 */
 1994               	/* stack size = 0 */
 1995               	.L__stack_usage = 0
 384:/home/student/avr_src/SimulIDE_1.0.0-SR1_Lin64/Timer/Timer.c ****     LCD_CharWrite(0x2101);
 1996               		.stabn	68,0,384,.LM263-.LFBB23
 1997               	.LM263:
 1998 061a 0E94 0000 		call I2C_LCD_Reset
 385:/home/student/avr_src/SimulIDE_1.0.0-SR1_Lin64/Timer/Timer.c ****     LCD_CharWrite(0x2101);
 1999               		.stabn	68,0,385,.LM264-.LFBB23
 2000               	.LM264:
 2001 061e 81E0      		ldi r24,lo8(1)
 2002 0620 91E2      		ldi r25,lo8(33)
 2003 0622 0E94 0000 		call LCD_CharWrite
 386:/home/student/avr_src/SimulIDE_1.0.0-SR1_Lin64/Timer/Timer.c ****     LCD_CharWrite(0x2101);
 2004               		.stabn	68,0,386,.LM265-.LFBB23
 2005               	.LM265:
 2006 0626 81E0      		ldi r24,lo8(1)
 2007 0628 91E2      		ldi r25,lo8(33)
 2008 062a 0E94 0000 		call LCD_CharWrite
 387:/home/student/avr_src/SimulIDE_1.0.0-SR1_Lin64/Timer/Timer.c ****     LCD_CharWrite(0x2101);
 2009               		.stabn	68,0,387,.LM266-.LFBB23
 2010               	.LM266:
 2011 062e 81E0      		ldi r24,lo8(1)
 2012 0630 91E2      		ldi r25,lo8(33)
 2013 0632 0E94 0000 		call LCD_CharWrite
 388:/home/student/avr_src/SimulIDE_1.0.0-SR1_Lin64/Timer/Timer.c ****     LCD_CharWrite(num2lcdbyte(0));
 2014               		.stabn	68,0,388,.LM267-.LFBB23
 2015               	.LM267:
 2016 0636 81E0      		ldi r24,lo8(1)
 2017 0638 91E2      		ldi r25,lo8(33)
 2018 063a 0E94 0000 		call LCD_CharWrite
 389:/home/student/avr_src/SimulIDE_1.0.0-SR1_Lin64/Timer/Timer.c ****     LCD_CharWrite(num2lcdbyte(0));
 2019               		.stabn	68,0,389,.LM268-.LFBB23
 2020               	.LM268:
 2021 063e 81E0      		ldi r24,lo8(1)
 2022 0640 91E3      		ldi r25,lo8(49)
 2023 0642 0E94 0000 		call LCD_CharWrite
 390:/home/student/avr_src/SimulIDE_1.0.0-SR1_Lin64/Timer/Timer.c **** 	LCD_CharWrite(0x31A1);
 2024               		.stabn	68,0,390,.LM269-.LFBB23
 2025               	.LM269:
 2026 0646 81E0      		ldi r24,lo8(1)
 2027 0648 91E3      		ldi r25,lo8(49)
 2028 064a 0E94 0000 		call LCD_CharWrite
 391:/home/student/avr_src/SimulIDE_1.0.0-SR1_Lin64/Timer/Timer.c ****     LCD_CharWrite(num2lcdbyte(0));
 2029               		.stabn	68,0,391,.LM270-.LFBB23
 2030               	.LM270:
 2031 064e 81EA      		ldi r24,lo8(-95)
 2032 0650 91E3      		ldi r25,lo8(49)
 2033 0652 0E94 0000 		call LCD_CharWrite
 392:/home/student/avr_src/SimulIDE_1.0.0-SR1_Lin64/Timer/Timer.c ****     LCD_CharWrite(num2lcdbyte(0));
 2034               		.stabn	68,0,392,.LM271-.LFBB23
 2035               	.LM271:
 2036 0656 81E0      		ldi r24,lo8(1)
 2037 0658 91E3      		ldi r25,lo8(49)
 2038 065a 0E94 0000 		call LCD_CharWrite
 393:/home/student/avr_src/SimulIDE_1.0.0-SR1_Lin64/Timer/Timer.c ****     LCD_CharWrite(0x31A1);
 2039               		.stabn	68,0,393,.LM272-.LFBB23
 2040               	.LM272:
 2041 065e 81E0      		ldi r24,lo8(1)
 2042 0660 91E3      		ldi r25,lo8(49)
 2043 0662 0E94 0000 		call LCD_CharWrite
 394:/home/student/avr_src/SimulIDE_1.0.0-SR1_Lin64/Timer/Timer.c ****     LCD_CharWrite(num2lcdbyte(0));
 2044               		.stabn	68,0,394,.LM273-.LFBB23
 2045               	.LM273:
 2046 0666 81EA      		ldi r24,lo8(-95)
 2047 0668 91E3      		ldi r25,lo8(49)
 2048 066a 0E94 0000 		call LCD_CharWrite
 395:/home/student/avr_src/SimulIDE_1.0.0-SR1_Lin64/Timer/Timer.c ****     LCD_CharWrite(num2lcdbyte(0));
 2049               		.stabn	68,0,395,.LM274-.LFBB23
 2050               	.LM274:
 2051 066e 81E0      		ldi r24,lo8(1)
 2052 0670 91E3      		ldi r25,lo8(49)
 2053 0672 0E94 0000 		call LCD_CharWrite
 396:/home/student/avr_src/SimulIDE_1.0.0-SR1_Lin64/Timer/Timer.c **** 	LCD_CharWrite(0x00C0);
 2054               		.stabn	68,0,396,.LM275-.LFBB23
 2055               	.LM275:
 2056 0676 81E0      		ldi r24,lo8(1)
 2057 0678 91E3      		ldi r25,lo8(49)
 2058 067a 0E94 0000 		call LCD_CharWrite
 397:/home/student/avr_src/SimulIDE_1.0.0-SR1_Lin64/Timer/Timer.c **** 	I2C_LCD_MoveLeft(4);
 2059               		.stabn	68,0,397,.LM276-.LFBB23
 2060               	.LM276:
 2061 067e 80EC      		ldi r24,lo8(-64)
 2062 0680 90E0      		ldi r25,0
 2063 0682 0E94 0000 		call LCD_CharWrite
 398:/home/student/avr_src/SimulIDE_1.0.0-SR1_Lin64/Timer/Timer.c **** 	cp.x = 9;
 2064               		.stabn	68,0,398,.LM277-.LFBB23
 2065               	.LM277:
 2066 0686 84E0      		ldi r24,lo8(4)
 2067 0688 0E94 0000 		call I2C_LCD_MoveLeft
 399:/home/student/avr_src/SimulIDE_1.0.0-SR1_Lin64/Timer/Timer.c **** }
 2068               		.stabn	68,0,399,.LM278-.LFBB23
 2069               	.LM278:
 2070 068c 89E0      		ldi r24,lo8(9)
 2071 068e 90E0      		ldi r25,0
 2072 0690 9093 0000 		sts cp+1,r25
 2073 0694 8093 0000 		sts cp,r24
 2074 0698 0895      		ret
 2075               		.size	I2C_Timer_Default, .-I2C_Timer_Default
 2076               	.Lscope23:
 2077               		.stabs	"",36,0,0,.Lscope23-.LFBB23
 2078               		.stabd	78,0,0
 2079               		.stabs	"I2C_LCD_MoveRight:F(0,49)",36,0,515,I2C_LCD_MoveRight
 2080               		.stabs	"cnt:P(0,13)",64,0,515,28
 2081               	.global	I2C_LCD_MoveRight
 2082               		.type	I2C_LCD_MoveRight, @function
 2083               	I2C_LCD_MoveRight:
 2084               		.stabd	46,0,0
 515:/home/student/avr_src/SimulIDE_1.0.0-SR1_Lin64/Timer/Timer.c **** 	while(cnt){
 2085               		.stabn	68,0,515,.LM279-.LFBB24
 2086               	.LM279:
 2087               	.LFBB24:
 2088 069a CF93      		push r28
 2089               	/* prologue: function */
 2090               	/* frame size = 0 */
 2091               	/* stack size = 1 */
 2092               	.L__stack_usage = 1
 2093 069c C82F      		mov r28,r24
 2094               	.L90:
 516:/home/student/avr_src/SimulIDE_1.0.0-SR1_Lin64/Timer/Timer.c **** 		LCD_CharWrite(0x1040);
 2095               		.stabn	68,0,516,.LM280-.LFBB24
 2096               	.LM280:
 2097 069e CC23      		tst r28
 2098 06a0 01F0      		breq .L92
 517:/home/student/avr_src/SimulIDE_1.0.0-SR1_Lin64/Timer/Timer.c **** 		cnt--;
 2099               		.stabn	68,0,517,.LM281-.LFBB24
 2100               	.LM281:
 2101 06a2 80E4      		ldi r24,lo8(64)
 2102 06a4 90E1      		ldi r25,lo8(16)
 2103 06a6 0E94 0000 		call LCD_CharWrite
 518:/home/student/avr_src/SimulIDE_1.0.0-SR1_Lin64/Timer/Timer.c **** 	}
 2104               		.stabn	68,0,518,.LM282-.LFBB24
 2105               	.LM282:
 2106 06aa C150      		subi r28,lo8(-(-1))
 2107 06ac 00C0      		rjmp .L90
 2108               	.L92:
 520:/home/student/avr_src/SimulIDE_1.0.0-SR1_Lin64/Timer/Timer.c **** }
 2109               		.stabn	68,0,520,.LM283-.LFBB24
 2110               	.LM283:
 2111 06ae 80EE      		ldi r24,lo8(-32)
 2112 06b0 90E0      		ldi r25,0
 2113               	/* epilogue start */
 521:/home/student/avr_src/SimulIDE_1.0.0-SR1_Lin64/Timer/Timer.c **** 
 2114               		.stabn	68,0,521,.LM284-.LFBB24
 2115               	.LM284:
 2116 06b2 CF91      		pop r28
 520:/home/student/avr_src/SimulIDE_1.0.0-SR1_Lin64/Timer/Timer.c **** }
 2117               		.stabn	68,0,520,.LM285-.LFBB24
 2118               	.LM285:
 2119 06b4 0C94 0000 		jmp LCD_CharWrite
 2120               		.size	I2C_LCD_MoveRight, .-I2C_LCD_MoveRight
 2121               	.Lscope24:
 2122               		.stabs	"",36,0,0,.Lscope24-.LFBB24
 2123               		.stabd	78,0,0
 2124               		.stabs	"I2C_Timer_act:F(0,49)",36,0,402,I2C_Timer_act
 2125               	.global	I2C_Timer_act
 2126               		.type	I2C_Timer_act, @function
 2127               	I2C_Timer_act:
 2128               		.stabd	46,0,0
 402:/home/student/avr_src/SimulIDE_1.0.0-SR1_Lin64/Timer/Timer.c **** 		
 2129               		.stabn	68,0,402,.LM286-.LFBB25
 2130               	.LM286:
 2131               	.LFBB25:
 2132 06b8 CF93      		push r28
 2133               	/* prologue: function */
 2134               	/* frame size = 0 */
 2135               	/* stack size = 1 */
 2136               	.L__stack_usage = 1
 404:/home/student/avr_src/SimulIDE_1.0.0-SR1_Lin64/Timer/Timer.c **** 			min--;
 2137               		.stabn	68,0,404,.LM287-.LFBB25
 2138               	.LM287:
 2139 06ba 8091 0000 		lds r24,min
 2140 06be 8823      		tst r24
 2141 06c0 01F0      		breq .L94
 404:/home/student/avr_src/SimulIDE_1.0.0-SR1_Lin64/Timer/Timer.c **** 			min--;
 2142               		.stabn	68,0,404,.LM288-.LFBB25
 2143               	.LM288:
 2144 06c2 8091 0000 		lds r24,sec
 2145 06c6 8111      		cpse r24,__zero_reg__
 2146 06c8 00C0      		rjmp .L94
 405:/home/student/avr_src/SimulIDE_1.0.0-SR1_Lin64/Timer/Timer.c **** 			sec = 60;
 2147               		.stabn	68,0,405,.LM289-.LFBB25
 2148               	.LM289:
 2149 06ca 8091 0000 		lds r24,min
 2150 06ce 8150      		subi r24,lo8(-(-1))
 2151 06d0 8093 0000 		sts min,r24
 406:/home/student/avr_src/SimulIDE_1.0.0-SR1_Lin64/Timer/Timer.c **** 		}
 2152               		.stabn	68,0,406,.LM290-.LFBB25
 2153               	.LM290:
 2154 06d4 8CE3      		ldi r24,lo8(60)
 2155 06d6 8093 0000 		sts sec,r24
 2156               	.L94:
 409:/home/student/avr_src/SimulIDE_1.0.0-SR1_Lin64/Timer/Timer.c **** 			I2C_LCD_MoveLeft(3);
 2157               		.stabn	68,0,409,.LM291-.LFBB25
 2158               	.LM291:
 2159 06da 8091 0000 		lds r24,min
 2160 06de 8A30      		cpi r24,lo8(10)
 2161 06e0 00F4      		brsh .L95
 410:/home/student/avr_src/SimulIDE_1.0.0-SR1_Lin64/Timer/Timer.c **** 			LCD_CharWrite(num2lcdbyte(min));
 2162               		.stabn	68,0,410,.LM292-.LFBB25
 2163               	.LM292:
 2164 06e2 83E0      		ldi r24,lo8(3)
 2165 06e4 0E94 0000 		call I2C_LCD_MoveLeft
 411:/home/student/avr_src/SimulIDE_1.0.0-SR1_Lin64/Timer/Timer.c **** 			I2C_LCD_MoveRight(2);
 2166               		.stabn	68,0,411,.LM293-.LFBB25
 2167               	.LM293:
 2168 06e8 8091 0000 		lds r24,min
 2169 06ec 0E94 0000 		call num2lcdbyte
 2170 06f0 0E94 0000 		call LCD_CharWrite
 412:/home/student/avr_src/SimulIDE_1.0.0-SR1_Lin64/Timer/Timer.c **** 			LCD_CharWrite(0x00C0);
 2171               		.stabn	68,0,412,.LM294-.LFBB25
 2172               	.LM294:
 2173 06f4 82E0      		ldi r24,lo8(2)
 2174 06f6 0E94 0000 		call I2C_LCD_MoveRight
 413:/home/student/avr_src/SimulIDE_1.0.0-SR1_Lin64/Timer/Timer.c **** 			LCD_CharWrite(0x00C0);
 2175               		.stabn	68,0,413,.LM295-.LFBB25
 2176               	.LM295:
 2177 06fa 80EC      		ldi r24,lo8(-64)
 2178 06fc 90E0      		ldi r25,0
 2179 06fe 0E94 0000 		call LCD_CharWrite
 414:/home/student/avr_src/SimulIDE_1.0.0-SR1_Lin64/Timer/Timer.c **** 		}
 2180               		.stabn	68,0,414,.LM296-.LFBB25
 2181               	.LM296:
 2182 0702 80EC      		ldi r24,lo8(-64)
 2183 0704 90E0      		ldi r25,0
 2184 0706 0E94 0000 		call LCD_CharWrite
 2185               	.L95:
 416:/home/student/avr_src/SimulIDE_1.0.0-SR1_Lin64/Timer/Timer.c **** 			I2C_LCD_MoveLeft(4);
 2186               		.stabn	68,0,416,.LM297-.LFBB25
 2187               	.LM297:
 2188 070a 8091 0000 		lds r24,min
 2189 070e 8B30      		cpi r24,lo8(11)
 2190 0710 00F0      		brlo .L96
 417:/home/student/avr_src/SimulIDE_1.0.0-SR1_Lin64/Timer/Timer.c **** 			LCD_CharWrite(num2lcdbyte(min/10));
 2191               		.stabn	68,0,417,.LM298-.LFBB25
 2192               	.LM298:
 2193 0712 84E0      		ldi r24,lo8(4)
 2194 0714 0E94 0000 		call I2C_LCD_MoveLeft
 418:/home/student/avr_src/SimulIDE_1.0.0-SR1_Lin64/Timer/Timer.c **** 			LCD_CharWrite(num2lcdbyte(min%10));
 2195               		.stabn	68,0,418,.LM299-.LFBB25
 2196               	.LM299:
 2197 0718 8091 0000 		lds r24,min
 2198 071c CAE0      		ldi r28,lo8(10)
 2199 071e 6C2F      		mov r22,r28
 2200 0720 0E94 0000 		call __udivmodqi4
 2201 0724 0E94 0000 		call num2lcdbyte
 2202 0728 00C0      		rjmp .L113
 2203               	.L96:
 424:/home/student/avr_src/SimulIDE_1.0.0-SR1_Lin64/Timer/Timer.c **** 			I2C_LCD_MoveLeft(4);
 2204               		.stabn	68,0,424,.LM300-.LFBB25
 2205               	.LM300:
 2206 072a C091 0000 		lds r28,min
 2207 072e CA30      		cpi r28,lo8(10)
 2208 0730 01F4      		brne .L97
 425:/home/student/avr_src/SimulIDE_1.0.0-SR1_Lin64/Timer/Timer.c **** 			LCD_CharWrite(num2lcdbyte(0));
 2209               		.stabn	68,0,425,.LM301-.LFBB25
 2210               	.LM301:
 2211 0732 84E0      		ldi r24,lo8(4)
 2212 0734 0E94 0000 		call I2C_LCD_MoveLeft
 426:/home/student/avr_src/SimulIDE_1.0.0-SR1_Lin64/Timer/Timer.c **** 			LCD_CharWrite(num2lcdbyte(min%10));
 2213               		.stabn	68,0,426,.LM302-.LFBB25
 2214               	.LM302:
 2215 0738 81E0      		ldi r24,lo8(1)
 2216 073a 91E3      		ldi r25,lo8(49)
 2217               	.L113:
 2218 073c 0E94 0000 		call LCD_CharWrite
 427:/home/student/avr_src/SimulIDE_1.0.0-SR1_Lin64/Timer/Timer.c **** 			I2C_LCD_MoveRight(2);
 2219               		.stabn	68,0,427,.LM303-.LFBB25
 2220               	.LM303:
 2221 0740 8091 0000 		lds r24,min
 2222 0744 6C2F      		mov r22,r28
 2223 0746 0E94 0000 		call __udivmodqi4
 2224 074a 892F      		mov r24,r25
 2225 074c 0E94 0000 		call num2lcdbyte
 2226 0750 0E94 0000 		call LCD_CharWrite
 428:/home/student/avr_src/SimulIDE_1.0.0-SR1_Lin64/Timer/Timer.c **** 			LCD_CharWrite(0x00C0);
 2227               		.stabn	68,0,428,.LM304-.LFBB25
 2228               	.LM304:
 2229 0754 82E0      		ldi r24,lo8(2)
 2230 0756 0E94 0000 		call I2C_LCD_MoveRight
 429:/home/student/avr_src/SimulIDE_1.0.0-SR1_Lin64/Timer/Timer.c **** 			LCD_CharWrite(0x00C0);
 2231               		.stabn	68,0,429,.LM305-.LFBB25
 2232               	.LM305:
 2233 075a 80EC      		ldi r24,lo8(-64)
 2234 075c 90E0      		ldi r25,0
 2235 075e 0E94 0000 		call LCD_CharWrite
 430:/home/student/avr_src/SimulIDE_1.0.0-SR1_Lin64/Timer/Timer.c **** 		}
 2236               		.stabn	68,0,430,.LM306-.LFBB25
 2237               	.LM306:
 2238 0762 80EC      		ldi r24,lo8(-64)
 2239 0764 90E0      		ldi r25,0
 2240 0766 0E94 0000 		call LCD_CharWrite
 2241               	.L97:
 435:/home/student/avr_src/SimulIDE_1.0.0-SR1_Lin64/Timer/Timer.c **** 			if(min){
 2242               		.stabn	68,0,435,.LM307-.LFBB25
 2243               	.LM307:
 2244 076a 8091 0000 		lds r24,sec
 2245 076e 8130      		cpi r24,lo8(1)
 2246 0770 01F4      		brne .L98
 435:/home/student/avr_src/SimulIDE_1.0.0-SR1_Lin64/Timer/Timer.c **** 			if(min){
 2247               		.stabn	68,0,435,.LM308-.LFBB25
 2248               	.LM308:
 2249 0772 9091 0000 		lds r25,end_flag
 2250 0776 9111      		cpse r25,__zero_reg__
 2251 0778 00C0      		rjmp .L98
 436:/home/student/avr_src/SimulIDE_1.0.0-SR1_Lin64/Timer/Timer.c **** 				LCD_CharWrite(num2lcdbyte(0));
 2252               		.stabn	68,0,436,.LM309-.LFBB25
 2253               	.LM309:
 2254 077a 9091 0000 		lds r25,min
 2255 077e 9923      		tst r25
 2256 0780 01F0      		breq .L99
 437:/home/student/avr_src/SimulIDE_1.0.0-SR1_Lin64/Timer/Timer.c **** 				I2C_LCD_MoveLeft(1);
 2257               		.stabn	68,0,437,.LM310-.LFBB25
 2258               	.LM310:
 2259 0782 81E0      		ldi r24,lo8(1)
 2260 0784 91E3      		ldi r25,lo8(49)
 2261 0786 0E94 0000 		call LCD_CharWrite
 438:/home/student/avr_src/SimulIDE_1.0.0-SR1_Lin64/Timer/Timer.c **** 				time_10ms = 99;
 2262               		.stabn	68,0,438,.LM311-.LFBB25
 2263               	.LM311:
 2264 078a 81E0      		ldi r24,lo8(1)
 2265 078c 0E94 0000 		call I2C_LCD_MoveLeft
 439:/home/student/avr_src/SimulIDE_1.0.0-SR1_Lin64/Timer/Timer.c **** 				sec = 60;
 2266               		.stabn	68,0,439,.LM312-.LFBB25
 2267               	.LM312:
 2268 0790 83E6      		ldi r24,lo8(99)
 2269 0792 90E0      		ldi r25,0
 2270 0794 9093 0000 		sts time_10ms+1,r25
 2271 0798 8093 0000 		sts time_10ms,r24
 440:/home/student/avr_src/SimulIDE_1.0.0-SR1_Lin64/Timer/Timer.c **** 				min--;
 2272               		.stabn	68,0,440,.LM313-.LFBB25
 2273               	.LM313:
 2274 079c 8CE3      		ldi r24,lo8(60)
 2275 079e 8093 0000 		sts sec,r24
 441:/home/student/avr_src/SimulIDE_1.0.0-SR1_Lin64/Timer/Timer.c **** 			}
 2276               		.stabn	68,0,441,.LM314-.LFBB25
 2277               	.LM314:
 2278 07a2 8091 0000 		lds r24,min
 2279 07a6 8150      		subi r24,lo8(-(-1))
 2280 07a8 8093 0000 		sts min,r24
 2281 07ac 00C0      		rjmp .L93
 2282               	.L99:
 444:/home/student/avr_src/SimulIDE_1.0.0-SR1_Lin64/Timer/Timer.c **** 			}
 2283               		.stabn	68,0,444,.LM315-.LFBB25
 2284               	.LM315:
 2285 07ae 8093 0000 		sts end_flag,r24
 2286 07b2 00C0      		rjmp .L93
 2287               	.L98:
 447:/home/student/avr_src/SimulIDE_1.0.0-SR1_Lin64/Timer/Timer.c **** 			if (min == 0){
 2288               		.stabn	68,0,447,.LM316-.LFBB25
 2289               	.LM316:
 2290 07b4 8091 0000 		lds r24,sec
 2291 07b8 8C33      		cpi r24,lo8(60)
 2292 07ba 01F4      		brne .L101
 448:/home/student/avr_src/SimulIDE_1.0.0-SR1_Lin64/Timer/Timer.c **** 				I2C_LCD_MoveLeft(3);
 2293               		.stabn	68,0,448,.LM317-.LFBB25
 2294               	.LM317:
 2295 07bc 8091 0000 		lds r24,min
 2296 07c0 8111      		cpse r24,__zero_reg__
 2297 07c2 00C0      		rjmp .L102
 449:/home/student/avr_src/SimulIDE_1.0.0-SR1_Lin64/Timer/Timer.c **** 				LCD_CharWrite(num2lcdbyte(0));
 2298               		.stabn	68,0,449,.LM318-.LFBB25
 2299               	.LM318:
 2300 07c4 83E0      		ldi r24,lo8(3)
 2301 07c6 0E94 0000 		call I2C_LCD_MoveLeft
 450:/home/student/avr_src/SimulIDE_1.0.0-SR1_Lin64/Timer/Timer.c **** 				I2C_LCD_MoveRight(2);
 2302               		.stabn	68,0,450,.LM319-.LFBB25
 2303               	.LM319:
 2304 07ca 81E0      		ldi r24,lo8(1)
 2305 07cc 91E3      		ldi r25,lo8(49)
 2306 07ce 00C0      		rjmp .L114
 2307               	.L102:
 455:/home/student/avr_src/SimulIDE_1.0.0-SR1_Lin64/Timer/Timer.c **** 				I2C_LCD_MoveLeft(3);
 2308               		.stabn	68,0,455,.LM320-.LFBB25
 2309               	.LM320:
 2310 07d0 8091 0000 		lds r24,min
 2311 07d4 8823      		tst r24
 2312 07d6 01F0      		breq .L103
 456:/home/student/avr_src/SimulIDE_1.0.0-SR1_Lin64/Timer/Timer.c **** 				LCD_CharWrite(num2lcdbyte(min));
 2313               		.stabn	68,0,456,.LM321-.LFBB25
 2314               	.LM321:
 2315 07d8 83E0      		ldi r24,lo8(3)
 2316 07da 0E94 0000 		call I2C_LCD_MoveLeft
 457:/home/student/avr_src/SimulIDE_1.0.0-SR1_Lin64/Timer/Timer.c **** 				I2C_LCD_MoveRight(2);
 2317               		.stabn	68,0,457,.LM322-.LFBB25
 2318               	.LM322:
 2319 07de 8091 0000 		lds r24,min
 2320 07e2 0E94 0000 		call num2lcdbyte
 2321               	.L114:
 2322 07e6 0E94 0000 		call LCD_CharWrite
 458:/home/student/avr_src/SimulIDE_1.0.0-SR1_Lin64/Timer/Timer.c **** 				LCD_CharWrite(0x00C0);
 2323               		.stabn	68,0,458,.LM323-.LFBB25
 2324               	.LM323:
 2325 07ea 82E0      		ldi r24,lo8(2)
 2326 07ec 0E94 0000 		call I2C_LCD_MoveRight
 459:/home/student/avr_src/SimulIDE_1.0.0-SR1_Lin64/Timer/Timer.c **** 				LCD_CharWrite(0x00C0);
 2327               		.stabn	68,0,459,.LM324-.LFBB25
 2328               	.LM324:
 2329 07f0 80EC      		ldi r24,lo8(-64)
 2330 07f2 90E0      		ldi r25,0
 2331 07f4 0E94 0000 		call LCD_CharWrite
 460:/home/student/avr_src/SimulIDE_1.0.0-SR1_Lin64/Timer/Timer.c **** 			}
 2332               		.stabn	68,0,460,.LM325-.LFBB25
 2333               	.LM325:
 2334 07f8 80EC      		ldi r24,lo8(-64)
 2335 07fa 90E0      		ldi r25,0
 2336 07fc 0E94 0000 		call LCD_CharWrite
 2337               	.L103:
 462:/home/student/avr_src/SimulIDE_1.0.0-SR1_Lin64/Timer/Timer.c **** 			LCD_CharWrite(num2lcdbyte((5)));
 2338               		.stabn	68,0,462,.LM326-.LFBB25
 2339               	.LM326:
 2340 0800 81E0      		ldi r24,lo8(1)
 2341 0802 0E94 0000 		call I2C_LCD_MoveLeft
 463:/home/student/avr_src/SimulIDE_1.0.0-SR1_Lin64/Timer/Timer.c **** 			LCD_CharWrite(num2lcdbyte((sec-1)%10));
 2342               		.stabn	68,0,463,.LM327-.LFBB25
 2343               	.LM327:
 2344 0806 81E5      		ldi r24,lo8(81)
 2345 0808 91E3      		ldi r25,lo8(49)
 2346 080a 00C0      		rjmp .L116
 2347               	.L101:
 471:/home/student/avr_src/SimulIDE_1.0.0-SR1_Lin64/Timer/Timer.c **** 			if(sec % 10 == 0){
 2348               		.stabn	68,0,471,.LM328-.LFBB25
 2349               	.LM328:
 2350 080c 8091 0000 		lds r24,sec
 2351 0810 8A30      		cpi r24,lo8(10)
 2352 0812 01F0      		breq .L104
 472:/home/student/avr_src/SimulIDE_1.0.0-SR1_Lin64/Timer/Timer.c **** 				I2C_LCD_MoveLeft(1);
 2353               		.stabn	68,0,472,.LM329-.LFBB25
 2354               	.LM329:
 2355 0814 8091 0000 		lds r24,sec
 2356 0818 CAE0      		ldi r28,lo8(10)
 2357 081a 6C2F      		mov r22,r28
 2358 081c 0E94 0000 		call __udivmodqi4
 473:/home/student/avr_src/SimulIDE_1.0.0-SR1_Lin64/Timer/Timer.c **** 				LCD_CharWrite(num2lcdbyte((sec/10 -1)));
 2359               		.stabn	68,0,473,.LM330-.LFBB25
 2360               	.LM330:
 2361 0820 81E0      		ldi r24,lo8(1)
 472:/home/student/avr_src/SimulIDE_1.0.0-SR1_Lin64/Timer/Timer.c **** 				I2C_LCD_MoveLeft(1);
 2362               		.stabn	68,0,472,.LM331-.LFBB25
 2363               	.LM331:
 2364 0822 9111      		cpse r25,__zero_reg__
 2365 0824 00C0      		rjmp .L105
 473:/home/student/avr_src/SimulIDE_1.0.0-SR1_Lin64/Timer/Timer.c **** 				LCD_CharWrite(num2lcdbyte((sec/10 -1)));
 2366               		.stabn	68,0,473,.LM332-.LFBB25
 2367               	.LM332:
 2368 0826 0E94 0000 		call I2C_LCD_MoveLeft
 474:/home/student/avr_src/SimulIDE_1.0.0-SR1_Lin64/Timer/Timer.c **** 			}
 2369               		.stabn	68,0,474,.LM333-.LFBB25
 2370               	.LM333:
 2371 082a 8091 0000 		lds r24,sec
 2372 082e 6C2F      		mov r22,r28
 2373 0830 0E94 0000 		call __udivmodqi4
 2374 0834 8150      		subi r24,lo8(-(-1))
 2375 0836 00C0      		rjmp .L115
 2376               	.L105:
 477:/home/student/avr_src/SimulIDE_1.0.0-SR1_Lin64/Timer/Timer.c **** 				LCD_CharWrite(num2lcdbyte((sec/10)));
 2377               		.stabn	68,0,477,.LM334-.LFBB25
 2378               	.LM334:
 2379 0838 0E94 0000 		call I2C_LCD_MoveLeft
 478:/home/student/avr_src/SimulIDE_1.0.0-SR1_Lin64/Timer/Timer.c **** 			}
 2380               		.stabn	68,0,478,.LM335-.LFBB25
 2381               	.LM335:
 2382 083c 8091 0000 		lds r24,sec
 2383 0840 6C2F      		mov r22,r28
 2384 0842 0E94 0000 		call __udivmodqi4
 2385               	.L115:
 2386 0846 0E94 0000 		call num2lcdbyte
 2387 084a 00C0      		rjmp .L116
 2388               	.L104:
 487:/home/student/avr_src/SimulIDE_1.0.0-SR1_Lin64/Timer/Timer.c **** 			I2C_LCD_MoveLeft(1);
 2389               		.stabn	68,0,487,.LM336-.LFBB25
 2390               	.LM336:
 2391 084c 8091 0000 		lds r24,sec
 2392 0850 8A30      		cpi r24,lo8(10)
 2393 0852 01F4      		brne .L93
 488:/home/student/avr_src/SimulIDE_1.0.0-SR1_Lin64/Timer/Timer.c **** 			LCD_CharWrite(num2lcdbyte((0)));
 2394               		.stabn	68,0,488,.LM337-.LFBB25
 2395               	.LM337:
 2396 0854 81E0      		ldi r24,lo8(1)
 2397 0856 0E94 0000 		call I2C_LCD_MoveLeft
 489:/home/student/avr_src/SimulIDE_1.0.0-SR1_Lin64/Timer/Timer.c **** 			LCD_CharWrite(num2lcdbyte((sec-1)%10));
 2398               		.stabn	68,0,489,.LM338-.LFBB25
 2399               	.LM338:
 2400 085a 81E0      		ldi r24,lo8(1)
 2401 085c 91E3      		ldi r25,lo8(49)
 2402               	.L116:
 2403 085e 0E94 0000 		call LCD_CharWrite
 490:/home/student/avr_src/SimulIDE_1.0.0-SR1_Lin64/Timer/Timer.c **** 			I2C_LCD_MoveLeft(1);
 2404               		.stabn	68,0,490,.LM339-.LFBB25
 2405               	.LM339:
 2406 0862 8091 0000 		lds r24,sec
 2407 0866 90E0      		ldi r25,0
 2408 0868 0197      		sbiw r24,1
 2409 086a 6AE0      		ldi r22,lo8(10)
 2410 086c 70E0      		ldi r23,0
 2411 086e 0E94 0000 		call __divmodhi4
 2412 0872 0E94 0000 		call num2lcdbyte
 2413 0876 0E94 0000 		call LCD_CharWrite
 491:/home/student/avr_src/SimulIDE_1.0.0-SR1_Lin64/Timer/Timer.c **** 			LCD_CharWrite(0x00C0);
 2414               		.stabn	68,0,491,.LM340-.LFBB25
 2415               	.LM340:
 2416 087a 81E0      		ldi r24,lo8(1)
 2417 087c 0E94 0000 		call I2C_LCD_MoveLeft
 492:/home/student/avr_src/SimulIDE_1.0.0-SR1_Lin64/Timer/Timer.c **** 			LCD_CharWrite(0x00C0);
 2418               		.stabn	68,0,492,.LM341-.LFBB25
 2419               	.LM341:
 2420 0880 80EC      		ldi r24,lo8(-64)
 2421 0882 90E0      		ldi r25,0
 2422 0884 0E94 0000 		call LCD_CharWrite
 493:/home/student/avr_src/SimulIDE_1.0.0-SR1_Lin64/Timer/Timer.c **** 			time_10ms = 99;
 2423               		.stabn	68,0,493,.LM342-.LFBB25
 2424               	.LM342:
 2425 0888 80EC      		ldi r24,lo8(-64)
 2426 088a 90E0      		ldi r25,0
 2427 088c 0E94 0000 		call LCD_CharWrite
 494:/home/student/avr_src/SimulIDE_1.0.0-SR1_Lin64/Timer/Timer.c **** 			--sec;
 2428               		.stabn	68,0,494,.LM343-.LFBB25
 2429               	.LM343:
 2430 0890 83E6      		ldi r24,lo8(99)
 2431 0892 90E0      		ldi r25,0
 2432 0894 9093 0000 		sts time_10ms+1,r25
 2433 0898 8093 0000 		sts time_10ms,r24
 495:/home/student/avr_src/SimulIDE_1.0.0-SR1_Lin64/Timer/Timer.c **** 		}
 2434               		.stabn	68,0,495,.LM344-.LFBB25
 2435               	.LM344:
 2436 089c 8091 0000 		lds r24,sec
 2437 08a0 8150      		subi r24,lo8(-(-1))
 2438 08a2 8093 0000 		sts sec,r24
 2439               	.L93:
 2440               	/* epilogue start */
 503:/home/student/avr_src/SimulIDE_1.0.0-SR1_Lin64/Timer/Timer.c **** //====================================================
 2441               		.stabn	68,0,503,.LM345-.LFBB25
 2442               	.LM345:
 2443 08a6 CF91      		pop r28
 2444 08a8 0895      		ret
 2445               		.size	I2C_Timer_act, .-I2C_Timer_act
 2446               	.Lscope25:
 2447               		.stabs	"",36,0,0,.Lscope25-.LFBB25
 2448               		.stabd	78,0,0
 2449               		.stabs	"I2C_LCD_SELECT:F(0,49)",36,0,523,I2C_LCD_SELECT
 2450               	.global	I2C_LCD_SELECT
 2451               		.type	I2C_LCD_SELECT, @function
 2452               	I2C_LCD_SELECT:
 2453               		.stabd	46,0,0
 523:/home/student/avr_src/SimulIDE_1.0.0-SR1_Lin64/Timer/Timer.c **** 	sel_flag ^= 1;
 2454               		.stabn	68,0,523,.LM346-.LFBB26
 2455               	.LM346:
 2456               	.LFBB26:
 2457               	/* prologue: function */
 2458               	/* frame size = 0 */
 2459               	/* stack size = 0 */
 2460               	.L__stack_usage = 0
 524:/home/student/avr_src/SimulIDE_1.0.0-SR1_Lin64/Timer/Timer.c **** 	if(sel_flag){
 2461               		.stabn	68,0,524,.LM347-.LFBB26
 2462               	.LM347:
 2463 08aa 9091 0000 		lds r25,sel_flag
 2464 08ae 81E0      		ldi r24,lo8(1)
 2465 08b0 8927      		eor r24,r25
 2466 08b2 8093 0000 		sts sel_flag,r24
 525:/home/student/avr_src/SimulIDE_1.0.0-SR1_Lin64/Timer/Timer.c **** 		LCD_CharWrite(0x00F0);
 2467               		.stabn	68,0,525,.LM348-.LFBB26
 2468               	.LM348:
 2469 08b6 8091 0000 		lds r24,sel_flag
 2470 08ba 8823      		tst r24
 2471 08bc 01F0      		breq .L119
 2472               	.LBB184:
 2473               	.LBB185:
 526:/home/student/avr_src/SimulIDE_1.0.0-SR1_Lin64/Timer/Timer.c **** 		LCD_CharWrite(0x00F0);
 2474               		.stabn	68,0,526,.LM349-.LFBB26
 2475               	.LM349:
 2476 08be 80EF      		ldi r24,lo8(-16)
 2477 08c0 90E0      		ldi r25,0
 2478 08c2 0E94 0000 		call LCD_CharWrite
 527:/home/student/avr_src/SimulIDE_1.0.0-SR1_Lin64/Timer/Timer.c **** 	} 
 2479               		.stabn	68,0,527,.LM350-.LFBB26
 2480               	.LM350:
 2481 08c6 80EF      		ldi r24,lo8(-16)
 2482 08c8 90E0      		ldi r25,0
 2483 08ca 00C0      		rjmp .L120
 2484               	.L119:
 2485               	.LBE185:
 2486               	.LBE184:
 530:/home/student/avr_src/SimulIDE_1.0.0-SR1_Lin64/Timer/Timer.c **** 		LCD_CharWrite(0x00E0);
 2487               		.stabn	68,0,530,.LM351-.LFBB26
 2488               	.LM351:
 2489 08cc 80EE      		ldi r24,lo8(-32)
 2490 08ce 90E0      		ldi r25,0
 2491 08d0 0E94 0000 		call LCD_CharWrite
 531:/home/student/avr_src/SimulIDE_1.0.0-SR1_Lin64/Timer/Timer.c **** 	}
 2492               		.stabn	68,0,531,.LM352-.LFBB26
 2493               	.LM352:
 2494 08d4 80EE      		ldi r24,lo8(-32)
 2495 08d6 90E0      		ldi r25,0
 2496               	.L120:
 2497 08d8 0C94 0000 		jmp LCD_CharWrite
 2498               		.size	I2C_LCD_SELECT, .-I2C_LCD_SELECT
 2499               	.Lscope26:
 2500               		.stabs	"",36,0,0,.Lscope26-.LFBB26
 2501               		.stabd	78,0,0
 2502               		.stabs	"LCD_NEBIT:F(0,49)",36,0,979,LCD_NEBIT
 2503               		.stabs	"byte:P(0,13)",64,0,979,24
 2504               	.global	LCD_NEBIT
 2505               		.type	LCD_NEBIT, @function
 2506               	LCD_NEBIT:
 2507               		.stabd	46,0,0
 979:/home/student/avr_src/SimulIDE_1.0.0-SR1_Lin64/Timer/Timer.c **** 	write_AT24Cxx_i2c_LCDAddressing(byte);
 2508               		.stabn	68,0,979,.LM353-.LFBB27
 2509               	.LM353:
 2510               	.LFBB27:
 2511               	/* prologue: function */
 2512               	/* frame size = 0 */
 2513               	/* stack size = 0 */
 2514               	.L__stack_usage = 0
 2515               		.stabn	68,0,980,.LM354-.LFBB27
 2516               	.LM354:
 2517 08dc 0C94 0000 		jmp write_AT24Cxx_i2c_LCDAddressing
 2518               		.size	LCD_NEBIT, .-LCD_NEBIT
 2519               	.Lscope27:
 2520               		.stabs	"",36,0,0,.Lscope27-.LFBB27
 2521               		.stabd	78,0,0
 2522               		.stabs	"q_isFull:F(0,54)",36,0,1003,q_isFull
 2523               	.global	q_isFull
 2524               		.type	q_isFull, @function
 2525               	q_isFull:
 2526               		.stabd	46,0,0
 981:/home/student/avr_src/SimulIDE_1.0.0-SR1_Lin64/Timer/Timer.c **** }
 982:/home/student/avr_src/SimulIDE_1.0.0-SR1_Lin64/Timer/Timer.c **** //====================================================
 983:/home/student/avr_src/SimulIDE_1.0.0-SR1_Lin64/Timer/Timer.c **** void q_push(unsigned char data){
 984:/home/student/avr_src/SimulIDE_1.0.0-SR1_Lin64/Timer/Timer.c ****     if(q_isFull()){
 985:/home/student/avr_src/SimulIDE_1.0.0-SR1_Lin64/Timer/Timer.c ****         return;
 986:/home/student/avr_src/SimulIDE_1.0.0-SR1_Lin64/Timer/Timer.c ****     }
 987:/home/student/avr_src/SimulIDE_1.0.0-SR1_Lin64/Timer/Timer.c ****     q[ptr_write] = data;
 988:/home/student/avr_src/SimulIDE_1.0.0-SR1_Lin64/Timer/Timer.c ****     ptr_write++;
 989:/home/student/avr_src/SimulIDE_1.0.0-SR1_Lin64/Timer/Timer.c ****     ptr_write &= (Q_LENGTH-1);
 990:/home/student/avr_src/SimulIDE_1.0.0-SR1_Lin64/Timer/Timer.c **** }
 991:/home/student/avr_src/SimulIDE_1.0.0-SR1_Lin64/Timer/Timer.c **** 
 992:/home/student/avr_src/SimulIDE_1.0.0-SR1_Lin64/Timer/Timer.c **** unsigned char q_pop(){
 993:/home/student/avr_src/SimulIDE_1.0.0-SR1_Lin64/Timer/Timer.c ****     if(q_isEmpty()){
 994:/home/student/avr_src/SimulIDE_1.0.0-SR1_Lin64/Timer/Timer.c ****         return -1;
 995:/home/student/avr_src/SimulIDE_1.0.0-SR1_Lin64/Timer/Timer.c ****     }
 996:/home/student/avr_src/SimulIDE_1.0.0-SR1_Lin64/Timer/Timer.c ****     unsigned char q_tmp;
 997:/home/student/avr_src/SimulIDE_1.0.0-SR1_Lin64/Timer/Timer.c ****     q_tmp = q[ptr_read];
 998:/home/student/avr_src/SimulIDE_1.0.0-SR1_Lin64/Timer/Timer.c ****     ptr_read++;
 999:/home/student/avr_src/SimulIDE_1.0.0-SR1_Lin64/Timer/Timer.c ****     ptr_read &= (Q_LENGTH-1);
1000:/home/student/avr_src/SimulIDE_1.0.0-SR1_Lin64/Timer/Timer.c ****     return q_tmp;
1001:/home/student/avr_src/SimulIDE_1.0.0-SR1_Lin64/Timer/Timer.c **** }
1002:/home/student/avr_src/SimulIDE_1.0.0-SR1_Lin64/Timer/Timer.c **** 
1003:/home/student/avr_src/SimulIDE_1.0.0-SR1_Lin64/Timer/Timer.c **** bool q_isFull(){
 2527               		.stabn	68,0,1003,.LM355-.LFBB28
 2528               	.LM355:
 2529               	.LFBB28:
 2530               	/* prologue: function */
 2531               	/* frame size = 0 */
 2532               	/* stack size = 0 */
 2533               	.L__stack_usage = 0
1004:/home/student/avr_src/SimulIDE_1.0.0-SR1_Lin64/Timer/Timer.c ****     if(ptr_write - ptr_read >= Q_LENGTH -1){
 2534               		.stabn	68,0,1004,.LM356-.LFBB28
 2535               	.LM356:
 2536 08e0 2091 0000 		lds r18,ptr_write
 2537 08e4 8091 0000 		lds r24,ptr_read
 2538 08e8 30E0      		ldi r19,0
 2539 08ea 281B      		sub r18,r24
 2540 08ec 3109      		sbc r19,__zero_reg__
 2541 08ee 81E0      		ldi r24,lo8(1)
 2542 08f0 90E0      		ldi r25,0
 2543 08f2 2F30      		cpi r18,15
 2544 08f4 3105      		cpc r19,__zero_reg__
 2545 08f6 04F4      		brge .L123
 2546 08f8 80E0      		ldi r24,0
 2547 08fa 90E0      		ldi r25,0
 2548               	.L123:
1005:/home/student/avr_src/SimulIDE_1.0.0-SR1_Lin64/Timer/Timer.c ****         return true;
1006:/home/student/avr_src/SimulIDE_1.0.0-SR1_Lin64/Timer/Timer.c ****     }
1007:/home/student/avr_src/SimulIDE_1.0.0-SR1_Lin64/Timer/Timer.c ****     else{
1008:/home/student/avr_src/SimulIDE_1.0.0-SR1_Lin64/Timer/Timer.c ****         return false;
1009:/home/student/avr_src/SimulIDE_1.0.0-SR1_Lin64/Timer/Timer.c ****     }
1010:/home/student/avr_src/SimulIDE_1.0.0-SR1_Lin64/Timer/Timer.c **** }   
 2549               		.stabn	68,0,1010,.LM357-.LFBB28
 2550               	.LM357:
 2551 08fc 0895      		ret
 2552               		.size	q_isFull, .-q_isFull
 2553               	.Lscope28:
 2554               		.stabs	"",36,0,0,.Lscope28-.LFBB28
 2555               		.stabd	78,0,0
 2556               		.stabs	"q_push:F(0,49)",36,0,983,q_push
 2557               		.stabs	"data:P(0,13)",64,0,983,28
 2558               	.global	q_push
 2559               		.type	q_push, @function
 2560               	q_push:
 2561               		.stabd	46,0,0
 983:/home/student/avr_src/SimulIDE_1.0.0-SR1_Lin64/Timer/Timer.c ****     if(q_isFull()){
 2562               		.stabn	68,0,983,.LM358-.LFBB29
 2563               	.LM358:
 2564               	.LFBB29:
 2565 08fe CF93      		push r28
 2566               	/* prologue: function */
 2567               	/* frame size = 0 */
 2568               	/* stack size = 1 */
 2569               	.L__stack_usage = 1
 2570 0900 C82F      		mov r28,r24
 984:/home/student/avr_src/SimulIDE_1.0.0-SR1_Lin64/Timer/Timer.c ****         return;
 2571               		.stabn	68,0,984,.LM359-.LFBB29
 2572               	.LM359:
 2573 0902 0E94 0000 		call q_isFull
 2574 0906 892B      		or r24,r25
 2575 0908 01F4      		brne .L124
 2576               	.LBB188:
 2577               	.LBB189:
 987:/home/student/avr_src/SimulIDE_1.0.0-SR1_Lin64/Timer/Timer.c ****     ptr_write++;
 2578               		.stabn	68,0,987,.LM360-.LFBB29
 2579               	.LM360:
 2580 090a E091 0000 		lds r30,ptr_write
 2581 090e F0E0      		ldi r31,0
 2582 0910 E050      		subi r30,lo8(-(q))
 2583 0912 F040      		sbci r31,hi8(-(q))
 2584 0914 C083      		st Z,r28
 988:/home/student/avr_src/SimulIDE_1.0.0-SR1_Lin64/Timer/Timer.c ****     ptr_write &= (Q_LENGTH-1);
 2585               		.stabn	68,0,988,.LM361-.LFBB29
 2586               	.LM361:
 2587 0916 8091 0000 		lds r24,ptr_write
 2588 091a 8F5F      		subi r24,lo8(-(1))
 2589 091c 8093 0000 		sts ptr_write,r24
 989:/home/student/avr_src/SimulIDE_1.0.0-SR1_Lin64/Timer/Timer.c **** }
 2590               		.stabn	68,0,989,.LM362-.LFBB29
 2591               	.LM362:
 2592 0920 8091 0000 		lds r24,ptr_write
 2593 0924 8F70      		andi r24,lo8(15)
 2594 0926 8093 0000 		sts ptr_write,r24
 2595               	.L124:
 2596               	/* epilogue start */
 2597               	.LBE189:
 2598               	.LBE188:
 990:/home/student/avr_src/SimulIDE_1.0.0-SR1_Lin64/Timer/Timer.c **** 
 2599               		.stabn	68,0,990,.LM363-.LFBB29
 2600               	.LM363:
 2601 092a CF91      		pop r28
 2602 092c 0895      		ret
 2603               		.size	q_push, .-q_push
 2604               	.Lscope29:
 2605               		.stabs	"",36,0,0,.Lscope29-.LFBB29
 2606               		.stabd	78,0,0
 2607               		.stabs	"__vector_11:F(0,49)",36,0,537,__vector_11
 2608               	.global	__vector_11
 2609               		.type	__vector_11, @function
 2610               	__vector_11:
 2611               		.stabd	46,0,0
 537:/home/student/avr_src/SimulIDE_1.0.0-SR1_Lin64/Timer/Timer.c **** //@@@@@@@@@@@@@@@@@@@@@@@@@@@@@@@@@@@@@@@@@@@@@@@@@@@@
 2612               		.stabn	68,0,537,.LM364-.LFBB30
 2613               	.LM364:
 2614               	.LFBB30:
 2615 092e 1F92      		push r1
 2616 0930 0F92      		push r0
 2617 0932 0FB6      		in r0,__SREG__
 2618 0934 0F92      		push r0
 2619 0936 1124      		clr __zero_reg__
 2620 0938 2F93      		push r18
 2621 093a 3F93      		push r19
 2622 093c 4F93      		push r20
 2623 093e 5F93      		push r21
 2624 0940 6F93      		push r22
 2625 0942 7F93      		push r23
 2626 0944 8F93      		push r24
 2627 0946 9F93      		push r25
 2628 0948 AF93      		push r26
 2629 094a BF93      		push r27
 2630 094c CF93      		push r28
 2631 094e DF93      		push r29
 2632 0950 EF93      		push r30
 2633 0952 FF93      		push r31
 2634               	/* prologue: Signal */
 2635               	/* frame size = 0 */
 2636               	/* stack size = 17 */
 2637               	.L__stack_usage = 17
 539:/home/student/avr_src/SimulIDE_1.0.0-SR1_Lin64/Timer/Timer.c **** 		RX_flag = 0;
 2638               		.stabn	68,0,539,.LM365-.LFBB30
 2639               	.LM365:
 2640 0954 8091 0000 		lds r24,RX_flag
 2641 0958 8823      		tst r24
 2642 095a 01F0      		breq .L128
 540:/home/student/avr_src/SimulIDE_1.0.0-SR1_Lin64/Timer/Timer.c **** 		if(IN_2_CHAR == '@' && !ETX_flag){ //STX '@'
 2643               		.stabn	68,0,540,.LM366-.LFBB30
 2644               	.LM366:
 2645 095c 1092 0000 		sts RX_flag,__zero_reg__
 541:/home/student/avr_src/SimulIDE_1.0.0-SR1_Lin64/Timer/Timer.c **** 			if(!STX_flag) {
 2646               		.stabn	68,0,541,.LM367-.LFBB30
 2647               	.LM367:
 2648 0960 8091 0000 		lds r24,IN_2_CHAR
 2649 0964 8034      		cpi r24,lo8(64)
 2650 0966 01F4      		brne .L129
 541:/home/student/avr_src/SimulIDE_1.0.0-SR1_Lin64/Timer/Timer.c **** 			if(!STX_flag) {
 2651               		.stabn	68,0,541,.LM368-.LFBB30
 2652               	.LM368:
 2653 0968 8091 0000 		lds r24,ETX_flag
 2654 096c 8111      		cpse r24,__zero_reg__
 2655 096e 00C0      		rjmp .L129
 542:/home/student/avr_src/SimulIDE_1.0.0-SR1_Lin64/Timer/Timer.c **** 				STX_flag = 1;
 2656               		.stabn	68,0,542,.LM369-.LFBB30
 2657               	.LM369:
 2658 0970 8091 0000 		lds r24,STX_flag
 2659 0974 8111      		cpse r24,__zero_reg__
 2660 0976 00C0      		rjmp .L129
 543:/home/student/avr_src/SimulIDE_1.0.0-SR1_Lin64/Timer/Timer.c **** 			}
 2661               		.stabn	68,0,543,.LM370-.LFBB30
 2662               	.LM370:
 2663 0978 81E0      		ldi r24,lo8(1)
 2664 097a 8093 0000 		sts STX_flag,r24
 2665               	.L129:
 547:/home/student/avr_src/SimulIDE_1.0.0-SR1_Lin64/Timer/Timer.c **** 			if(!ETX_flag) {
 2666               		.stabn	68,0,547,.LM371-.LFBB30
 2667               	.LM371:
 2668 097e 8091 0000 		lds r24,IN_2_CHAR
 2669 0982 8332      		cpi r24,lo8(35)
 2670 0984 01F4      		brne .L130
 547:/home/student/avr_src/SimulIDE_1.0.0-SR1_Lin64/Timer/Timer.c **** 			if(!ETX_flag) {
 2671               		.stabn	68,0,547,.LM372-.LFBB30
 2672               	.LM372:
 2673 0986 8091 0000 		lds r24,STX_flag
 2674 098a 8823      		tst r24
 2675 098c 01F0      		breq .L130
 548:/home/student/avr_src/SimulIDE_1.0.0-SR1_Lin64/Timer/Timer.c **** 				ETX_flag = 1;
 2676               		.stabn	68,0,548,.LM373-.LFBB30
 2677               	.LM373:
 2678 098e 8091 0000 		lds r24,ETX_flag
 2679 0992 8111      		cpse r24,__zero_reg__
 2680 0994 00C0      		rjmp .L130
 549:/home/student/avr_src/SimulIDE_1.0.0-SR1_Lin64/Timer/Timer.c **** 			}
 2681               		.stabn	68,0,549,.LM374-.LFBB30
 2682               	.LM374:
 2683 0996 81E0      		ldi r24,lo8(1)
 2684 0998 8093 0000 		sts ETX_flag,r24
 2685               	.L130:
 553:/home/student/avr_src/SimulIDE_1.0.0-SR1_Lin64/Timer/Timer.c **** 			if(ETX_flag){
 2686               		.stabn	68,0,553,.LM375-.LFBB30
 2687               	.LM375:
 2688 099c 8091 0000 		lds r24,STX_flag
 2689 09a0 8823      		tst r24
 2690 09a2 01F0      		breq .L128
 554:/home/student/avr_src/SimulIDE_1.0.0-SR1_Lin64/Timer/Timer.c **** 				STX_flag = 0;
 2691               		.stabn	68,0,554,.LM376-.LFBB30
 2692               	.LM376:
 2693 09a4 8091 0000 		lds r24,ETX_flag
 2694 09a8 8823      		tst r24
 2695 09aa 01F0      		breq .L132
 555:/home/student/avr_src/SimulIDE_1.0.0-SR1_Lin64/Timer/Timer.c **** 				ETX_flag = 0;
 2696               		.stabn	68,0,555,.LM377-.LFBB30
 2697               	.LM377:
 2698 09ac 1092 0000 		sts STX_flag,__zero_reg__
 556:/home/student/avr_src/SimulIDE_1.0.0-SR1_Lin64/Timer/Timer.c **** 				q_push('#');
 2699               		.stabn	68,0,556,.LM378-.LFBB30
 2700               	.LM378:
 2701 09b0 1092 0000 		sts ETX_flag,__zero_reg__
 557:/home/student/avr_src/SimulIDE_1.0.0-SR1_Lin64/Timer/Timer.c **** 				Command_flag = 1;
 2702               		.stabn	68,0,557,.LM379-.LFBB30
 2703               	.LM379:
 2704 09b4 83E2      		ldi r24,lo8(35)
 2705 09b6 0E94 0000 		call q_push
 558:/home/student/avr_src/SimulIDE_1.0.0-SR1_Lin64/Timer/Timer.c **** 				return;
 2706               		.stabn	68,0,558,.LM380-.LFBB30
 2707               	.LM380:
 2708 09ba 81E0      		ldi r24,lo8(1)
 2709 09bc 8093 0000 		sts Command_flag,r24
 559:/home/student/avr_src/SimulIDE_1.0.0-SR1_Lin64/Timer/Timer.c **** 			}
 2710               		.stabn	68,0,559,.LM381-.LFBB30
 2711               	.LM381:
 2712 09c0 00C0      		rjmp .L126
 2713               	.L132:
 561:/home/student/avr_src/SimulIDE_1.0.0-SR1_Lin64/Timer/Timer.c **** 		}
 2714               		.stabn	68,0,561,.LM382-.LFBB30
 2715               	.LM382:
 2716 09c2 8091 0000 		lds r24,IN_2_CHAR
 2717 09c6 0E94 0000 		call q_push
 2718               	.L128:
 565:/home/student/avr_src/SimulIDE_1.0.0-SR1_Lin64/Timer/Timer.c **** 		if(time_1s) time_1s--;
 2719               		.stabn	68,0,565,.LM383-.LFBB30
 2720               	.LM383:
 2721 09ca 8091 0000 		lds r24,timer_start_flag
 2722 09ce 8823      		tst r24
 2723 09d0 01F4      		brne .+2
 2724 09d2 00C0      		rjmp .L135
 566:/home/student/avr_src/SimulIDE_1.0.0-SR1_Lin64/Timer/Timer.c **** 		if(time_10ms) {
 2725               		.stabn	68,0,566,.LM384-.LFBB30
 2726               	.LM384:
 2727 09d4 8091 0000 		lds r24,time_1s
 2728 09d8 9091 0000 		lds r25,time_1s+1
 2729 09dc 892B      		or r24,r25
 2730 09de 01F0      		breq .L136
 566:/home/student/avr_src/SimulIDE_1.0.0-SR1_Lin64/Timer/Timer.c **** 		if(time_10ms) {
 2731               		.stabn	68,0,566,.LM385-.LFBB30
 2732               	.LM385:
 2733 09e0 8091 0000 		lds r24,time_1s
 2734 09e4 9091 0000 		lds r25,time_1s+1
 2735 09e8 0197      		sbiw r24,1
 2736 09ea 9093 0000 		sts time_1s+1,r25
 2737 09ee 8093 0000 		sts time_1s,r24
 2738               	.L136:
 567:/home/student/avr_src/SimulIDE_1.0.0-SR1_Lin64/Timer/Timer.c **** 			time_10ms--;
 2739               		.stabn	68,0,567,.LM386-.LFBB30
 2740               	.LM386:
 2741 09f2 8091 0000 		lds r24,time_10ms
 2742 09f6 9091 0000 		lds r25,time_10ms+1
 2743 09fa 892B      		or r24,r25
 2744 09fc 01F0      		breq .L135
 568:/home/student/avr_src/SimulIDE_1.0.0-SR1_Lin64/Timer/Timer.c **** 			I2C_LCD_MoveRight(2);
 2745               		.stabn	68,0,568,.LM387-.LFBB30
 2746               	.LM387:
 2747 09fe 8091 0000 		lds r24,time_10ms
 2748 0a02 9091 0000 		lds r25,time_10ms+1
 2749 0a06 0197      		sbiw r24,1
 2750 0a08 9093 0000 		sts time_10ms+1,r25
 2751 0a0c 8093 0000 		sts time_10ms,r24
 569:/home/student/avr_src/SimulIDE_1.0.0-SR1_Lin64/Timer/Timer.c **** 			LCD_CharWrite(num2lcdbyte(time_10ms/10));
 2752               		.stabn	68,0,569,.LM388-.LFBB30
 2753               	.LM388:
 2754 0a10 82E0      		ldi r24,lo8(2)
 2755 0a12 0E94 0000 		call I2C_LCD_MoveRight
 570:/home/student/avr_src/SimulIDE_1.0.0-SR1_Lin64/Timer/Timer.c **** 			LCD_CharWrite(num2lcdbyte(time_10ms % 10));
 2756               		.stabn	68,0,570,.LM389-.LFBB30
 2757               	.LM389:
 2758 0a16 8091 0000 		lds r24,time_10ms
 2759 0a1a 9091 0000 		lds r25,time_10ms+1
 2760 0a1e CAE0      		ldi r28,lo8(10)
 2761 0a20 D0E0      		ldi r29,0
 2762 0a22 BE01      		movw r22,r28
 2763 0a24 0E94 0000 		call __udivmodhi4
 2764 0a28 862F      		mov r24,r22
 2765 0a2a 0E94 0000 		call num2lcdbyte
 2766 0a2e 0E94 0000 		call LCD_CharWrite
 571:/home/student/avr_src/SimulIDE_1.0.0-SR1_Lin64/Timer/Timer.c **** 			I2C_LCD_MoveLeft(4);
 2767               		.stabn	68,0,571,.LM390-.LFBB30
 2768               	.LM390:
 2769 0a32 8091 0000 		lds r24,time_10ms
 2770 0a36 9091 0000 		lds r25,time_10ms+1
 2771 0a3a BE01      		movw r22,r28
 2772 0a3c 0E94 0000 		call __udivmodhi4
 2773 0a40 0E94 0000 		call num2lcdbyte
 2774 0a44 0E94 0000 		call LCD_CharWrite
 572:/home/student/avr_src/SimulIDE_1.0.0-SR1_Lin64/Timer/Timer.c **** 			LCD_CharWrite(0x00C0);
 2775               		.stabn	68,0,572,.LM391-.LFBB30
 2776               	.LM391:
 2777 0a48 84E0      		ldi r24,lo8(4)
 2778 0a4a 0E94 0000 		call I2C_LCD_MoveLeft
 573:/home/student/avr_src/SimulIDE_1.0.0-SR1_Lin64/Timer/Timer.c **** 			LCD_CharWrite(0x00C0);
 2779               		.stabn	68,0,573,.LM392-.LFBB30
 2780               	.LM392:
 2781 0a4e 80EC      		ldi r24,lo8(-64)
 2782 0a50 90E0      		ldi r25,0
 2783 0a52 0E94 0000 		call LCD_CharWrite
 574:/home/student/avr_src/SimulIDE_1.0.0-SR1_Lin64/Timer/Timer.c **** 		}
 2784               		.stabn	68,0,574,.LM393-.LFBB30
 2785               	.LM393:
 2786 0a56 80EC      		ldi r24,lo8(-64)
 2787 0a58 90E0      		ldi r25,0
 2788 0a5a 0E94 0000 		call LCD_CharWrite
 2789               	.L135:
 578:/home/student/avr_src/SimulIDE_1.0.0-SR1_Lin64/Timer/Timer.c **** 	if(sel_flag && key_flag && !timer_start_flag){
 2790               		.stabn	68,0,578,.LM394-.LFBB30
 2791               	.LM394:
 2792 0a5e 0E94 0000 		call key_scan
 2793 0a62 8093 0000 		sts key_data,r24
 579:/home/student/avr_src/SimulIDE_1.0.0-SR1_Lin64/Timer/Timer.c **** 		key_flag = 0;
 2794               		.stabn	68,0,579,.LM395-.LFBB30
 2795               	.LM395:
 2796 0a66 8091 0000 		lds r24,sel_flag
 2797 0a6a 8823      		tst r24
 2798 0a6c 01F4      		brne .+2
 2799 0a6e 00C0      		rjmp .L139
 579:/home/student/avr_src/SimulIDE_1.0.0-SR1_Lin64/Timer/Timer.c **** 		key_flag = 0;
 2800               		.stabn	68,0,579,.LM396-.LFBB30
 2801               	.LM396:
 2802 0a70 8091 0000 		lds r24,key_flag
 2803 0a74 8823      		tst r24
 2804 0a76 01F4      		brne .+2
 2805 0a78 00C0      		rjmp .L139
 579:/home/student/avr_src/SimulIDE_1.0.0-SR1_Lin64/Timer/Timer.c **** 		key_flag = 0;
 2806               		.stabn	68,0,579,.LM397-.LFBB30
 2807               	.LM397:
 2808 0a7a 8091 0000 		lds r24,timer_start_flag
 2809 0a7e 8111      		cpse r24,__zero_reg__
 2810 0a80 00C0      		rjmp .L139
 580:/home/student/avr_src/SimulIDE_1.0.0-SR1_Lin64/Timer/Timer.c **** 		if(key_data == 0xff){
 2811               		.stabn	68,0,580,.LM398-.LFBB30
 2812               	.LM398:
 2813 0a82 1092 0000 		sts key_flag,__zero_reg__
 581:/home/student/avr_src/SimulIDE_1.0.0-SR1_Lin64/Timer/Timer.c ****             return;
 2814               		.stabn	68,0,581,.LM399-.LFBB30
 2815               	.LM399:
 2816 0a86 8091 0000 		lds r24,key_data
 2817 0a8a 8F3F      		cpi r24,lo8(-1)
 2818 0a8c 01F4      		brne .+2
 2819 0a8e 00C0      		rjmp .L126
 585:/home/student/avr_src/SimulIDE_1.0.0-SR1_Lin64/Timer/Timer.c **** 			if(cp.x == 5){
 2820               		.stabn	68,0,585,.LM400-.LFBB30
 2821               	.LM400:
 2822 0a90 8091 0000 		lds r24,key_data
 2823 0a94 8230      		cpi r24,lo8(2)
 2824 0a96 01F0      		breq .+2
 2825 0a98 00C0      		rjmp .L142
 586:/home/student/avr_src/SimulIDE_1.0.0-SR1_Lin64/Timer/Timer.c **** 				if((sel.MinNum + 10)< 60) {
 2826               		.stabn	68,0,586,.LM401-.LFBB30
 2827               	.LM401:
 2828 0a9a 8091 0000 		lds r24,cp
 2829 0a9e 9091 0000 		lds r25,cp+1
 2830 0aa2 0597      		sbiw r24,5
 2831 0aa4 01F4      		brne .L143
 587:/home/student/avr_src/SimulIDE_1.0.0-SR1_Lin64/Timer/Timer.c **** 					sel.MinNum = sel.MinNum + 10;
 2832               		.stabn	68,0,587,.LM402-.LFBB30
 2833               	.LM402:
 2834 0aa6 8091 0000 		lds r24,sel+10
 2835 0aaa 9091 0000 		lds r25,sel+10+1
 2836 0aae C297      		sbiw r24,50
 2837 0ab0 04F4      		brge .L144
 588:/home/student/avr_src/SimulIDE_1.0.0-SR1_Lin64/Timer/Timer.c **** 					sel.n1++;
 2838               		.stabn	68,0,588,.LM403-.LFBB30
 2839               	.LM403:
 2840 0ab2 8091 0000 		lds r24,sel+10
 2841 0ab6 9091 0000 		lds r25,sel+10+1
 2842 0aba 0A96      		adiw r24,10
 2843 0abc 9093 0000 		sts sel+10+1,r25
 2844 0ac0 8093 0000 		sts sel+10,r24
 589:/home/student/avr_src/SimulIDE_1.0.0-SR1_Lin64/Timer/Timer.c **** 				}
 2845               		.stabn	68,0,589,.LM404-.LFBB30
 2846               	.LM404:
 2847 0ac4 8091 0000 		lds r24,sel
 2848 0ac8 9091 0000 		lds r25,sel+1
 2849 0acc 0196      		adiw r24,1
 2850 0ace 9093 0000 		sts sel+1,r25
 2851 0ad2 8093 0000 		sts sel,r24
 2852               	.L144:
 591:/home/student/avr_src/SimulIDE_1.0.0-SR1_Lin64/Timer/Timer.c ****         		LCD_CharWrite(0x1000);
 2853               		.stabn	68,0,591,.LM405-.LFBB30
 2854               	.LM405:
 2855 0ad6 8091 0000 		lds r24,sel
 2856 0ada 9091 0000 		lds r25,sel+1
 2857 0ade 00C0      		rjmp .L201
 2858               	.L143:
 595:/home/student/avr_src/SimulIDE_1.0.0-SR1_Lin64/Timer/Timer.c **** 				if(sel.MinNum < 9) {
 2859               		.stabn	68,0,595,.LM406-.LFBB30
 2860               	.LM406:
 2861 0ae0 8091 0000 		lds r24,cp
 2862 0ae4 9091 0000 		lds r25,cp+1
 2863 0ae8 0697      		sbiw r24,6
 2864 0aea 01F4      		brne .L145
 596:/home/student/avr_src/SimulIDE_1.0.0-SR1_Lin64/Timer/Timer.c **** 					sel.MinNum++;
 2865               		.stabn	68,0,596,.LM407-.LFBB30
 2866               	.LM407:
 2867 0aec 8091 0000 		lds r24,sel+10
 2868 0af0 9091 0000 		lds r25,sel+10+1
 2869 0af4 0997      		sbiw r24,9
 2870 0af6 04F4      		brge .L146
 597:/home/student/avr_src/SimulIDE_1.0.0-SR1_Lin64/Timer/Timer.c **** 					sel.n2++;
 2871               		.stabn	68,0,597,.LM408-.LFBB30
 2872               	.LM408:
 2873 0af8 8091 0000 		lds r24,sel+10
 2874 0afc 9091 0000 		lds r25,sel+10+1
 2875 0b00 0196      		adiw r24,1
 2876 0b02 9093 0000 		sts sel+10+1,r25
 2877 0b06 8093 0000 		sts sel+10,r24
 598:/home/student/avr_src/SimulIDE_1.0.0-SR1_Lin64/Timer/Timer.c **** 				}
 2878               		.stabn	68,0,598,.LM409-.LFBB30
 2879               	.LM409:
 2880 0b0a 8091 0000 		lds r24,sel+2
 2881 0b0e 9091 0000 		lds r25,sel+2+1
 2882 0b12 0196      		adiw r24,1
 2883 0b14 9093 0000 		sts sel+2+1,r25
 2884 0b18 8093 0000 		sts sel+2,r24
 2885               	.L146:
 600:/home/student/avr_src/SimulIDE_1.0.0-SR1_Lin64/Timer/Timer.c ****         		LCD_CharWrite(0x1000);
 2886               		.stabn	68,0,600,.LM410-.LFBB30
 2887               	.LM410:
 2888 0b1c 8091 0000 		lds r24,sel+2
 2889 0b20 9091 0000 		lds r25,sel+2+1
 2890 0b24 00C0      		rjmp .L201
 2891               	.L145:
 604:/home/student/avr_src/SimulIDE_1.0.0-SR1_Lin64/Timer/Timer.c **** 				if((sel.SecNum + 10) < 60) {
 2892               		.stabn	68,0,604,.LM411-.LFBB30
 2893               	.LM411:
 2894 0b26 8091 0000 		lds r24,cp
 2895 0b2a 9091 0000 		lds r25,cp+1
 2896 0b2e 0897      		sbiw r24,8
 2897 0b30 01F4      		brne .L147
 605:/home/student/avr_src/SimulIDE_1.0.0-SR1_Lin64/Timer/Timer.c **** 					sel.SecNum = sel.SecNum + 10;
 2898               		.stabn	68,0,605,.LM412-.LFBB30
 2899               	.LM412:
 2900 0b32 8091 0000 		lds r24,sel+8
 2901 0b36 9091 0000 		lds r25,sel+8+1
 2902 0b3a C297      		sbiw r24,50
 2903 0b3c 04F4      		brge .L148
 606:/home/student/avr_src/SimulIDE_1.0.0-SR1_Lin64/Timer/Timer.c **** 					sel.n3++;
 2904               		.stabn	68,0,606,.LM413-.LFBB30
 2905               	.LM413:
 2906 0b3e 8091 0000 		lds r24,sel+8
 2907 0b42 9091 0000 		lds r25,sel+8+1
 2908 0b46 0A96      		adiw r24,10
 2909 0b48 9093 0000 		sts sel+8+1,r25
 2910 0b4c 8093 0000 		sts sel+8,r24
 607:/home/student/avr_src/SimulIDE_1.0.0-SR1_Lin64/Timer/Timer.c **** 				}
 2911               		.stabn	68,0,607,.LM414-.LFBB30
 2912               	.LM414:
 2913 0b50 8091 0000 		lds r24,sel+4
 2914 0b54 9091 0000 		lds r25,sel+4+1
 2915 0b58 0196      		adiw r24,1
 2916 0b5a 9093 0000 		sts sel+4+1,r25
 2917 0b5e 8093 0000 		sts sel+4,r24
 2918               	.L148:
 609:/home/student/avr_src/SimulIDE_1.0.0-SR1_Lin64/Timer/Timer.c ****         		LCD_CharWrite(0x1000);
 2919               		.stabn	68,0,609,.LM415-.LFBB30
 2920               	.LM415:
 2921 0b62 8091 0000 		lds r24,sel+4
 2922 0b66 9091 0000 		lds r25,sel+4+1
 2923 0b6a 00C0      		rjmp .L201
 2924               	.L147:
 613:/home/student/avr_src/SimulIDE_1.0.0-SR1_Lin64/Timer/Timer.c **** 				if(sel.SecNum < 9) {
 2925               		.stabn	68,0,613,.LM416-.LFBB30
 2926               	.LM416:
 2927 0b6c 8091 0000 		lds r24,cp
 2928 0b70 9091 0000 		lds r25,cp+1
 2929 0b74 0997      		sbiw r24,9
 2930 0b76 01F4      		brne .L142
 614:/home/student/avr_src/SimulIDE_1.0.0-SR1_Lin64/Timer/Timer.c **** 					sel.SecNum++;
 2931               		.stabn	68,0,614,.LM417-.LFBB30
 2932               	.LM417:
 2933 0b78 8091 0000 		lds r24,sel+8
 2934 0b7c 9091 0000 		lds r25,sel+8+1
 2935 0b80 0997      		sbiw r24,9
 2936 0b82 04F4      		brge .L149
 615:/home/student/avr_src/SimulIDE_1.0.0-SR1_Lin64/Timer/Timer.c **** 					sel.n4++;
 2937               		.stabn	68,0,615,.LM418-.LFBB30
 2938               	.LM418:
 2939 0b84 8091 0000 		lds r24,sel+8
 2940 0b88 9091 0000 		lds r25,sel+8+1
 2941 0b8c 0196      		adiw r24,1
 2942 0b8e 9093 0000 		sts sel+8+1,r25
 2943 0b92 8093 0000 		sts sel+8,r24
 616:/home/student/avr_src/SimulIDE_1.0.0-SR1_Lin64/Timer/Timer.c **** 				}
 2944               		.stabn	68,0,616,.LM419-.LFBB30
 2945               	.LM419:
 2946 0b96 8091 0000 		lds r24,sel+6
 2947 0b9a 9091 0000 		lds r25,sel+6+1
 2948 0b9e 0196      		adiw r24,1
 2949 0ba0 9093 0000 		sts sel+6+1,r25
 2950 0ba4 8093 0000 		sts sel+6,r24
 2951               	.L149:
 618:/home/student/avr_src/SimulIDE_1.0.0-SR1_Lin64/Timer/Timer.c ****         		LCD_CharWrite(0x1000);
 2952               		.stabn	68,0,618,.LM420-.LFBB30
 2953               	.LM420:
 2954 0ba8 8091 0000 		lds r24,sel+6
 2955 0bac 9091 0000 		lds r25,sel+6+1
 2956               	.L201:
 2957 0bb0 0E94 0000 		call num2lcdbyte
 2958 0bb4 0E94 0000 		call LCD_CharWrite
 619:/home/student/avr_src/SimulIDE_1.0.0-SR1_Lin64/Timer/Timer.c ****         		LCD_CharWrite(0x00F0);
 2959               		.stabn	68,0,619,.LM421-.LFBB30
 2960               	.LM421:
 2961 0bb8 80E0      		ldi r24,0
 2962 0bba 90E1      		ldi r25,lo8(16)
 2963 0bbc 0E94 0000 		call LCD_CharWrite
 620:/home/student/avr_src/SimulIDE_1.0.0-SR1_Lin64/Timer/Timer.c **** 			}
 2964               		.stabn	68,0,620,.LM422-.LFBB30
 2965               	.LM422:
 2966 0bc0 80EF      		ldi r24,lo8(-16)
 2967 0bc2 90E0      		ldi r25,0
 2968 0bc4 0E94 0000 		call LCD_CharWrite
 2969               	.L142:
 623:/home/student/avr_src/SimulIDE_1.0.0-SR1_Lin64/Timer/Timer.c **** 			I2C_LCD_SELECT();
 2970               		.stabn	68,0,623,.LM423-.LFBB30
 2971               	.LM423:
 2972 0bc8 8091 0000 		lds r24,key_data
 2973 0bcc 8530      		cpi r24,lo8(5)
 2974 0bce 01F4      		brne .L150
 624:/home/student/avr_src/SimulIDE_1.0.0-SR1_Lin64/Timer/Timer.c **** 			TIME_SETTING(sel.MinNum, sel.SecNum);
 2975               		.stabn	68,0,624,.LM424-.LFBB30
 2976               	.LM424:
 2977 0bd0 0E94 0000 		call I2C_LCD_SELECT
 625:/home/student/avr_src/SimulIDE_1.0.0-SR1_Lin64/Timer/Timer.c **** 		}
 2978               		.stabn	68,0,625,.LM425-.LFBB30
 2979               	.LM425:
 2980 0bd4 6091 0000 		lds r22,sel+8
 2981 0bd8 7091 0000 		lds r23,sel+8+1
 2982 0bdc 8091 0000 		lds r24,sel+10
 2983 0be0 9091 0000 		lds r25,sel+10+1
 2984 0be4 0E94 0000 		call TIME_SETTING
 2985               	.L150:
 628:/home/student/avr_src/SimulIDE_1.0.0-SR1_Lin64/Timer/Timer.c **** 			if(cp.x == 5){
 2986               		.stabn	68,0,628,.LM426-.LFBB30
 2987               	.LM426:
 2988 0be8 8091 0000 		lds r24,key_data
 2989 0bec 8830      		cpi r24,lo8(8)
 2990 0bee 01F0      		breq .+2
 2991 0bf0 00C0      		rjmp .L139
 629:/home/student/avr_src/SimulIDE_1.0.0-SR1_Lin64/Timer/Timer.c **** 				if(sel.MinNum > 10 && sel.n1 > 0) {
 2992               		.stabn	68,0,629,.LM427-.LFBB30
 2993               	.LM427:
 2994 0bf2 8091 0000 		lds r24,cp
 2995 0bf6 9091 0000 		lds r25,cp+1
 2996 0bfa 0597      		sbiw r24,5
 2997 0bfc 01F4      		brne .L151
 630:/home/student/avr_src/SimulIDE_1.0.0-SR1_Lin64/Timer/Timer.c **** 					sel.MinNum = sel.MinNum - 10;
 2998               		.stabn	68,0,630,.LM428-.LFBB30
 2999               	.LM428:
 3000 0bfe 8091 0000 		lds r24,sel+10
 3001 0c02 9091 0000 		lds r25,sel+10+1
 3002 0c06 0B97      		sbiw r24,11
 3003 0c08 04F0      		brlt .L152
 630:/home/student/avr_src/SimulIDE_1.0.0-SR1_Lin64/Timer/Timer.c **** 					sel.MinNum = sel.MinNum - 10;
 3004               		.stabn	68,0,630,.LM429-.LFBB30
 3005               	.LM429:
 3006 0c0a 8091 0000 		lds r24,sel
 3007 0c0e 9091 0000 		lds r25,sel+1
 3008 0c12 1816      		cp __zero_reg__,r24
 3009 0c14 1906      		cpc __zero_reg__,r25
 3010 0c16 04F4      		brge .L152
 631:/home/student/avr_src/SimulIDE_1.0.0-SR1_Lin64/Timer/Timer.c **** 					sel.n1--;
 3011               		.stabn	68,0,631,.LM430-.LFBB30
 3012               	.LM430:
 3013 0c18 8091 0000 		lds r24,sel+10
 3014 0c1c 9091 0000 		lds r25,sel+10+1
 3015 0c20 0A97      		sbiw r24,10
 3016 0c22 9093 0000 		sts sel+10+1,r25
 3017 0c26 8093 0000 		sts sel+10,r24
 632:/home/student/avr_src/SimulIDE_1.0.0-SR1_Lin64/Timer/Timer.c **** 				}
 3018               		.stabn	68,0,632,.LM431-.LFBB30
 3019               	.LM431:
 3020 0c2a 8091 0000 		lds r24,sel
 3021 0c2e 9091 0000 		lds r25,sel+1
 3022 0c32 0197      		sbiw r24,1
 3023 0c34 9093 0000 		sts sel+1,r25
 3024 0c38 8093 0000 		sts sel,r24
 3025               	.L152:
 634:/home/student/avr_src/SimulIDE_1.0.0-SR1_Lin64/Timer/Timer.c ****         		LCD_CharWrite(0x1000);
 3026               		.stabn	68,0,634,.LM432-.LFBB30
 3027               	.LM432:
 3028 0c3c 8091 0000 		lds r24,sel
 3029 0c40 9091 0000 		lds r25,sel+1
 3030 0c44 00C0      		rjmp .L202
 3031               	.L151:
 638:/home/student/avr_src/SimulIDE_1.0.0-SR1_Lin64/Timer/Timer.c **** 				if(sel.MinNum > 0) {
 3032               		.stabn	68,0,638,.LM433-.LFBB30
 3033               	.LM433:
 3034 0c46 8091 0000 		lds r24,cp
 3035 0c4a 9091 0000 		lds r25,cp+1
 3036 0c4e 0697      		sbiw r24,6
 3037 0c50 01F4      		brne .L153
 639:/home/student/avr_src/SimulIDE_1.0.0-SR1_Lin64/Timer/Timer.c **** 					sel.MinNum--;
 3038               		.stabn	68,0,639,.LM434-.LFBB30
 3039               	.LM434:
 3040 0c52 8091 0000 		lds r24,sel+10
 3041 0c56 9091 0000 		lds r25,sel+10+1
 3042 0c5a 1816      		cp __zero_reg__,r24
 3043 0c5c 1906      		cpc __zero_reg__,r25
 3044 0c5e 04F4      		brge .L154
 640:/home/student/avr_src/SimulIDE_1.0.0-SR1_Lin64/Timer/Timer.c **** 					sel.n2--;
 3045               		.stabn	68,0,640,.LM435-.LFBB30
 3046               	.LM435:
 3047 0c60 8091 0000 		lds r24,sel+10
 3048 0c64 9091 0000 		lds r25,sel+10+1
 3049 0c68 0197      		sbiw r24,1
 3050 0c6a 9093 0000 		sts sel+10+1,r25
 3051 0c6e 8093 0000 		sts sel+10,r24
 641:/home/student/avr_src/SimulIDE_1.0.0-SR1_Lin64/Timer/Timer.c **** 				}
 3052               		.stabn	68,0,641,.LM436-.LFBB30
 3053               	.LM436:
 3054 0c72 8091 0000 		lds r24,sel+2
 3055 0c76 9091 0000 		lds r25,sel+2+1
 3056 0c7a 0197      		sbiw r24,1
 3057 0c7c 9093 0000 		sts sel+2+1,r25
 3058 0c80 8093 0000 		sts sel+2,r24
 3059               	.L154:
 643:/home/student/avr_src/SimulIDE_1.0.0-SR1_Lin64/Timer/Timer.c ****         		LCD_CharWrite(0x1000);
 3060               		.stabn	68,0,643,.LM437-.LFBB30
 3061               	.LM437:
 3062 0c84 8091 0000 		lds r24,sel+2
 3063 0c88 9091 0000 		lds r25,sel+2+1
 3064 0c8c 00C0      		rjmp .L202
 3065               	.L153:
 647:/home/student/avr_src/SimulIDE_1.0.0-SR1_Lin64/Timer/Timer.c **** 				if(sel.SecNum > 10 && sel.n3 > 0) {
 3066               		.stabn	68,0,647,.LM438-.LFBB30
 3067               	.LM438:
 3068 0c8e 8091 0000 		lds r24,cp
 3069 0c92 9091 0000 		lds r25,cp+1
 3070 0c96 0897      		sbiw r24,8
 3071 0c98 01F4      		brne .L155
 648:/home/student/avr_src/SimulIDE_1.0.0-SR1_Lin64/Timer/Timer.c **** 					sel.SecNum = sel.SecNum - 10;
 3072               		.stabn	68,0,648,.LM439-.LFBB30
 3073               	.LM439:
 3074 0c9a 8091 0000 		lds r24,sel+8
 3075 0c9e 9091 0000 		lds r25,sel+8+1
 3076 0ca2 0B97      		sbiw r24,11
 3077 0ca4 04F0      		brlt .L156
 648:/home/student/avr_src/SimulIDE_1.0.0-SR1_Lin64/Timer/Timer.c **** 					sel.SecNum = sel.SecNum - 10;
 3078               		.stabn	68,0,648,.LM440-.LFBB30
 3079               	.LM440:
 3080 0ca6 8091 0000 		lds r24,sel+4
 3081 0caa 9091 0000 		lds r25,sel+4+1
 3082 0cae 1816      		cp __zero_reg__,r24
 3083 0cb0 1906      		cpc __zero_reg__,r25
 3084 0cb2 04F4      		brge .L156
 649:/home/student/avr_src/SimulIDE_1.0.0-SR1_Lin64/Timer/Timer.c **** 					sel.n3--;
 3085               		.stabn	68,0,649,.LM441-.LFBB30
 3086               	.LM441:
 3087 0cb4 8091 0000 		lds r24,sel+8
 3088 0cb8 9091 0000 		lds r25,sel+8+1
 3089 0cbc 0A97      		sbiw r24,10
 3090 0cbe 9093 0000 		sts sel+8+1,r25
 3091 0cc2 8093 0000 		sts sel+8,r24
 650:/home/student/avr_src/SimulIDE_1.0.0-SR1_Lin64/Timer/Timer.c **** 				}
 3092               		.stabn	68,0,650,.LM442-.LFBB30
 3093               	.LM442:
 3094 0cc6 8091 0000 		lds r24,sel+4
 3095 0cca 9091 0000 		lds r25,sel+4+1
 3096 0cce 0197      		sbiw r24,1
 3097 0cd0 9093 0000 		sts sel+4+1,r25
 3098 0cd4 8093 0000 		sts sel+4,r24
 3099               	.L156:
 652:/home/student/avr_src/SimulIDE_1.0.0-SR1_Lin64/Timer/Timer.c ****         		LCD_CharWrite(0x1000);
 3100               		.stabn	68,0,652,.LM443-.LFBB30
 3101               	.LM443:
 3102 0cd8 8091 0000 		lds r24,sel+4
 3103 0cdc 9091 0000 		lds r25,sel+4+1
 3104 0ce0 00C0      		rjmp .L202
 3105               	.L155:
 656:/home/student/avr_src/SimulIDE_1.0.0-SR1_Lin64/Timer/Timer.c **** 				if(sel.SecNum > 0) {
 3106               		.stabn	68,0,656,.LM444-.LFBB30
 3107               	.LM444:
 3108 0ce2 8091 0000 		lds r24,cp
 3109 0ce6 9091 0000 		lds r25,cp+1
 3110 0cea 0997      		sbiw r24,9
 3111 0cec 01F4      		brne .L139
 657:/home/student/avr_src/SimulIDE_1.0.0-SR1_Lin64/Timer/Timer.c **** 					sel.SecNum--;
 3112               		.stabn	68,0,657,.LM445-.LFBB30
 3113               	.LM445:
 3114 0cee 8091 0000 		lds r24,sel+8
 3115 0cf2 9091 0000 		lds r25,sel+8+1
 3116 0cf6 1816      		cp __zero_reg__,r24
 3117 0cf8 1906      		cpc __zero_reg__,r25
 3118 0cfa 04F4      		brge .L157
 658:/home/student/avr_src/SimulIDE_1.0.0-SR1_Lin64/Timer/Timer.c **** 					sel.n4--;
 3119               		.stabn	68,0,658,.LM446-.LFBB30
 3120               	.LM446:
 3121 0cfc 8091 0000 		lds r24,sel+8
 3122 0d00 9091 0000 		lds r25,sel+8+1
 3123 0d04 0197      		sbiw r24,1
 3124 0d06 9093 0000 		sts sel+8+1,r25
 3125 0d0a 8093 0000 		sts sel+8,r24
 659:/home/student/avr_src/SimulIDE_1.0.0-SR1_Lin64/Timer/Timer.c **** 				}
 3126               		.stabn	68,0,659,.LM447-.LFBB30
 3127               	.LM447:
 3128 0d0e 8091 0000 		lds r24,sel+6
 3129 0d12 9091 0000 		lds r25,sel+6+1
 3130 0d16 0197      		sbiw r24,1
 3131 0d18 9093 0000 		sts sel+6+1,r25
 3132 0d1c 8093 0000 		sts sel+6,r24
 3133               	.L157:
 661:/home/student/avr_src/SimulIDE_1.0.0-SR1_Lin64/Timer/Timer.c ****         		LCD_CharWrite(0x1000);
 3134               		.stabn	68,0,661,.LM448-.LFBB30
 3135               	.LM448:
 3136 0d20 8091 0000 		lds r24,sel+6
 3137 0d24 9091 0000 		lds r25,sel+6+1
 3138               	.L202:
 3139 0d28 0E94 0000 		call num2lcdbyte
 3140 0d2c 0E94 0000 		call LCD_CharWrite
 662:/home/student/avr_src/SimulIDE_1.0.0-SR1_Lin64/Timer/Timer.c ****         		LCD_CharWrite(0x00F0);
 3141               		.stabn	68,0,662,.LM449-.LFBB30
 3142               	.LM449:
 3143 0d30 80E0      		ldi r24,0
 3144 0d32 90E1      		ldi r25,lo8(16)
 3145 0d34 0E94 0000 		call LCD_CharWrite
 663:/home/student/avr_src/SimulIDE_1.0.0-SR1_Lin64/Timer/Timer.c **** 			}
 3146               		.stabn	68,0,663,.LM450-.LFBB30
 3147               	.LM450:
 3148 0d38 80EF      		ldi r24,lo8(-16)
 3149 0d3a 90E0      		ldi r25,0
 3150 0d3c 0E94 0000 		call LCD_CharWrite
 3151               	.L139:
 668:/home/student/avr_src/SimulIDE_1.0.0-SR1_Lin64/Timer/Timer.c **** 		key_flag = 0;
 3152               		.stabn	68,0,668,.LM451-.LFBB30
 3153               	.LM451:
 3154 0d40 8091 0000 		lds r24,key_flag
 3155 0d44 8823      		tst r24
 3156 0d46 01F4      		brne .+2
 3157 0d48 00C0      		rjmp .L158
 668:/home/student/avr_src/SimulIDE_1.0.0-SR1_Lin64/Timer/Timer.c **** 		key_flag = 0;
 3158               		.stabn	68,0,668,.LM452-.LFBB30
 3159               	.LM452:
 3160 0d4a 8091 0000 		lds r24,sel_flag
 3161 0d4e 8111      		cpse r24,__zero_reg__
 3162 0d50 00C0      		rjmp .L158
 669:/home/student/avr_src/SimulIDE_1.0.0-SR1_Lin64/Timer/Timer.c **** 		if(key_data == 0xff){
 3163               		.stabn	68,0,669,.LM453-.LFBB30
 3164               	.LM453:
 3165 0d52 1092 0000 		sts key_flag,__zero_reg__
 670:/home/student/avr_src/SimulIDE_1.0.0-SR1_Lin64/Timer/Timer.c ****             return;
 3166               		.stabn	68,0,670,.LM454-.LFBB30
 3167               	.LM454:
 3168 0d56 8091 0000 		lds r24,key_data
 3169 0d5a 8F3F      		cpi r24,lo8(-1)
 3170 0d5c 01F4      		brne .+2
 3171 0d5e 00C0      		rjmp .L126
 673:/home/student/avr_src/SimulIDE_1.0.0-SR1_Lin64/Timer/Timer.c **** 			I2C_Timer_Default(); //set 00:00:00
 3172               		.stabn	68,0,673,.LM455-.LFBB30
 3173               	.LM455:
 3174 0d60 8091 0000 		lds r24,key_data
 3175 0d64 8A30      		cpi r24,lo8(10)
 3176 0d66 01F4      		brne .L160
 674:/home/student/avr_src/SimulIDE_1.0.0-SR1_Lin64/Timer/Timer.c ****         }
 3177               		.stabn	68,0,674,.LM456-.LFBB30
 3178               	.LM456:
 3179 0d68 0E94 0000 		call I2C_Timer_Default
 3180               	.L160:
 676:/home/student/avr_src/SimulIDE_1.0.0-SR1_Lin64/Timer/Timer.c **** 			if(cp.x > 9) {
 3181               		.stabn	68,0,676,.LM457-.LFBB30
 3182               	.LM457:
 3183 0d6c 8091 0000 		lds r24,key_data
 3184 0d70 8B30      		cpi r24,lo8(11)
 3185 0d72 01F4      		brne .L161
 677:/home/student/avr_src/SimulIDE_1.0.0-SR1_Lin64/Timer/Timer.c **** 				I2C_LCD_MoveLeft(cp.x - 9);
 3186               		.stabn	68,0,677,.LM458-.LFBB30
 3187               	.LM458:
 3188 0d74 8091 0000 		lds r24,cp
 3189 0d78 9091 0000 		lds r25,cp+1
 3190 0d7c 0A97      		sbiw r24,10
 3191 0d7e 04F0      		brlt .L162
 678:/home/student/avr_src/SimulIDE_1.0.0-SR1_Lin64/Timer/Timer.c **** 				cp.x = 9;
 3192               		.stabn	68,0,678,.LM459-.LFBB30
 3193               	.LM459:
 3194 0d80 8091 0000 		lds r24,cp
 3195 0d84 9091 0000 		lds r25,cp+1
 3196 0d88 8950      		subi r24,lo8(-(-9))
 3197 0d8a 0E94 0000 		call I2C_LCD_MoveLeft
 3198 0d8e 00C0      		rjmp .L203
 3199               	.L162:
 683:/home/student/avr_src/SimulIDE_1.0.0-SR1_Lin64/Timer/Timer.c **** 				I2C_LCD_MoveRight(9 -cp.x);
 3200               		.stabn	68,0,683,.LM460-.LFBB30
 3201               	.LM460:
 3202 0d90 8091 0000 		lds r24,cp
 3203 0d94 9091 0000 		lds r25,cp+1
 3204 0d98 0997      		sbiw r24,9
 3205 0d9a 04F4      		brge .L163
 684:/home/student/avr_src/SimulIDE_1.0.0-SR1_Lin64/Timer/Timer.c **** 				cp.x = 9;
 3206               		.stabn	68,0,684,.LM461-.LFBB30
 3207               	.LM461:
 3208 0d9c 2091 0000 		lds r18,cp
 3209 0da0 3091 0000 		lds r19,cp+1
 3210 0da4 89E0      		ldi r24,lo8(9)
 3211 0da6 821B      		sub r24,r18
 3212 0da8 0E94 0000 		call I2C_LCD_MoveRight
 3213               	.L203:
 685:/home/student/avr_src/SimulIDE_1.0.0-SR1_Lin64/Timer/Timer.c **** 				LCD_CharWrite(0x00C0);
 3214               		.stabn	68,0,685,.LM462-.LFBB30
 3215               	.LM462:
 3216 0dac 89E0      		ldi r24,lo8(9)
 3217 0dae 90E0      		ldi r25,0
 3218 0db0 9093 0000 		sts cp+1,r25
 3219 0db4 8093 0000 		sts cp,r24
 686:/home/student/avr_src/SimulIDE_1.0.0-SR1_Lin64/Timer/Timer.c **** 				LCD_CharWrite(0x00C0);
 3220               		.stabn	68,0,686,.LM463-.LFBB30
 3221               	.LM463:
 3222 0db8 80EC      		ldi r24,lo8(-64)
 3223 0dba 90E0      		ldi r25,0
 3224 0dbc 0E94 0000 		call LCD_CharWrite
 687:/home/student/avr_src/SimulIDE_1.0.0-SR1_Lin64/Timer/Timer.c **** 			}
 3225               		.stabn	68,0,687,.LM464-.LFBB30
 3226               	.LM464:
 3227 0dc0 80EC      		ldi r24,lo8(-64)
 3228 0dc2 90E0      		ldi r25,0
 3229 0dc4 0E94 0000 		call LCD_CharWrite
 3230               	.L163:
 689:/home/student/avr_src/SimulIDE_1.0.0-SR1_Lin64/Timer/Timer.c **** 		}                                                       
 3231               		.stabn	68,0,689,.LM465-.LFBB30
 3232               	.LM465:
 3233 0dc8 9091 0000 		lds r25,timer_start_flag
 3234 0dcc 81E0      		ldi r24,lo8(1)
 3235 0dce 8927      		eor r24,r25
 3236 0dd0 8093 0000 		sts timer_start_flag,r24
 3237               	.L161:
 691:/home/student/avr_src/SimulIDE_1.0.0-SR1_Lin64/Timer/Timer.c **** 			
 3238               		.stabn	68,0,691,.LM466-.LFBB30
 3239               	.LM466:
 3240 0dd4 8091 0000 		lds r24,key_data
 694:/home/student/avr_src/SimulIDE_1.0.0-SR1_Lin64/Timer/Timer.c **** 			I2C_Timer_act();
 3241               		.stabn	68,0,694,.LM467-.LFBB30
 3242               	.LM467:
 3243 0dd8 8091 0000 		lds r24,key_data
 3244 0ddc 8330      		cpi r24,lo8(3)
 3245 0dde 01F4      		brne .L164
 695:/home/student/avr_src/SimulIDE_1.0.0-SR1_Lin64/Timer/Timer.c **** 		}
 3246               		.stabn	68,0,695,.LM468-.LFBB30
 3247               	.LM468:
 3248 0de0 0E94 0000 		call I2C_Timer_act
 3249               	.L164:
 697:/home/student/avr_src/SimulIDE_1.0.0-SR1_Lin64/Timer/Timer.c **** 			if(cp.x > 5){
 3250               		.stabn	68,0,697,.LM469-.LFBB30
 3251               	.LM469:
 3252 0de4 8091 0000 		lds r24,key_data
 3253 0de8 8430      		cpi r24,lo8(4)
 3254 0dea 01F4      		brne .L165
 697:/home/student/avr_src/SimulIDE_1.0.0-SR1_Lin64/Timer/Timer.c **** 			if(cp.x > 5){
 3255               		.stabn	68,0,697,.LM470-.LFBB30
 3256               	.LM470:
 3257 0dec 8091 0000 		lds r24,timer_start_flag
 3258 0df0 8111      		cpse r24,__zero_reg__
 3259 0df2 00C0      		rjmp .L165
 698:/home/student/avr_src/SimulIDE_1.0.0-SR1_Lin64/Timer/Timer.c **** 				if(cp.x == 8) {
 3260               		.stabn	68,0,698,.LM471-.LFBB30
 3261               	.LM471:
 3262 0df4 8091 0000 		lds r24,cp
 3263 0df8 9091 0000 		lds r25,cp+1
 3264 0dfc 0697      		sbiw r24,6
 3265 0dfe 04F0      		brlt .L165
 699:/home/student/avr_src/SimulIDE_1.0.0-SR1_Lin64/Timer/Timer.c **** 					I2C_LCD_MoveLeft(2);
 3266               		.stabn	68,0,699,.LM472-.LFBB30
 3267               	.LM472:
 3268 0e00 8091 0000 		lds r24,cp
 3269 0e04 9091 0000 		lds r25,cp+1
 3270 0e08 0897      		sbiw r24,8
 3271 0e0a 01F4      		brne .L166
 700:/home/student/avr_src/SimulIDE_1.0.0-SR1_Lin64/Timer/Timer.c **** 					cp.x = cp.x -2;
 3272               		.stabn	68,0,700,.LM473-.LFBB30
 3273               	.LM473:
 3274 0e0c 82E0      		ldi r24,lo8(2)
 3275 0e0e 0E94 0000 		call I2C_LCD_MoveLeft
 701:/home/student/avr_src/SimulIDE_1.0.0-SR1_Lin64/Timer/Timer.c **** 				}
 3276               		.stabn	68,0,701,.LM474-.LFBB30
 3277               	.LM474:
 3278 0e12 8091 0000 		lds r24,cp
 3279 0e16 9091 0000 		lds r25,cp+1
 3280 0e1a 0297      		sbiw r24,2
 3281 0e1c 00C0      		rjmp .L204
 3282               	.L166:
 704:/home/student/avr_src/SimulIDE_1.0.0-SR1_Lin64/Timer/Timer.c **** 					cp.x--;
 3283               		.stabn	68,0,704,.LM475-.LFBB30
 3284               	.LM475:
 3285 0e1e 81E0      		ldi r24,lo8(1)
 3286 0e20 0E94 0000 		call I2C_LCD_MoveLeft
 705:/home/student/avr_src/SimulIDE_1.0.0-SR1_Lin64/Timer/Timer.c **** 				}
 3287               		.stabn	68,0,705,.LM476-.LFBB30
 3288               	.LM476:
 3289 0e24 8091 0000 		lds r24,cp
 3290 0e28 9091 0000 		lds r25,cp+1
 3291 0e2c 0197      		sbiw r24,1
 3292               	.L204:
 3293 0e2e 9093 0000 		sts cp+1,r25
 3294 0e32 8093 0000 		sts cp,r24
 3295               	.L165:
 709:/home/student/avr_src/SimulIDE_1.0.0-SR1_Lin64/Timer/Timer.c **** 			if(cp.x == 5 || cp.x == 6 || cp.x == 8 || cp.x == 9) I2C_LCD_SELECT();
 3296               		.stabn	68,0,709,.LM477-.LFBB30
 3297               	.LM477:
 3298 0e36 8091 0000 		lds r24,key_data
 3299 0e3a 8530      		cpi r24,lo8(5)
 3300 0e3c 01F4      		brne .L167
 709:/home/student/avr_src/SimulIDE_1.0.0-SR1_Lin64/Timer/Timer.c **** 			if(cp.x == 5 || cp.x == 6 || cp.x == 8 || cp.x == 9) I2C_LCD_SELECT();
 3301               		.stabn	68,0,709,.LM478-.LFBB30
 3302               	.LM478:
 3303 0e3e 8091 0000 		lds r24,timer_start_flag
 3304 0e42 8111      		cpse r24,__zero_reg__
 3305 0e44 00C0      		rjmp .L167
 710:/home/student/avr_src/SimulIDE_1.0.0-SR1_Lin64/Timer/Timer.c **** 		}
 3306               		.stabn	68,0,710,.LM479-.LFBB30
 3307               	.LM479:
 3308 0e46 8091 0000 		lds r24,cp
 3309 0e4a 9091 0000 		lds r25,cp+1
 3310 0e4e 0597      		sbiw r24,5
 3311 0e50 01F0      		breq .L168
 710:/home/student/avr_src/SimulIDE_1.0.0-SR1_Lin64/Timer/Timer.c **** 		}
 3312               		.stabn	68,0,710,.LM480-.LFBB30
 3313               	.LM480:
 3314 0e52 8091 0000 		lds r24,cp
 3315 0e56 9091 0000 		lds r25,cp+1
 3316 0e5a 0697      		sbiw r24,6
 3317 0e5c 01F0      		breq .L168
 710:/home/student/avr_src/SimulIDE_1.0.0-SR1_Lin64/Timer/Timer.c **** 		}
 3318               		.stabn	68,0,710,.LM481-.LFBB30
 3319               	.LM481:
 3320 0e5e 8091 0000 		lds r24,cp
 3321 0e62 9091 0000 		lds r25,cp+1
 3322 0e66 0897      		sbiw r24,8
 3323 0e68 01F0      		breq .L168
 710:/home/student/avr_src/SimulIDE_1.0.0-SR1_Lin64/Timer/Timer.c **** 		}
 3324               		.stabn	68,0,710,.LM482-.LFBB30
 3325               	.LM482:
 3326 0e6a 8091 0000 		lds r24,cp
 3327 0e6e 9091 0000 		lds r25,cp+1
 3328 0e72 0997      		sbiw r24,9
 3329 0e74 01F4      		brne .L167
 3330               	.L168:
 710:/home/student/avr_src/SimulIDE_1.0.0-SR1_Lin64/Timer/Timer.c **** 		}
 3331               		.stabn	68,0,710,.LM483-.LFBB30
 3332               	.LM483:
 3333 0e76 0E94 0000 		call I2C_LCD_SELECT
 3334               	.L167:
 712:/home/student/avr_src/SimulIDE_1.0.0-SR1_Lin64/Timer/Timer.c **** 			if(cp.x < 9){
 3335               		.stabn	68,0,712,.LM484-.LFBB30
 3336               	.LM484:
 3337 0e7a 8091 0000 		lds r24,key_data
 3338 0e7e 8630      		cpi r24,lo8(6)
 3339 0e80 01F4      		brne .L169
 712:/home/student/avr_src/SimulIDE_1.0.0-SR1_Lin64/Timer/Timer.c **** 			if(cp.x < 9){
 3340               		.stabn	68,0,712,.LM485-.LFBB30
 3341               	.LM485:
 3342 0e82 8091 0000 		lds r24,timer_start_flag
 3343 0e86 8111      		cpse r24,__zero_reg__
 3344 0e88 00C0      		rjmp .L169
 713:/home/student/avr_src/SimulIDE_1.0.0-SR1_Lin64/Timer/Timer.c **** 				if(cp.x == 6){
 3345               		.stabn	68,0,713,.LM486-.LFBB30
 3346               	.LM486:
 3347 0e8a 8091 0000 		lds r24,cp
 3348 0e8e 9091 0000 		lds r25,cp+1
 3349 0e92 0997      		sbiw r24,9
 3350 0e94 04F4      		brge .L169
 714:/home/student/avr_src/SimulIDE_1.0.0-SR1_Lin64/Timer/Timer.c **** 					I2C_LCD_MoveRight(2);
 3351               		.stabn	68,0,714,.LM487-.LFBB30
 3352               	.LM487:
 3353 0e96 8091 0000 		lds r24,cp
 3354 0e9a 9091 0000 		lds r25,cp+1
 3355 0e9e 0697      		sbiw r24,6
 3356 0ea0 01F4      		brne .L170
 715:/home/student/avr_src/SimulIDE_1.0.0-SR1_Lin64/Timer/Timer.c **** 					cp.x = cp.x + 2;
 3357               		.stabn	68,0,715,.LM488-.LFBB30
 3358               	.LM488:
 3359 0ea2 82E0      		ldi r24,lo8(2)
 3360 0ea4 0E94 0000 		call I2C_LCD_MoveRight
 716:/home/student/avr_src/SimulIDE_1.0.0-SR1_Lin64/Timer/Timer.c **** 				}
 3361               		.stabn	68,0,716,.LM489-.LFBB30
 3362               	.LM489:
 3363 0ea8 8091 0000 		lds r24,cp
 3364 0eac 9091 0000 		lds r25,cp+1
 3365 0eb0 0296      		adiw r24,2
 3366 0eb2 00C0      		rjmp .L205
 3367               	.L170:
 719:/home/student/avr_src/SimulIDE_1.0.0-SR1_Lin64/Timer/Timer.c **** 					cp.x++;
 3368               		.stabn	68,0,719,.LM490-.LFBB30
 3369               	.LM490:
 3370 0eb4 81E0      		ldi r24,lo8(1)
 3371 0eb6 0E94 0000 		call I2C_LCD_MoveRight
 720:/home/student/avr_src/SimulIDE_1.0.0-SR1_Lin64/Timer/Timer.c **** 				}
 3372               		.stabn	68,0,720,.LM491-.LFBB30
 3373               	.LM491:
 3374 0eba 8091 0000 		lds r24,cp
 3375 0ebe 9091 0000 		lds r25,cp+1
 3376 0ec2 0196      		adiw r24,1
 3377               	.L205:
 3378 0ec4 9093 0000 		sts cp+1,r25
 3379 0ec8 8093 0000 		sts cp,r24
 3380               	.L169:
 724:/home/student/avr_src/SimulIDE_1.0.0-SR1_Lin64/Timer/Timer.c **** 		}
 3381               		.stabn	68,0,724,.LM492-.LFBB30
 3382               	.LM492:
 3383 0ecc 8091 0000 		lds r24,key_data
 726:/home/student/avr_src/SimulIDE_1.0.0-SR1_Lin64/Timer/Timer.c **** 
 3384               		.stabn	68,0,726,.LM493-.LFBB30
 3385               	.LM493:
 3386 0ed0 8091 0000 		lds r24,key_data
 729:/home/student/avr_src/SimulIDE_1.0.0-SR1_Lin64/Timer/Timer.c **** 			
 3387               		.stabn	68,0,729,.LM494-.LFBB30
 3388               	.LM494:
 3389 0ed4 8091 0000 		lds r24,key_data
 732:/home/student/avr_src/SimulIDE_1.0.0-SR1_Lin64/Timer/Timer.c ****         }
 3390               		.stabn	68,0,732,.LM495-.LFBB30
 3391               	.LM495:
 3392 0ed8 459A      		sbi 0x8,5
 3393 0eda 00C0      		rjmp .L126
 3394               	.L158:
 735:/home/student/avr_src/SimulIDE_1.0.0-SR1_Lin64/Timer/Timer.c ****   			PORTC &= ~0x01;
 3395               		.stabn	68,0,735,.LM496-.LFBB30
 3396               	.LM496:
 3397 0edc 4598      		cbi 0x8,5
 736:/home/student/avr_src/SimulIDE_1.0.0-SR1_Lin64/Timer/Timer.c ****         }
 3398               		.stabn	68,0,736,.LM497-.LFBB30
 3399               	.LM497:
 3400 0ede 4098      		cbi 0x8,0
 3401               	.L126:
 3402               	/* epilogue start */
 739:/home/student/avr_src/SimulIDE_1.0.0-SR1_Lin64/Timer/Timer.c **** //====================================================
 3403               		.stabn	68,0,739,.LM498-.LFBB30
 3404               	.LM498:
 3405 0ee0 FF91      		pop r31
 3406 0ee2 EF91      		pop r30
 3407 0ee4 DF91      		pop r29
 3408 0ee6 CF91      		pop r28
 3409 0ee8 BF91      		pop r27
 3410 0eea AF91      		pop r26
 3411 0eec 9F91      		pop r25
 3412 0eee 8F91      		pop r24
 3413 0ef0 7F91      		pop r23
 3414 0ef2 6F91      		pop r22
 3415 0ef4 5F91      		pop r21
 3416 0ef6 4F91      		pop r20
 3417 0ef8 3F91      		pop r19
 3418 0efa 2F91      		pop r18
 3419 0efc 0F90      		pop r0
 3420 0efe 0FBE      		out __SREG__,r0
 3421 0f00 0F90      		pop r0
 3422 0f02 1F90      		pop r1
 3423 0f04 1895      		reti
 3424               		.size	__vector_11, .-__vector_11
 3425               	.Lscope30:
 3426               		.stabs	"",36,0,0,.Lscope30-.LFBB30
 3427               		.stabd	78,0,0
 3428               		.stabs	"q_isEmpty:F(0,54)",36,0,1012,q_isEmpty
 3429               	.global	q_isEmpty
 3430               		.type	q_isEmpty, @function
 3431               	q_isEmpty:
 3432               		.stabd	46,0,0
1011:/home/student/avr_src/SimulIDE_1.0.0-SR1_Lin64/Timer/Timer.c **** 
1012:/home/student/avr_src/SimulIDE_1.0.0-SR1_Lin64/Timer/Timer.c **** bool q_isEmpty(){
 3433               		.stabn	68,0,1012,.LM499-.LFBB31
 3434               	.LM499:
 3435               	.LFBB31:
 3436               	/* prologue: function */
 3437               	/* frame size = 0 */
 3438               	/* stack size = 0 */
 3439               	.L__stack_usage = 0
1013:/home/student/avr_src/SimulIDE_1.0.0-SR1_Lin64/Timer/Timer.c ****     if(ptr_read == ptr_write){
 3440               		.stabn	68,0,1013,.LM500-.LFBB31
 3441               	.LM500:
 3442 0f06 3091 0000 		lds r19,ptr_read
 3443 0f0a 2091 0000 		lds r18,ptr_write
 3444 0f0e 81E0      		ldi r24,lo8(1)
 3445 0f10 90E0      		ldi r25,0
 3446 0f12 3217      		cp r19,r18
 3447 0f14 01F0      		breq .L207
 3448 0f16 80E0      		ldi r24,0
 3449 0f18 90E0      		ldi r25,0
 3450               	.L207:
1014:/home/student/avr_src/SimulIDE_1.0.0-SR1_Lin64/Timer/Timer.c ****         return true;
1015:/home/student/avr_src/SimulIDE_1.0.0-SR1_Lin64/Timer/Timer.c ****     }
1016:/home/student/avr_src/SimulIDE_1.0.0-SR1_Lin64/Timer/Timer.c ****     else{
1017:/home/student/avr_src/SimulIDE_1.0.0-SR1_Lin64/Timer/Timer.c ****         return false;
1018:/home/student/avr_src/SimulIDE_1.0.0-SR1_Lin64/Timer/Timer.c ****     }
1019:/home/student/avr_src/SimulIDE_1.0.0-SR1_Lin64/Timer/Timer.c ****     
1020:/home/student/avr_src/SimulIDE_1.0.0-SR1_Lin64/Timer/Timer.c **** }
 3451               		.stabn	68,0,1020,.LM501-.LFBB31
 3452               	.LM501:
 3453 0f1a 0895      		ret
 3454               		.size	q_isEmpty, .-q_isEmpty
 3455               	.Lscope31:
 3456               		.stabs	"",36,0,0,.Lscope31-.LFBB31
 3457               		.stabd	78,0,0
 3458               		.stabs	"q_pop:F(0,13)",36,0,992,q_pop
 3459               	.global	q_pop
 3460               		.type	q_pop, @function
 3461               	q_pop:
 3462               		.stabd	46,0,0
 992:/home/student/avr_src/SimulIDE_1.0.0-SR1_Lin64/Timer/Timer.c ****     if(q_isEmpty()){
 3463               		.stabn	68,0,992,.LM502-.LFBB32
 3464               	.LM502:
 3465               	.LFBB32:
 3466               	/* prologue: function */
 3467               	/* frame size = 0 */
 3468               	/* stack size = 0 */
 3469               	.L__stack_usage = 0
 993:/home/student/avr_src/SimulIDE_1.0.0-SR1_Lin64/Timer/Timer.c ****         return -1;
 3470               		.stabn	68,0,993,.LM503-.LFBB32
 3471               	.LM503:
 3472 0f1c 0E94 0000 		call q_isEmpty
 3473 0f20 892B      		or r24,r25
 3474 0f22 01F4      		brne .L210
 3475               	.LBB192:
 3476               	.LBB193:
 997:/home/student/avr_src/SimulIDE_1.0.0-SR1_Lin64/Timer/Timer.c ****     ptr_read++;
 3477               		.stabn	68,0,997,.LM504-.LFBB32
 3478               	.LM504:
 3479 0f24 E091 0000 		lds r30,ptr_read
 3480 0f28 F0E0      		ldi r31,0
 3481 0f2a E050      		subi r30,lo8(-(q))
 3482 0f2c F040      		sbci r31,hi8(-(q))
 3483 0f2e 8081      		ld r24,Z
 998:/home/student/avr_src/SimulIDE_1.0.0-SR1_Lin64/Timer/Timer.c ****     ptr_read &= (Q_LENGTH-1);
 3484               		.stabn	68,0,998,.LM505-.LFBB32
 3485               	.LM505:
 3486 0f30 9091 0000 		lds r25,ptr_read
 3487 0f34 9F5F      		subi r25,lo8(-(1))
 3488 0f36 9093 0000 		sts ptr_read,r25
 999:/home/student/avr_src/SimulIDE_1.0.0-SR1_Lin64/Timer/Timer.c ****     return q_tmp;
 3489               		.stabn	68,0,999,.LM506-.LFBB32
 3490               	.LM506:
 3491 0f3a 9091 0000 		lds r25,ptr_read
 3492 0f3e 9F70      		andi r25,lo8(15)
 3493 0f40 9093 0000 		sts ptr_read,r25
 3494 0f44 0895      		ret
 3495               	.L210:
 3496               	.LBE193:
 3497               	.LBE192:
 994:/home/student/avr_src/SimulIDE_1.0.0-SR1_Lin64/Timer/Timer.c ****     }
 3498               		.stabn	68,0,994,.LM507-.LFBB32
 3499               	.LM507:
 3500 0f46 8FEF      		ldi r24,lo8(-1)
1001:/home/student/avr_src/SimulIDE_1.0.0-SR1_Lin64/Timer/Timer.c **** 
 3501               		.stabn	68,0,1001,.LM508-.LFBB32
 3502               	.LM508:
 3503 0f48 0895      		ret
 3504               		.size	q_pop, .-q_pop
 3505               		.stabs	"q_tmp:r(0,13)",64,0,996,24
 3506               		.stabn	192,0,0,.LBB193-.LFBB32
 3507               		.stabn	224,0,0,.LBE193-.LFBB32
 3508               	.Lscope32:
 3509               		.stabs	"",36,0,0,.Lscope32-.LFBB32
 3510               		.stabd	78,0,0
 3511               		.stabs	"q_clear:F(0,49)",36,0,1022,q_clear
 3512               	.global	q_clear
 3513               		.type	q_clear, @function
 3514               	q_clear:
 3515               		.stabd	46,0,0
1021:/home/student/avr_src/SimulIDE_1.0.0-SR1_Lin64/Timer/Timer.c **** 
1022:/home/student/avr_src/SimulIDE_1.0.0-SR1_Lin64/Timer/Timer.c **** void q_clear(){
 3516               		.stabn	68,0,1022,.LM509-.LFBB33
 3517               	.LM509:
 3518               	.LFBB33:
 3519               	/* prologue: function */
 3520               	/* frame size = 0 */
 3521               	/* stack size = 0 */
 3522               	.L__stack_usage = 0
 3523               	.L212:
1023:/home/student/avr_src/SimulIDE_1.0.0-SR1_Lin64/Timer/Timer.c **** 	while(!q_isEmpty()){
 3524               		.stabn	68,0,1023,.LM510-.LFBB33
 3525               	.LM510:
 3526 0f4a 0E94 0000 		call q_isEmpty
 3527 0f4e 892B      		or r24,r25
 3528 0f50 01F4      		brne .L214
1024:/home/student/avr_src/SimulIDE_1.0.0-SR1_Lin64/Timer/Timer.c **** 		q_pop();
 3529               		.stabn	68,0,1024,.LM511-.LFBB33
 3530               	.LM511:
 3531 0f52 0E94 0000 		call q_pop
 3532 0f56 00C0      		rjmp .L212
 3533               	.L214:
 3534               	/* epilogue start */
1025:/home/student/avr_src/SimulIDE_1.0.0-SR1_Lin64/Timer/Timer.c **** 	}
1026:/home/student/avr_src/SimulIDE_1.0.0-SR1_Lin64/Timer/Timer.c **** }
 3535               		.stabn	68,0,1026,.LM512-.LFBB33
 3536               	.LM512:
 3537 0f58 0895      		ret
 3538               		.size	q_clear, .-q_clear
 3539               	.Lscope33:
 3540               		.stabs	"",36,0,0,.Lscope33-.LFBB33
 3541               		.stabd	78,0,0
 3542               		.stabs	"ERROR_MESSAGE:F(0,49)",36,0,1028,ERROR_MESSAGE
 3543               	.global	ERROR_MESSAGE
 3544               		.type	ERROR_MESSAGE, @function
 3545               	ERROR_MESSAGE:
 3546               		.stabd	46,0,0
1027:/home/student/avr_src/SimulIDE_1.0.0-SR1_Lin64/Timer/Timer.c **** 
1028:/home/student/avr_src/SimulIDE_1.0.0-SR1_Lin64/Timer/Timer.c **** void ERROR_MESSAGE(){
 3547               		.stabn	68,0,1028,.LM513-.LFBB34
 3548               	.LM513:
 3549               	.LFBB34:
 3550               	/* prologue: function */
 3551               	/* frame size = 0 */
 3552               	/* stack size = 0 */
 3553               	.L__stack_usage = 0
1029:/home/student/avr_src/SimulIDE_1.0.0-SR1_Lin64/Timer/Timer.c **** 	Tx_char('E');
 3554               		.stabn	68,0,1029,.LM514-.LFBB34
 3555               	.LM514:
 3556 0f5a 85E4      		ldi r24,lo8(69)
 3557 0f5c 0E94 0000 		call Tx_char
1030:/home/student/avr_src/SimulIDE_1.0.0-SR1_Lin64/Timer/Timer.c **** 	Tx_char('R');
 3558               		.stabn	68,0,1030,.LM515-.LFBB34
 3559               	.LM515:
 3560 0f60 82E5      		ldi r24,lo8(82)
 3561 0f62 0E94 0000 		call Tx_char
1031:/home/student/avr_src/SimulIDE_1.0.0-SR1_Lin64/Timer/Timer.c **** 	Tx_char('R');
 3562               		.stabn	68,0,1031,.LM516-.LFBB34
 3563               	.LM516:
 3564 0f66 82E5      		ldi r24,lo8(82)
 3565 0f68 0E94 0000 		call Tx_char
1032:/home/student/avr_src/SimulIDE_1.0.0-SR1_Lin64/Timer/Timer.c **** 	Tx_char('O');
 3566               		.stabn	68,0,1032,.LM517-.LFBB34
 3567               	.LM517:
 3568 0f6c 8FE4      		ldi r24,lo8(79)
 3569 0f6e 0E94 0000 		call Tx_char
1033:/home/student/avr_src/SimulIDE_1.0.0-SR1_Lin64/Timer/Timer.c **** 	Tx_char('R');
 3570               		.stabn	68,0,1033,.LM518-.LFBB34
 3571               	.LM518:
 3572 0f72 82E5      		ldi r24,lo8(82)
 3573 0f74 0E94 0000 		call Tx_char
1034:/home/student/avr_src/SimulIDE_1.0.0-SR1_Lin64/Timer/Timer.c **** 	Tx_char(':');
 3574               		.stabn	68,0,1034,.LM519-.LFBB34
 3575               	.LM519:
 3576 0f78 8AE3      		ldi r24,lo8(58)
 3577 0f7a 0E94 0000 		call Tx_char
1035:/home/student/avr_src/SimulIDE_1.0.0-SR1_Lin64/Timer/Timer.c **** 	Tx_char('i');
 3578               		.stabn	68,0,1035,.LM520-.LFBB34
 3579               	.LM520:
 3580 0f7e 89E6      		ldi r24,lo8(105)
 3581 0f80 0E94 0000 		call Tx_char
1036:/home/student/avr_src/SimulIDE_1.0.0-SR1_Lin64/Timer/Timer.c **** 	Tx_char('n');
 3582               		.stabn	68,0,1036,.LM521-.LFBB34
 3583               	.LM521:
 3584 0f84 8EE6      		ldi r24,lo8(110)
 3585 0f86 0E94 0000 		call Tx_char
1037:/home/student/avr_src/SimulIDE_1.0.0-SR1_Lin64/Timer/Timer.c **** 	Tx_char('c');
 3586               		.stabn	68,0,1037,.LM522-.LFBB34
 3587               	.LM522:
 3588 0f8a 83E6      		ldi r24,lo8(99)
 3589 0f8c 0E94 0000 		call Tx_char
1038:/home/student/avr_src/SimulIDE_1.0.0-SR1_Lin64/Timer/Timer.c **** 	Tx_char('o');
 3590               		.stabn	68,0,1038,.LM523-.LFBB34
 3591               	.LM523:
 3592 0f90 8FE6      		ldi r24,lo8(111)
 3593 0f92 0E94 0000 		call Tx_char
1039:/home/student/avr_src/SimulIDE_1.0.0-SR1_Lin64/Timer/Timer.c **** 	Tx_char('r');
 3594               		.stabn	68,0,1039,.LM524-.LFBB34
 3595               	.LM524:
 3596 0f96 82E7      		ldi r24,lo8(114)
 3597 0f98 0E94 0000 		call Tx_char
1040:/home/student/avr_src/SimulIDE_1.0.0-SR1_Lin64/Timer/Timer.c **** 	Tx_char('r');
 3598               		.stabn	68,0,1040,.LM525-.LFBB34
 3599               	.LM525:
 3600 0f9c 82E7      		ldi r24,lo8(114)
 3601 0f9e 0E94 0000 		call Tx_char
1041:/home/student/avr_src/SimulIDE_1.0.0-SR1_Lin64/Timer/Timer.c **** 	Tx_char('e');
 3602               		.stabn	68,0,1041,.LM526-.LFBB34
 3603               	.LM526:
 3604 0fa2 85E6      		ldi r24,lo8(101)
 3605 0fa4 0E94 0000 		call Tx_char
1042:/home/student/avr_src/SimulIDE_1.0.0-SR1_Lin64/Timer/Timer.c **** 	Tx_char('c');
 3606               		.stabn	68,0,1042,.LM527-.LFBB34
 3607               	.LM527:
 3608 0fa8 83E6      		ldi r24,lo8(99)
 3609 0faa 0E94 0000 		call Tx_char
1043:/home/student/avr_src/SimulIDE_1.0.0-SR1_Lin64/Timer/Timer.c **** 	Tx_char('t');
 3610               		.stabn	68,0,1043,.LM528-.LFBB34
 3611               	.LM528:
 3612 0fae 84E7      		ldi r24,lo8(116)
 3613 0fb0 0E94 0000 		call Tx_char
1044:/home/student/avr_src/SimulIDE_1.0.0-SR1_Lin64/Timer/Timer.c **** 	Tx_char(' ');
 3614               		.stabn	68,0,1044,.LM529-.LFBB34
 3615               	.LM529:
 3616 0fb4 80E2      		ldi r24,lo8(32)
 3617 0fb6 0E94 0000 		call Tx_char
1045:/home/student/avr_src/SimulIDE_1.0.0-SR1_Lin64/Timer/Timer.c **** 	Tx_char('c');
 3618               		.stabn	68,0,1045,.LM530-.LFBB34
 3619               	.LM530:
 3620 0fba 83E6      		ldi r24,lo8(99)
 3621 0fbc 0E94 0000 		call Tx_char
1046:/home/student/avr_src/SimulIDE_1.0.0-SR1_Lin64/Timer/Timer.c **** 	Tx_char('o');
 3622               		.stabn	68,0,1046,.LM531-.LFBB34
 3623               	.LM531:
 3624 0fc0 8FE6      		ldi r24,lo8(111)
 3625 0fc2 0E94 0000 		call Tx_char
1047:/home/student/avr_src/SimulIDE_1.0.0-SR1_Lin64/Timer/Timer.c **** 	Tx_char('m');
 3626               		.stabn	68,0,1047,.LM532-.LFBB34
 3627               	.LM532:
 3628 0fc6 8DE6      		ldi r24,lo8(109)
 3629 0fc8 0E94 0000 		call Tx_char
1048:/home/student/avr_src/SimulIDE_1.0.0-SR1_Lin64/Timer/Timer.c **** 	Tx_char('m');
 3630               		.stabn	68,0,1048,.LM533-.LFBB34
 3631               	.LM533:
 3632 0fcc 8DE6      		ldi r24,lo8(109)
 3633 0fce 0E94 0000 		call Tx_char
1049:/home/student/avr_src/SimulIDE_1.0.0-SR1_Lin64/Timer/Timer.c **** 	Tx_char('a');
 3634               		.stabn	68,0,1049,.LM534-.LFBB34
 3635               	.LM534:
 3636 0fd2 81E6      		ldi r24,lo8(97)
 3637 0fd4 0E94 0000 		call Tx_char
1050:/home/student/avr_src/SimulIDE_1.0.0-SR1_Lin64/Timer/Timer.c **** 	Tx_char('n');
 3638               		.stabn	68,0,1050,.LM535-.LFBB34
 3639               	.LM535:
 3640 0fd8 8EE6      		ldi r24,lo8(110)
 3641 0fda 0E94 0000 		call Tx_char
1051:/home/student/avr_src/SimulIDE_1.0.0-SR1_Lin64/Timer/Timer.c **** 	Tx_char('d');
 3642               		.stabn	68,0,1051,.LM536-.LFBB34
 3643               	.LM536:
 3644 0fde 84E6      		ldi r24,lo8(100)
 3645 0fe0 0E94 0000 		call Tx_char
1052:/home/student/avr_src/SimulIDE_1.0.0-SR1_Lin64/Timer/Timer.c **** 	Tx_char(0x13);
 3646               		.stabn	68,0,1052,.LM537-.LFBB34
 3647               	.LM537:
 3648 0fe4 83E1      		ldi r24,lo8(19)
 3649 0fe6 0C94 0000 		jmp Tx_char
 3650               		.size	ERROR_MESSAGE, .-ERROR_MESSAGE
 3651               	.Lscope34:
 3652               		.stabs	"",36,0,0,.Lscope34-.LFBB34
 3653               		.stabd	78,0,0
 3654               		.stabs	"COMMAND_RESET:F(0,49)",36,0,1055,COMMAND_RESET
 3655               	.global	COMMAND_RESET
 3656               		.type	COMMAND_RESET, @function
 3657               	COMMAND_RESET:
 3658               		.stabd	46,0,0
1053:/home/student/avr_src/SimulIDE_1.0.0-SR1_Lin64/Timer/Timer.c **** }
1054:/home/student/avr_src/SimulIDE_1.0.0-SR1_Lin64/Timer/Timer.c **** 
1055:/home/student/avr_src/SimulIDE_1.0.0-SR1_Lin64/Timer/Timer.c **** void COMMAND_RESET(){
 3659               		.stabn	68,0,1055,.LM538-.LFBB35
 3660               	.LM538:
 3661               	.LFBB35:
 3662               	/* prologue: function */
 3663               	/* frame size = 0 */
 3664               	/* stack size = 0 */
 3665               	.L__stack_usage = 0
1056:/home/student/avr_src/SimulIDE_1.0.0-SR1_Lin64/Timer/Timer.c **** 	c_index = 0;
 3666               		.stabn	68,0,1056,.LM539-.LFBB35
 3667               	.LM539:
 3668 0fea 1092 0000 		sts c_index,__zero_reg__
1057:/home/student/avr_src/SimulIDE_1.0.0-SR1_Lin64/Timer/Timer.c **** 	instr_flag = 0;
 3669               		.stabn	68,0,1057,.LM540-.LFBB35
 3670               	.LM540:
 3671 0fee 1092 0000 		sts instr_flag,__zero_reg__
1058:/home/student/avr_src/SimulIDE_1.0.0-SR1_Lin64/Timer/Timer.c **** 	Command_flag = 0;
 3672               		.stabn	68,0,1058,.LM541-.LFBB35
 3673               	.LM541:
 3674 0ff2 1092 0000 		sts Command_flag,__zero_reg__
1059:/home/student/avr_src/SimulIDE_1.0.0-SR1_Lin64/Timer/Timer.c **** 	q_clear();
 3675               		.stabn	68,0,1059,.LM542-.LFBB35
 3676               	.LM542:
 3677 0ff6 0C94 0000 		jmp q_clear
 3678               		.size	COMMAND_RESET, .-COMMAND_RESET
 3679               	.Lscope35:
 3680               		.stabs	"",36,0,0,.Lscope35-.LFBB35
 3681               		.stabd	78,0,0
 3682               		.section	.text.startup,"ax",@progbits
 3683               		.stabs	"main:F(0,1)",36,0,133,main
 3684               	.global	main
 3685               		.type	main, @function
 3686               	main:
 3687               		.stabd	46,0,0
 133:/home/student/avr_src/SimulIDE_1.0.0-SR1_Lin64/Timer/Timer.c **** 	
 3688               		.stabn	68,0,133,.LM543-.LFBB36
 3689               	.LM543:
 3690               	.LFBB36:
 3691               	/* prologue: function */
 3692               	/* frame size = 0 */
 3693               	/* stack size = 0 */
 3694               	.L__stack_usage = 0
 135:/home/student/avr_src/SimulIDE_1.0.0-SR1_Lin64/Timer/Timer.c **** 	Value_init();
 3695               		.stabn	68,0,135,.LM544-.LFBB36
 3696               	.LM544:
 3697               	/* #APP */
 3698               	 ;  135 "/home/student/avr_src/SimulIDE_1.0.0-SR1_Lin64/Timer/Timer.c" 1
 3699 0000 7894      		sei
 3700               	 ;  0 "" 2
 136:/home/student/avr_src/SimulIDE_1.0.0-SR1_Lin64/Timer/Timer.c ****     Port_init();
 3701               		.stabn	68,0,136,.LM545-.LFBB36
 3702               	.LM545:
 3703               	/* #NOAPP */
 3704 0002 0E94 0000 		call Value_init
 137:/home/student/avr_src/SimulIDE_1.0.0-SR1_Lin64/Timer/Timer.c **** 	I2C_LCD_init(0x27);
 3705               		.stabn	68,0,137,.LM546-.LFBB36
 3706               	.LM546:
 3707 0006 0E94 0000 		call Port_init
 138:/home/student/avr_src/SimulIDE_1.0.0-SR1_Lin64/Timer/Timer.c **** 	I2C_LCD_Reset();
 3708               		.stabn	68,0,138,.LM547-.LFBB36
 3709               	.LM547:
 3710 000a 87E2      		ldi r24,lo8(39)
 3711 000c 0E94 0000 		call I2C_LCD_init
 139:/home/student/avr_src/SimulIDE_1.0.0-SR1_Lin64/Timer/Timer.c **** 	I2C_Timer_Default();
 3712               		.stabn	68,0,139,.LM548-.LFBB36
 3713               	.LM548:
 3714 0010 0E94 0000 		call I2C_LCD_Reset
 140:/home/student/avr_src/SimulIDE_1.0.0-SR1_Lin64/Timer/Timer.c **** 	Timer1_init();
 3715               		.stabn	68,0,140,.LM549-.LFBB36
 3716               	.LM549:
 3717 0014 0E94 0000 		call I2C_Timer_Default
 141:/home/student/avr_src/SimulIDE_1.0.0-SR1_Lin64/Timer/Timer.c ****     USART_init();
 3718               		.stabn	68,0,141,.LM550-.LFBB36
 3719               	.LM550:
 3720 0018 0E94 0000 		call Timer1_init
 142:/home/student/avr_src/SimulIDE_1.0.0-SR1_Lin64/Timer/Timer.c **** 	RX_init();
 3721               		.stabn	68,0,142,.LM551-.LFBB36
 3722               	.LM551:
 3723 001c 0E94 0000 		call USART_init
 143:/home/student/avr_src/SimulIDE_1.0.0-SR1_Lin64/Timer/Timer.c **** 
 3724               		.stabn	68,0,143,.LM552-.LFBB36
 3725               	.LM552:
 3726 0020 0E94 0000 		call RX_init
 3727               	.LBB194:
 167:/home/student/avr_src/SimulIDE_1.0.0-SR1_Lin64/Timer/Timer.c **** 				q_clear();
 3728               		.stabn	68,0,167,.LM553-.LFBB36
 3729               	.LM553:
 3730 0024 11E0      		ldi r17,lo8(1)
 3731               	.LBB195:
 194:/home/student/avr_src/SimulIDE_1.0.0-SR1_Lin64/Timer/Timer.c **** 						TIME_SETTING(((time_arr[0] - '0')*10 + (time_arr[1] - '0')), ((time_arr[2] - '0')*10 + (time_
 3732               		.stabn	68,0,194,.LM554-.LFBB36
 3733               	.LM554:
 3734 0026 0AE0      		ldi r16,lo8(10)
 3735               	.LBE195:
 3736               	.LBE194:
 213:/home/student/avr_src/SimulIDE_1.0.0-SR1_Lin64/Timer/Timer.c **** 					job++;
 3737               		.stabn	68,0,213,.LM555-.LFBB36
 3738               	.LM555:
 3739 0028 C4E6      		ldi r28,lo8(100)
 3740 002a D0E0      		ldi r29,0
 3741               	.L218:
 147:/home/student/avr_src/SimulIDE_1.0.0-SR1_Lin64/Timer/Timer.c **** 
 3742               		.stabn	68,0,147,.LM556-.LFBB36
 3743               	.LM556:
 3744 002c 8091 0000 		lds r24,end_flag
 3745 0030 8823      		tst r24
 3746 0032 01F0      		breq .L220
 149:/home/student/avr_src/SimulIDE_1.0.0-SR1_Lin64/Timer/Timer.c **** 			timer_start_flag = 0;
 3747               		.stabn	68,0,149,.LM557-.LFBB36
 3748               	.LM557:
 3749 0034 1092 0000 		sts end_flag,__zero_reg__
 150:/home/student/avr_src/SimulIDE_1.0.0-SR1_Lin64/Timer/Timer.c **** 			I2C_Timer_Default();
 3750               		.stabn	68,0,150,.LM558-.LFBB36
 3751               	.LM558:
 3752 0038 1092 0000 		sts timer_start_flag,__zero_reg__
 151:/home/student/avr_src/SimulIDE_1.0.0-SR1_Lin64/Timer/Timer.c **** 			job = 0;
 3753               		.stabn	68,0,151,.LM559-.LFBB36
 3754               	.LM559:
 3755 003c 0E94 0000 		call I2C_Timer_Default
 152:/home/student/avr_src/SimulIDE_1.0.0-SR1_Lin64/Timer/Timer.c **** 			Value_init();
 3756               		.stabn	68,0,152,.LM560-.LFBB36
 3757               	.LM560:
 3758 0040 1092 0000 		sts job,__zero_reg__
 153:/home/student/avr_src/SimulIDE_1.0.0-SR1_Lin64/Timer/Timer.c **** 		}
 3759               		.stabn	68,0,153,.LM561-.LFBB36
 3760               	.LM561:
 3761 0044 0E94 0000 		call Value_init
 3762               	.L220:
 156:/home/student/avr_src/SimulIDE_1.0.0-SR1_Lin64/Timer/Timer.c **** 
 3763               		.stabn	68,0,156,.LM562-.LFBB36
 3764               	.LM562:
 3765 0048 8091 0000 		lds r24,Command_flag
 3766 004c 8823      		tst r24
 3767 004e 01F4      		brne .+2
 3768 0050 00C0      		rjmp .L222
 3769               	.LBB198:
 158:/home/student/avr_src/SimulIDE_1.0.0-SR1_Lin64/Timer/Timer.c **** 			Command_flag = 0;
 3770               		.stabn	68,0,158,.LM563-.LFBB36
 3771               	.LM563:
 3772 0052 1092 0000 		sts c_index,__zero_reg__
 159:/home/student/avr_src/SimulIDE_1.0.0-SR1_Lin64/Timer/Timer.c **** 			unsigned char c_tmp = q_pop();
 3773               		.stabn	68,0,159,.LM564-.LFBB36
 3774               	.LM564:
 3775 0056 1092 0000 		sts Command_flag,__zero_reg__
 160:/home/student/avr_src/SimulIDE_1.0.0-SR1_Lin64/Timer/Timer.c **** 			c_tmp = q_pop();
 3776               		.stabn	68,0,160,.LM565-.LFBB36
 3777               	.LM565:
 3778 005a 0E94 0000 		call q_pop
 161:/home/student/avr_src/SimulIDE_1.0.0-SR1_Lin64/Timer/Timer.c **** 
 3779               		.stabn	68,0,161,.LM566-.LFBB36
 3780               	.LM566:
 3781 005e 0E94 0000 		call q_pop
 163:/home/student/avr_src/SimulIDE_1.0.0-SR1_Lin64/Timer/Timer.c **** 				instr_flag = 1;
 3782               		.stabn	68,0,163,.LM567-.LFBB36
 3783               	.LM567:
 3784 0062 8432      		cpi r24,lo8(36)
 3785 0064 01F4      		brne .L223
 164:/home/student/avr_src/SimulIDE_1.0.0-SR1_Lin64/Timer/Timer.c **** 			}
 3786               		.stabn	68,0,164,.LM568-.LFBB36
 3787               	.LM568:
 3788 0066 1093 0000 		sts instr_flag,r17
 3789 006a 00C0      		rjmp .L224
 3790               	.L223:
 166:/home/student/avr_src/SimulIDE_1.0.0-SR1_Lin64/Timer/Timer.c **** 				timer_start_flag = 1;
 3791               		.stabn	68,0,166,.LM569-.LFBB36
 3792               	.LM569:
 3793 006c 8532      		cpi r24,lo8(37)
 3794 006e 01F4      		brne .L224
 167:/home/student/avr_src/SimulIDE_1.0.0-SR1_Lin64/Timer/Timer.c **** 				q_clear();
 3795               		.stabn	68,0,167,.LM570-.LFBB36
 3796               	.LM570:
 3797 0070 1093 0000 		sts timer_start_flag,r17
 168:/home/student/avr_src/SimulIDE_1.0.0-SR1_Lin64/Timer/Timer.c **** 			}
 3798               		.stabn	68,0,168,.LM571-.LFBB36
 3799               	.LM571:
 3800 0074 0E94 0000 		call q_clear
 3801 0078 00C0      		rjmp .L224
 3802               	.L229:
 3803               	.LBB196:
 174:/home/student/avr_src/SimulIDE_1.0.0-SR1_Lin64/Timer/Timer.c **** 					cmd_tmp = q_pop();
 3804               		.stabn	68,0,174,.LM572-.LFBB36
 3805               	.LM572:
 3806 007a 8091 0000 		lds r24,c_index
 3807 007e 8430      		cpi r24,lo8(4)
 3808 0080 00F4      		brsh .L236
 175:/home/student/avr_src/SimulIDE_1.0.0-SR1_Lin64/Timer/Timer.c **** 					Tx_char(cmd_tmp);
 3809               		.stabn	68,0,175,.LM573-.LFBB36
 3810               	.LM573:
 3811 0082 0E94 0000 		call q_pop
 3812 0086 F82E      		mov r15,r24
 176:/home/student/avr_src/SimulIDE_1.0.0-SR1_Lin64/Timer/Timer.c **** 					if ((cmd_tmp-'0') <= 9 && (cmd_tmp-'0') >=0) time_arr[c_index] = cmd_tmp;
 3813               		.stabn	68,0,176,.LM574-.LFBB36
 3814               	.LM574:
 3815 0088 0E94 0000 		call Tx_char
 177:/home/student/avr_src/SimulIDE_1.0.0-SR1_Lin64/Timer/Timer.c **** 					else {
 3816               		.stabn	68,0,177,.LM575-.LFBB36
 3817               	.LM575:
 3818 008c 80ED      		ldi r24,lo8(-48)
 3819 008e 8F0D      		add r24,r15
 3820 0090 8A30      		cpi r24,lo8(10)
 3821 0092 00F4      		brsh .L227
 177:/home/student/avr_src/SimulIDE_1.0.0-SR1_Lin64/Timer/Timer.c **** 					else {
 3822               		.stabn	68,0,177,.LM576-.LFBB36
 3823               	.LM576:
 3824 0094 E091 0000 		lds r30,c_index
 3825 0098 F0E0      		ldi r31,0
 3826 009a E050      		subi r30,lo8(-(time_arr))
 3827 009c F040      		sbci r31,hi8(-(time_arr))
 3828 009e F082      		st Z,r15
 184:/home/student/avr_src/SimulIDE_1.0.0-SR1_Lin64/Timer/Timer.c **** 				}
 3829               		.stabn	68,0,184,.LM577-.LFBB36
 3830               	.LM577:
 3831 00a0 8091 0000 		lds r24,c_index
 3832 00a4 8F5F      		subi r24,lo8(-(1))
 3833 00a6 8093 0000 		sts c_index,r24
 3834               	.L226:
 186:/home/student/avr_src/SimulIDE_1.0.0-SR1_Lin64/Timer/Timer.c **** 				if(c_index > 4) {
 3835               		.stabn	68,0,186,.LM578-.LFBB36
 3836               	.LM578:
 3837 00aa 8091 0000 		lds r24,c_index
 3838 00ae 8430      		cpi r24,lo8(4)
 3839 00b0 01F4      		brne .L228
 186:/home/student/avr_src/SimulIDE_1.0.0-SR1_Lin64/Timer/Timer.c **** 				if(c_index > 4) {
 3840               		.stabn	68,0,186,.LM579-.LFBB36
 3841               	.LM579:
 3842 00b2 0E94 0000 		call q_pop
 3843 00b6 F82E      		mov r15,r24
 3844               	.L228:
 187:/home/student/avr_src/SimulIDE_1.0.0-SR1_Lin64/Timer/Timer.c **** 					//ERROR
 3845               		.stabn	68,0,187,.LM580-.LFBB36
 3846               	.LM580:
 3847 00b8 8091 0000 		lds r24,c_index
 3848 00bc 8530      		cpi r24,lo8(5)
 3849 00be 00F4      		brsh .L227
 193:/home/student/avr_src/SimulIDE_1.0.0-SR1_Lin64/Timer/Timer.c **** 					if((((time_arr[0] - '0')*10 + (time_arr[1] - '0')) <= 60) && ((time_arr[2] - '0')*10 + (time_a
 3850               		.stabn	68,0,193,.LM581-.LFBB36
 3851               	.LM581:
 3852 00c0 83E2      		ldi r24,lo8(35)
 3853 00c2 F816      		cp r15,r24
 3854 00c4 01F0      		breq .L252
 3855               	.L224:
 3856               	.LBE196:
 171:/home/student/avr_src/SimulIDE_1.0.0-SR1_Lin64/Timer/Timer.c **** 				
 3857               		.stabn	68,0,171,.LM582-.LFBB36
 3858               	.LM582:
 3859 00c6 8091 0000 		lds r24,instr_flag
 3860 00ca 8111      		cpse r24,__zero_reg__
 3861 00cc 00C0      		rjmp .L229
 3862 00ce 00C0      		rjmp .L222
 3863               	.L252:
 3864               	.LBB197:
 194:/home/student/avr_src/SimulIDE_1.0.0-SR1_Lin64/Timer/Timer.c **** 						TIME_SETTING(((time_arr[0] - '0')*10 + (time_arr[1] - '0')), ((time_arr[2] - '0')*10 + (time_
 3865               		.stabn	68,0,194,.LM583-.LFBB36
 3866               	.LM583:
 3867 00d0 2091 0000 		lds r18,time_arr
 3868 00d4 9091 0000 		lds r25,time_arr+1
 3869 00d8 30E0      		ldi r19,0
 3870 00da 2053      		subi r18,48
 3871 00dc 3109      		sbc r19,__zero_reg__
 3872 00de 029F      		mul r16,r18
 3873 00e0 A001      		movw r20,r0
 3874 00e2 039F      		mul r16,r19
 3875 00e4 500D      		add r21,r0
 3876 00e6 1124      		clr __zero_reg__
 3877 00e8 892F      		mov r24,r25
 3878 00ea 90E0      		ldi r25,0
 3879 00ec C097      		sbiw r24,48
 3880 00ee 840F      		add r24,r20
 3881 00f0 951F      		adc r25,r21
 3882 00f2 CD97      		sbiw r24,61
 3883 00f4 04F0      		brlt .L253
 3884               	.L227:
 180:/home/student/avr_src/SimulIDE_1.0.0-SR1_Lin64/Timer/Timer.c **** 						COMMAND_RESET();
 3885               		.stabn	68,0,180,.LM584-.LFBB36
 3886               	.LM584:
 3887 00f6 0E94 0000 		call ERROR_MESSAGE
 3888 00fa 00C0      		rjmp .L251
 3889               	.L236:
 173:/home/student/avr_src/SimulIDE_1.0.0-SR1_Lin64/Timer/Timer.c **** 				if(c_index < 4) {
 3890               		.stabn	68,0,173,.LM585-.LFBB36
 3891               	.LM585:
 3892 00fc F12C      		mov r15,__zero_reg__
 3893 00fe 00C0      		rjmp .L226
 3894               	.L253:
 194:/home/student/avr_src/SimulIDE_1.0.0-SR1_Lin64/Timer/Timer.c **** 						TIME_SETTING(((time_arr[0] - '0')*10 + (time_arr[1] - '0')), ((time_arr[2] - '0')*10 + (time_
 3895               		.stabn	68,0,194,.LM586-.LFBB36
 3896               	.LM586:
 3897 0100 2091 0000 		lds r18,time_arr+2
 3898 0104 9091 0000 		lds r25,time_arr+3
 3899 0108 30E0      		ldi r19,0
 3900 010a 2053      		subi r18,48
 3901 010c 3109      		sbc r19,__zero_reg__
 3902 010e 029F      		mul r16,r18
 3903 0110 A001      		movw r20,r0
 3904 0112 039F      		mul r16,r19
 3905 0114 500D      		add r21,r0
 3906 0116 1124      		clr __zero_reg__
 3907 0118 892F      		mov r24,r25
 3908 011a 90E0      		ldi r25,0
 3909 011c C097      		sbiw r24,48
 3910 011e 840F      		add r24,r20
 3911 0120 951F      		adc r25,r21
 3912 0122 CD97      		sbiw r24,61
 3913 0124 04F4      		brge .L227
 195:/home/student/avr_src/SimulIDE_1.0.0-SR1_Lin64/Timer/Timer.c **** 						COMMAND_RESET();
 3914               		.stabn	68,0,195,.LM587-.LFBB36
 3915               	.LM587:
 3916 0126 2091 0000 		lds r18,time_arr+2
 3917 012a 3091 0000 		lds r19,time_arr+3
 3918 012e 9091 0000 		lds r25,time_arr
 3919 0132 4091 0000 		lds r20,time_arr+1
 3920 0136 220F      		lsl r18
 3921 0138 2056      		subi r18,lo8(-(-96))
 3922 013a 622F      		mov r22,r18
 3923 013c 660F      		lsl r22
 3924 013e 660F      		lsl r22
 3925 0140 620F      		add r22,r18
 3926 0142 3053      		subi r19,lo8(-(-48))
 3927 0144 630F      		add r22,r19
 3928 0146 990F      		lsl r25
 3929 0148 9056      		subi r25,lo8(-(-96))
 3930 014a 892F      		mov r24,r25
 3931 014c 880F      		lsl r24
 3932 014e 880F      		lsl r24
 3933 0150 890F      		add r24,r25
 3934 0152 20ED      		ldi r18,lo8(-48)
 3935 0154 240F      		add r18,r20
 3936 0156 820F      		add r24,r18
 3937 0158 0E94 0000 		call TIME_SETTING
 3938               	.L251:
 196:/home/student/avr_src/SimulIDE_1.0.0-SR1_Lin64/Timer/Timer.c **** 						break;
 3939               		.stabn	68,0,196,.LM588-.LFBB36
 3940               	.LM588:
 3941 015c 0E94 0000 		call COMMAND_RESET
 3942               	.L222:
 3943               	.LBE197:
 3944               	.LBE198:
 210:/home/student/avr_src/SimulIDE_1.0.0-SR1_Lin64/Timer/Timer.c **** 			case 0:
 3945               		.stabn	68,0,210,.LM589-.LFBB36
 3946               	.LM589:
 3947 0160 8091 0000 		lds r24,job
 3948 0164 8130      		cpi r24,lo8(1)
 3949 0166 01F0      		breq .L231
 3950 0168 00F0      		brlo .L232
 3951 016a 8230      		cpi r24,lo8(2)
 3952 016c 01F0      		breq .L233
 3953 016e 8330      		cpi r24,lo8(3)
 3954 0170 01F0      		breq .L234
 3955 0172 00C0      		rjmp .L218
 3956               	.L232:
 212:/home/student/avr_src/SimulIDE_1.0.0-SR1_Lin64/Timer/Timer.c **** 					time_1s = 100;
 3957               		.stabn	68,0,212,.LM590-.LFBB36
 3958               	.LM590:
 3959 0174 8091 0000 		lds r24,timer_start_flag
 3960 0178 8823      		tst r24
 3961 017a 01F4      		brne .+2
 3962 017c 00C0      		rjmp .L218
 213:/home/student/avr_src/SimulIDE_1.0.0-SR1_Lin64/Timer/Timer.c **** 					job++;
 3963               		.stabn	68,0,213,.LM591-.LFBB36
 3964               	.LM591:
 3965 017e D093 0000 		sts time_1s+1,r29
 3966 0182 C093 0000 		sts time_1s,r28
 3967 0186 00C0      		rjmp .L250
 3968               	.L231:
 218:/home/student/avr_src/SimulIDE_1.0.0-SR1_Lin64/Timer/Timer.c **** 				else job++;
 3969               		.stabn	68,0,218,.LM592-.LFBB36
 3970               	.LM592:
 3971 0188 8091 0000 		lds r24,time_1s
 3972 018c 9091 0000 		lds r25,time_1s+1
 3973 0190 892B      		or r24,r25
 3974 0192 01F0      		breq .+2
 3975 0194 00C0      		rjmp .L218
 219:/home/student/avr_src/SimulIDE_1.0.0-SR1_Lin64/Timer/Timer.c **** 			case 2:
 3976               		.stabn	68,0,219,.LM593-.LFBB36
 3977               	.LM593:
 3978 0196 8091 0000 		lds r24,job
 3979 019a 8F5F      		subi r24,lo8(-(1))
 3980 019c 8093 0000 		sts job,r24
 3981               	.L233:
 221:/home/student/avr_src/SimulIDE_1.0.0-SR1_Lin64/Timer/Timer.c **** 				job++;
 3982               		.stabn	68,0,221,.LM594-.LFBB36
 3983               	.LM594:
 3984 01a0 0E94 0000 		call I2C_Timer_act
 222:/home/student/avr_src/SimulIDE_1.0.0-SR1_Lin64/Timer/Timer.c **** 			case 3:
 3985               		.stabn	68,0,222,.LM595-.LFBB36
 3986               	.LM595:
 3987 01a4 8091 0000 		lds r24,job
 3988 01a8 8F5F      		subi r24,lo8(-(1))
 3989 01aa 8093 0000 		sts job,r24
 3990               	.L234:
 224:/home/student/avr_src/SimulIDE_1.0.0-SR1_Lin64/Timer/Timer.c **** 				else job = 0;
 3991               		.stabn	68,0,224,.LM596-.LFBB36
 3992               	.LM596:
 3993 01ae 8091 0000 		lds r24,end_flag
 3994 01b2 8823      		tst r24
 3995 01b4 01F0      		breq .L235
 3996               	.L250:
 224:/home/student/avr_src/SimulIDE_1.0.0-SR1_Lin64/Timer/Timer.c **** 				else job = 0;
 3997               		.stabn	68,0,224,.LM597-.LFBB36
 3998               	.LM597:
 3999 01b6 8091 0000 		lds r24,job
 4000 01ba 8F5F      		subi r24,lo8(-(1))
 4001 01bc 8093 0000 		sts job,r24
 4002 01c0 00C0      		rjmp .L218
 4003               	.L235:
 225:/home/student/avr_src/SimulIDE_1.0.0-SR1_Lin64/Timer/Timer.c **** 			default:
 4004               		.stabn	68,0,225,.LM598-.LFBB36
 4005               	.LM598:
 4006 01c2 1092 0000 		sts job,__zero_reg__
 4007 01c6 00C0      		rjmp .L218
 4008               		.size	main, .-main
 4009               		.stabs	"c_tmp:r(0,13)",64,0,160,24
 4010               		.stabn	192,0,0,.LBB194-.LFBB36
 4011               		.stabs	"cmd_tmp:r(0,13)",64,0,173,15
 4012               		.stabn	192,0,0,.LBB195-.LFBB36
 4013               		.stabn	224,0,0,.LBE195-.LFBB36
 4014               		.stabs	"cmd_tmp:r(0,13)",64,0,173,15
 4015               		.stabn	192,0,0,.LBB196-.LFBB36
 4016               		.stabn	224,0,0,.LBE196-.LFBB36
 4017               		.stabs	"cmd_tmp:r(0,13)",64,0,173,15
 4018               		.stabn	192,0,0,.LBB197-.LFBB36
 4019               		.stabn	224,0,0,.LBE197-.LFBB36
 4020               		.stabn	224,0,0,.LBE194-.LFBB36
 4021               		.stabs	"c_tmp:r(0,13)",64,0,160,24
 4022               		.stabn	192,0,0,.LBB198-.LFBB36
 4023               		.stabn	224,0,0,.LBE198-.LFBB36
 4024               	.Lscope36:
 4025               		.stabs	"",36,0,0,.Lscope36-.LFBB36
 4026               		.stabd	78,0,0
 4027               	.global	c_index
 4028               		.section .bss
 4029               		.type	c_index, @object
 4030               		.size	c_index, 1
 4031               	c_index:
 4032 0000 00        		.zero	1
 4033               	.global	RX_flag
 4034               		.type	RX_flag, @object
 4035               		.size	RX_flag, 1
 4036               	RX_flag:
 4037 0001 00        		.zero	1
 4038               		.comm	IN_2_CHAR,1,1
 4039               		.comm	time_arr,4,1
 4040               	.global	instr_flag
 4041               		.type	instr_flag, @object
 4042               		.size	instr_flag, 1
 4043               	instr_flag:
 4044 0002 00        		.zero	1
 4045               	.global	Command_flag
 4046               		.type	Command_flag, @object
 4047               		.size	Command_flag, 1
 4048               	Command_flag:
 4049 0003 00        		.zero	1
 4050               	.global	ETX_flag
 4051               		.type	ETX_flag, @object
 4052               		.size	ETX_flag, 1
 4053               	ETX_flag:
 4054 0004 00        		.zero	1
 4055               	.global	STX_flag
 4056               		.type	STX_flag, @object
 4057               		.size	STX_flag, 1
 4058               	STX_flag:
 4059 0005 00        		.zero	1
 4060               	.global	input
 4061               		.type	input, @object
 4062               		.size	input, 1
 4063               	input:
 4064 0006 00        		.zero	1
 4065               	.global	sec
 4066               		.type	sec, @object
 4067               		.size	sec, 1
 4068               	sec:
 4069 0007 00        		.zero	1
 4070               	.global	min
 4071               		.type	min, @object
 4072               		.size	min, 1
 4073               	min:
 4074 0008 00        		.zero	1
 4075               	.global	time_tmp
 4076               		.type	time_tmp, @object
 4077               		.size	time_tmp, 2
 4078               	time_tmp:
 4079 0009 0000      		.zero	2
 4080               	.global	time_10ms
 4081               		.type	time_10ms, @object
 4082               		.size	time_10ms, 2
 4083               	time_10ms:
 4084 000b 0000      		.zero	2
 4085               	.global	time_1s
 4086               		.type	time_1s, @object
 4087               		.size	time_1s, 2
 4088               	time_1s:
 4089 000d 0000      		.zero	2
 4090               	.global	Wait_time
 4091               		.type	Wait_time, @object
 4092               		.size	Wait_time, 1
 4093               	Wait_time:
 4094 000f 00        		.zero	1
 4095               	.global	flag_time
 4096               		.type	flag_time, @object
 4097               		.size	flag_time, 1
 4098               	flag_time:
 4099 0010 00        		.zero	1
 4100               		.comm	old_key,1,1
 4101               	.global	current_key
 4102               		.type	current_key, @object
 4103               		.size	current_key, 1
 4104               	current_key:
 4105 0011 00        		.zero	1
 4106               	.global	keyNum
 4107               		.type	keyNum, @object
 4108               		.size	keyNum, 1
 4109               	keyNum:
 4110 0012 00        		.zero	1
 4111               	.global	pressing_flag
 4112               		.type	pressing_flag, @object
 4113               		.size	pressing_flag, 1
 4114               	pressing_flag:
 4115 0013 00        		.zero	1
 4116               	.global	key_data
 4117               		.type	key_data, @object
 4118               		.size	key_data, 1
 4119               	key_data:
 4120 0014 00        		.zero	1
 4121               	.global	new_key
 4122               		.type	new_key, @object
 4123               		.size	new_key, 1
 4124               	new_key:
 4125 0015 00        		.zero	1
 4126               	.global	key_flag
 4127               		.type	key_flag, @object
 4128               		.size	key_flag, 1
 4129               	key_flag:
 4130 0016 00        		.zero	1
 4131               	.global	first_flag
 4132               		.data
 4133               		.type	first_flag, @object
 4134               		.size	first_flag, 1
 4135               	first_flag:
 4136 0000 01        		.byte	1
 4137               	.global	counting_timer_start_flag
 4138               		.section .bss
 4139               		.type	counting_timer_start_flag, @object
 4140               		.size	counting_timer_start_flag, 1
 4141               	counting_timer_start_flag:
 4142 0017 00        		.zero	1
 4143               	.global	timer_start_flag
 4144               		.type	timer_start_flag, @object
 4145               		.size	timer_start_flag, 1
 4146               	timer_start_flag:
 4147 0018 00        		.zero	1
 4148               	.global	addr
 4149               		.type	addr, @object
 4150               		.size	addr, 1
 4151               	addr:
 4152 0019 00        		.zero	1
 4153               	.global	end_flag
 4154               		.type	end_flag, @object
 4155               		.size	end_flag, 1
 4156               	end_flag:
 4157 001a 00        		.zero	1
 4158               	.global	lcd_flag
 4159               		.type	lcd_flag, @object
 4160               		.size	lcd_flag, 1
 4161               	lcd_flag:
 4162 001b 00        		.zero	1
 4163               	.global	sel_flag
 4164               		.type	sel_flag, @object
 4165               		.size	sel_flag, 1
 4166               	sel_flag:
 4167 001c 00        		.zero	1
 4168               	.global	job
 4169               		.type	job, @object
 4170               		.size	job, 1
 4171               	job:
 4172 001d 00        		.zero	1
 4173               		.comm	q,16,1
 4174               	.global	ptr_write
 4175               		.type	ptr_write, @object
 4176               		.size	ptr_write, 1
 4177               	ptr_write:
 4178 001e 00        		.zero	1
 4179               	.global	ptr_read
 4180               		.type	ptr_read, @object
 4181               		.size	ptr_read, 1
 4182               	ptr_read:
 4183 001f 00        		.zero	1
 4184               		.comm	sel,12,1
 4185               		.comm	cp,2,1
 4186               		.stabs	"cp:G(0,55)=B(0,52)",32,0,47,0
 4187               		.stabs	"sel:G(0,56)=B(0,53)",32,0,48,0
 4188               		.stabs	"ptr_read:G(0,57)=B(0,13)",32,0,49,0
 4189               		.stabs	"ptr_write:G(0,57)",32,0,50,0
 4190               		.stabs	"q:G(0,58)=ar(0,59)=r(0,59);0;0177777;;0;15;(0,57)",32,0,51,0
 4191               		.stabs	"job:G(0,57)",32,0,53,0
 4192               		.stabs	"sel_flag:G(0,57)",32,0,54,0
 4193               		.stabs	"lcd_flag:G(0,57)",32,0,55,0
 4194               		.stabs	"end_flag:G(0,57)",32,0,56,0
 4195               		.stabs	"addr:G(0,57)",32,0,57,0
 4196               		.stabs	"timer_start_flag:G(0,57)",32,0,58,0
 4197               		.stabs	"counting_timer_start_flag:G(0,57)",32,0,59,0
 4198               		.stabs	"first_flag:G(0,57)",32,0,60,0
 4199               		.stabs	"key_flag:G(0,57)",32,0,62,0
 4200               		.stabs	"new_key:G(0,57)",32,0,63,0
 4201               		.stabs	"key_data:G(0,57)",32,0,64,0
 4202               		.stabs	"pressing_flag:G(0,57)",32,0,65,0
 4203               		.stabs	"keyNum:G(0,57)",32,0,66,0
 4204               		.stabs	"current_key:G(0,57)",32,0,67,0
 4205               		.stabs	"old_key:G(0,57)",32,0,68,0
 4206               		.stabs	"flag_time:G(0,57)",32,0,69,0
 4207               		.stabs	"Wait_time:G(0,57)",32,0,70,0
 4208               		.stabs	"time_1s:G(0,60)=B(5,4)",32,0,72,0
 4209               		.stabs	"time_10ms:G(0,60)",32,0,73,0
 4210               		.stabs	"time_tmp:G(0,60)",32,0,74,0
 4211               		.stabs	"min:G(0,57)",32,0,75,0
 4212               		.stabs	"sec:G(0,57)",32,0,76,0
 4213               		.stabs	"input:G(0,57)",32,0,77,0
 4214               		.stabs	"STX_flag:G(0,57)",32,0,79,0
 4215               		.stabs	"ETX_flag:G(0,57)",32,0,80,0
 4216               		.stabs	"Command_flag:G(0,57)",32,0,81,0
 4217               		.stabs	"instr_flag:G(0,57)",32,0,82,0
 4218               		.stabs	"time_arr:G(0,61)=ar(0,59);0;3;(0,57)",32,0,83,0
 4219               		.stabs	"IN_2_CHAR:G(0,57)",32,0,84,0
 4220               		.stabs	"RX_flag:G(0,57)",32,0,85,0
 4221               		.stabs	"c_index:G(0,57)",32,0,86,0
 4222               		.text
 4223               		.stabs	"",100,0,0,.Letext0
 4224               	.Letext0:
 4225               		.ident	"GCC: (GNU) 5.4.0"
 4226               	.global __do_copy_data
 4227               	.global __do_clear_bss
DEFINED SYMBOLS
                            *ABS*:0000000000000000 Timer.c
     /tmp/cc03t2gG.s:2      *ABS*:000000000000003e __SP_H__
     /tmp/cc03t2gG.s:3      *ABS*:000000000000003d __SP_L__
     /tmp/cc03t2gG.s:4      *ABS*:000000000000003f __SREG__
     /tmp/cc03t2gG.s:5      *ABS*:0000000000000000 __tmp_reg__
     /tmp/cc03t2gG.s:6      *ABS*:0000000000000001 __zero_reg__
     /tmp/cc03t2gG.s:112    .text:0000000000000000 Value_init
                            *COM*:000000000000000c sel
                            *COM*:0000000000000002 cp
     /tmp/cc03t2gG.s:161    .text:000000000000002a Port_init
     /tmp/cc03t2gG.s:189    .text:0000000000000036 Timer1_init
     /tmp/cc03t2gG.s:249    .text:0000000000000074 USART_init
     /tmp/cc03t2gG.s:295    .text:00000000000000a0 Tx_char
     /tmp/cc03t2gG.s:321    .text:00000000000000ae RX_init
     /tmp/cc03t2gG.s:345    .text:00000000000000ba __vector_18
     /tmp/cc03t2gG.s:4063   .bss:0000000000000006 input
                            *COM*:0000000000000001 IN_2_CHAR
     /tmp/cc03t2gG.s:4036   .bss:0000000000000001 RX_flag
     /tmp/cc03t2gG.s:391    .text:00000000000000ea key_analysis
     /tmp/cc03t2gG.s:4129   .bss:0000000000000016 key_flag
     /tmp/cc03t2gG.s:542    .text:0000000000000170 key_scan
     /tmp/cc03t2gG.s:4124   .bss:0000000000000015 new_key
                            *COM*:0000000000000001 old_key
     /tmp/cc03t2gG.s:4114   .bss:0000000000000013 pressing_flag
     /tmp/cc03t2gG.s:686    .text:0000000000000210 num2lcdbyte
     /tmp/cc03t2gG.s:818    .text:000000000000027a write_AT24Cxx_i2c_LCDAddressing
     /tmp/cc03t2gG.s:946    .text:00000000000002c4 AT24Cxx_i2c_start
     /tmp/cc03t2gG.s:996    .text:00000000000002da AT24Cxx_ACK_send
     /tmp/cc03t2gG.s:1093   .text:000000000000030c AT24Cxx_i2c_stop
     /tmp/cc03t2gG.s:1148   .text:0000000000000324 write_AT24Cxx_i2c_byte
     /tmp/cc03t2gG.s:1188   .text:0000000000000334 LCD_Write
     /tmp/cc03t2gG.s:1222   .text:0000000000000340 I2C_LCD_init
     /tmp/cc03t2gG.s:1453   .text:00000000000003fe LCD_CharWrite
     /tmp/cc03t2gG.s:1526   .text:0000000000000434 I2C_LCD_Erase
     /tmp/cc03t2gG.s:1567   .text:000000000000045c I2C_LCD_Reset
     /tmp/cc03t2gG.s:1752   .text:00000000000004f0 I2C_LCD_MoveLeft
     /tmp/cc03t2gG.s:1803   .text:0000000000000516 TIME_SETTING
     /tmp/cc03t2gG.s:4073   .bss:0000000000000008 min
     /tmp/cc03t2gG.s:4068   .bss:0000000000000007 sec
     /tmp/cc03t2gG.s:1987   .text:000000000000061a I2C_Timer_Default
     /tmp/cc03t2gG.s:2083   .text:000000000000069a I2C_LCD_MoveRight
     /tmp/cc03t2gG.s:2127   .text:00000000000006b8 I2C_Timer_act
     /tmp/cc03t2gG.s:4156   .bss:000000000000001a end_flag
     /tmp/cc03t2gG.s:4083   .bss:000000000000000b time_10ms
     /tmp/cc03t2gG.s:2452   .text:00000000000008aa I2C_LCD_SELECT
     /tmp/cc03t2gG.s:4166   .bss:000000000000001c sel_flag
     /tmp/cc03t2gG.s:2506   .text:00000000000008dc LCD_NEBIT
     /tmp/cc03t2gG.s:2525   .text:00000000000008e0 q_isFull
     /tmp/cc03t2gG.s:4177   .bss:000000000000001e ptr_write
     /tmp/cc03t2gG.s:4182   .bss:000000000000001f ptr_read
     /tmp/cc03t2gG.s:2560   .text:00000000000008fe q_push
                            *COM*:0000000000000010 q
     /tmp/cc03t2gG.s:2610   .text:000000000000092e __vector_11
     /tmp/cc03t2gG.s:4053   .bss:0000000000000004 ETX_flag
     /tmp/cc03t2gG.s:4058   .bss:0000000000000005 STX_flag
     /tmp/cc03t2gG.s:4048   .bss:0000000000000003 Command_flag
     /tmp/cc03t2gG.s:4146   .bss:0000000000000018 timer_start_flag
     /tmp/cc03t2gG.s:4088   .bss:000000000000000d time_1s
     /tmp/cc03t2gG.s:4119   .bss:0000000000000014 key_data
     /tmp/cc03t2gG.s:3431   .text:0000000000000f06 q_isEmpty
     /tmp/cc03t2gG.s:3461   .text:0000000000000f1c q_pop
     /tmp/cc03t2gG.s:3514   .text:0000000000000f4a q_clear
     /tmp/cc03t2gG.s:3545   .text:0000000000000f5a ERROR_MESSAGE
     /tmp/cc03t2gG.s:3657   .text:0000000000000fea COMMAND_RESET
     /tmp/cc03t2gG.s:4031   .bss:0000000000000000 c_index
     /tmp/cc03t2gG.s:4043   .bss:0000000000000002 instr_flag
     /tmp/cc03t2gG.s:3686   .text.startup:0000000000000000 main
     /tmp/cc03t2gG.s:4171   .bss:000000000000001d job
                            *COM*:0000000000000004 time_arr
     /tmp/cc03t2gG.s:4078   .bss:0000000000000009 time_tmp
     /tmp/cc03t2gG.s:4093   .bss:000000000000000f Wait_time
     /tmp/cc03t2gG.s:4098   .bss:0000000000000010 flag_time
     /tmp/cc03t2gG.s:4104   .bss:0000000000000011 current_key
     /tmp/cc03t2gG.s:4109   .bss:0000000000000012 keyNum
     /tmp/cc03t2gG.s:4135   .data:0000000000000000 first_flag
     /tmp/cc03t2gG.s:4141   .bss:0000000000000017 counting_timer_start_flag
     /tmp/cc03t2gG.s:4151   .bss:0000000000000019 addr
     /tmp/cc03t2gG.s:4161   .bss:000000000000001b lcd_flag

UNDEFINED SYMBOLS
__udivmodqi4
__divmodhi4
__udivmodhi4
__do_copy_data
__do_clear_bss
