   1               		.file	"Timer.c"
   2               	__SP_H__ = 0x3e
   3               	__SP_L__ = 0x3d
   4               	__SREG__ = 0x3f
   5               	__tmp_reg__ = 0
   6               	__zero_reg__ = 1
   7               		.stabs	"/home/student/build-avr_linux_compiler-Desktop-Debug/",100,0,2,.Ltext0
   8               		.stabs	"/home/student/avr_src/SimulIDE_1.0.0-SR1_Lin64/Timer/Timer.c",100,0,2,.Ltext0
   9               		.text
  10               	.Ltext0:
  11               		.stabs	"gcc2_compiled.",60,0,0,0
  12               		.stabs	"int:t(0,1)=r(0,1);-32768;32767;",128,0,0,0
  13               		.stabs	"char:t(0,2)=r(0,2);0;127;",128,0,0,0
  14               		.stabs	"long int:t(0,3)=@s32;r(0,3);020000000000;017777777777;",128,0,0,0
  15               		.stabs	"unsigned int:t(0,4)=r(0,4);0;0177777;",128,0,0,0
  16               		.stabs	"long unsigned int:t(0,5)=@s32;r(0,5);0;037777777777;",128,0,0,0
  17               		.stabs	"__int128:t(0,6)=@s128;r(0,6);02000000000000000000000000000000000000000000;0177777777777777
  18               		.stabs	"__int128 unsigned:t(0,7)=@s128;r(0,7);0;03777777777777777777777777777777777777777777;",128
  19               		.stabs	"long long int:t(0,8)=@s64;r(0,8);01000000000000000000000;00777777777777777777777;",128,0,0
  20               		.stabs	"long long unsigned int:t(0,9)=@s64;r(0,9);0;01777777777777777777777;",128,0,0,0
  21               		.stabs	"short int:t(0,10)=r(0,10);-32768;32767;",128,0,0,0
  22               		.stabs	"short unsigned int:t(0,11)=r(0,11);0;0177777;",128,0,0,0
  23               		.stabs	"signed char:t(0,12)=@s8;r(0,12);-128;127;",128,0,0,0
  24               		.stabs	"unsigned char:t(0,13)=@s8;r(0,13);0;255;",128,0,0,0
  25               		.stabs	"float:t(0,14)=r(0,1);4;0;",128,0,0,0
  26               		.stabs	"double:t(0,15)=r(0,1);4;0;",128,0,0,0
  27               		.stabs	"long double:t(0,16)=r(0,1);4;0;",128,0,0,0
  28               		.stabs	"short _Fract:t(0,17)=r(0,1);1;0;",128,0,0,0
  29               		.stabs	"_Fract:t(0,18)=r(0,1);2;0;",128,0,0,0
  30               		.stabs	"long _Fract:t(0,19)=r(0,1);4;0;",128,0,0,0
  31               		.stabs	"long long _Fract:t(0,20)=r(0,1);8;0;",128,0,0,0
  32               		.stabs	"unsigned short _Fract:t(0,21)=r(0,1);1;0;",128,0,0,0
  33               		.stabs	"unsigned _Fract:t(0,22)=r(0,1);2;0;",128,0,0,0
  34               		.stabs	"unsigned long _Fract:t(0,23)=r(0,1);4;0;",128,0,0,0
  35               		.stabs	"unsigned long long _Fract:t(0,24)=r(0,1);8;0;",128,0,0,0
  36               		.stabs	"_Sat short _Fract:t(0,25)=r(0,1);1;0;",128,0,0,0
  37               		.stabs	"_Sat _Fract:t(0,26)=r(0,1);2;0;",128,0,0,0
  38               		.stabs	"_Sat long _Fract:t(0,27)=r(0,1);4;0;",128,0,0,0
  39               		.stabs	"_Sat long long _Fract:t(0,28)=r(0,1);8;0;",128,0,0,0
  40               		.stabs	"_Sat unsigned short _Fract:t(0,29)=r(0,1);1;0;",128,0,0,0
  41               		.stabs	"_Sat unsigned _Fract:t(0,30)=r(0,1);2;0;",128,0,0,0
  42               		.stabs	"_Sat unsigned long _Fract:t(0,31)=r(0,1);4;0;",128,0,0,0
  43               		.stabs	"_Sat unsigned long long _Fract:t(0,32)=r(0,1);8;0;",128,0,0,0
  44               		.stabs	"short _Accum:t(0,33)=r(0,1);2;0;",128,0,0,0
  45               		.stabs	"_Accum:t(0,34)=r(0,1);4;0;",128,0,0,0
  46               		.stabs	"long _Accum:t(0,35)=r(0,1);8;0;",128,0,0,0
  47               		.stabs	"long long _Accum:t(0,36)=r(0,1);8;0;",128,0,0,0
  48               		.stabs	"unsigned short _Accum:t(0,37)=r(0,1);2;0;",128,0,0,0
  49               		.stabs	"unsigned _Accum:t(0,38)=r(0,1);4;0;",128,0,0,0
  50               		.stabs	"unsigned long _Accum:t(0,39)=r(0,1);8;0;",128,0,0,0
  51               		.stabs	"unsigned long long _Accum:t(0,40)=r(0,1);8;0;",128,0,0,0
  52               		.stabs	"_Sat short _Accum:t(0,41)=r(0,1);2;0;",128,0,0,0
  53               		.stabs	"_Sat _Accum:t(0,42)=r(0,1);4;0;",128,0,0,0
  54               		.stabs	"_Sat long _Accum:t(0,43)=r(0,1);8;0;",128,0,0,0
  55               		.stabs	"_Sat long long _Accum:t(0,44)=r(0,1);8;0;",128,0,0,0
  56               		.stabs	"_Sat unsigned short _Accum:t(0,45)=r(0,1);2;0;",128,0,0,0
  57               		.stabs	"_Sat unsigned _Accum:t(0,46)=r(0,1);4;0;",128,0,0,0
  58               		.stabs	"_Sat unsigned long _Accum:t(0,47)=r(0,1);8;0;",128,0,0,0
  59               		.stabs	"_Sat unsigned long long _Accum:t(0,48)=r(0,1);8;0;",128,0,0,0
  60               		.stabs	"void:t(0,49)=(0,49)",128,0,0,0
  61               		.stabs	"/usr/lib/avr/include/avr/io.h",130,0,0,0
  62               		.stabs	"/usr/lib/avr/include/avr/sfr_defs.h",130,0,0,0
  63               		.stabs	"/usr/lib/avr/include/inttypes.h",130,0,0,0
  64               		.stabs	"/usr/lib/gcc/avr/5.4.0/include/stdint.h",130,0,0,0
  65               		.stabs	"/usr/lib/avr/include/stdint.h",130,0,0,0
  66               		.stabs	"int8_t:t(5,1)=(0,12)",128,0,125,0
  67               		.stabs	"uint8_t:t(5,2)=(0,13)",128,0,126,0
  68               		.stabs	"int16_t:t(5,3)=(0,1)",128,0,127,0
  69               		.stabs	"uint16_t:t(5,4)=(0,4)",128,0,128,0
  70               		.stabs	"int32_t:t(5,5)=(0,3)",128,0,129,0
  71               		.stabs	"uint32_t:t(5,6)=(0,5)",128,0,130,0
  72               		.stabs	"int64_t:t(5,7)=(0,8)",128,0,132,0
  73               		.stabs	"uint64_t:t(5,8)=(0,9)",128,0,133,0
  74               		.stabs	"intptr_t:t(5,9)=(5,3)",128,0,146,0
  75               		.stabs	"uintptr_t:t(5,10)=(5,4)",128,0,151,0
  76               		.stabs	"int_least8_t:t(5,11)=(5,1)",128,0,163,0
  77               		.stabs	"uint_least8_t:t(5,12)=(5,2)",128,0,168,0
  78               		.stabs	"int_least16_t:t(5,13)=(5,3)",128,0,173,0
  79               		.stabs	"uint_least16_t:t(5,14)=(5,4)",128,0,178,0
  80               		.stabs	"int_least32_t:t(5,15)=(5,5)",128,0,183,0
  81               		.stabs	"uint_least32_t:t(5,16)=(5,6)",128,0,188,0
  82               		.stabs	"int_least64_t:t(5,17)=(5,7)",128,0,196,0
  83               		.stabs	"uint_least64_t:t(5,18)=(5,8)",128,0,203,0
  84               		.stabs	"int_fast8_t:t(5,19)=(5,1)",128,0,217,0
  85               		.stabs	"uint_fast8_t:t(5,20)=(5,2)",128,0,222,0
  86               		.stabs	"int_fast16_t:t(5,21)=(5,3)",128,0,227,0
  87               		.stabs	"uint_fast16_t:t(5,22)=(5,4)",128,0,232,0
  88               		.stabs	"int_fast32_t:t(5,23)=(5,5)",128,0,237,0
  89               		.stabs	"uint_fast32_t:t(5,24)=(5,6)",128,0,242,0
  90               		.stabs	"int_fast64_t:t(5,25)=(5,7)",128,0,250,0
  91               		.stabs	"uint_fast64_t:t(5,26)=(5,8)",128,0,257,0
  92               		.stabs	"intmax_t:t(5,27)=(5,7)",128,0,277,0
  93               		.stabs	"uintmax_t:t(5,28)=(5,8)",128,0,282,0
  94               		.stabn	162,0,0,0
  95               		.stabn	162,0,0,0
  96               		.stabs	"int_farptr_t:t(3,1)=(5,5)",128,0,77,0
  97               		.stabs	"uint_farptr_t:t(3,2)=(5,6)",128,0,81,0
  98               		.stabn	162,0,0,0
  99               		.stabn	162,0,0,0
 100               		.stabs	"/usr/lib/avr/include/avr/fuse.h",130,0,0,0
 101               		.stabs	"__fuse_t:t(6,1)=(6,2)=s3low:(0,13),0,8;high:(0,13),8,8;extended:(0,13),16,8;;",128,0,244,0
 102               		.stabn	162,0,0,0
 103               		.stabn	162,0,0,0
 104               		.stabs	"CursorPoint:t(0,50)=(0,51)=xsPoint:",128,0,29,0
 105               		.stabs	"SecNum:t(0,52)=(0,53)=xstimeNum:",128,0,30,0
 106               		.stabs	"bool:t(0,54)=(0,1)",128,0,31,0
 107               		.stabs	"Point:T(0,51)=s2x:(0,1),0,16;;",128,0,0,0
 108               		.stabs	"timeNum:T(0,53)=s12n1:(0,1),0,16;n2:(0,1),16,16;n3:(0,1),32,16;n4:(0,1),48,16;SecNum:(0,1)
 109               		.stabs	"Timer1_init:F(0,49)",36,0,210,Timer1_init
 110               	.global	Timer1_init
 111               		.type	Timer1_init, @function
 112               	Timer1_init:
 113               		.stabd	46,0,0
   1:/home/student/avr_src/SimulIDE_1.0.0-SR1_Lin64/Timer/Timer.c **** #ifndef F_CPU
   2:/home/student/avr_src/SimulIDE_1.0.0-SR1_Lin64/Timer/Timer.c **** #define F_CPU 16000000UL // or whatever may be your frequency
   3:/home/student/avr_src/SimulIDE_1.0.0-SR1_Lin64/Timer/Timer.c **** #endif
   4:/home/student/avr_src/SimulIDE_1.0.0-SR1_Lin64/Timer/Timer.c **** //====================================================
   5:/home/student/avr_src/SimulIDE_1.0.0-SR1_Lin64/Timer/Timer.c **** #include <avr/io.h>
   6:/home/student/avr_src/SimulIDE_1.0.0-SR1_Lin64/Timer/Timer.c **** #include <util/delay.h>
   7:/home/student/avr_src/SimulIDE_1.0.0-SR1_Lin64/Timer/Timer.c **** #include <avr/interrupt.h>
   8:/home/student/avr_src/SimulIDE_1.0.0-SR1_Lin64/Timer/Timer.c **** //====================================================
   9:/home/student/avr_src/SimulIDE_1.0.0-SR1_Lin64/Timer/Timer.c **** #define AT24CxxPORT PORTB
  10:/home/student/avr_src/SimulIDE_1.0.0-SR1_Lin64/Timer/Timer.c **** #define AT24CxxDDR DDRB
  11:/home/student/avr_src/SimulIDE_1.0.0-SR1_Lin64/Timer/Timer.c **** #define AT24CxxPIN PINB
  12:/home/student/avr_src/SimulIDE_1.0.0-SR1_Lin64/Timer/Timer.c **** #define AT24Cxx_SCL 0b00100000
  13:/home/student/avr_src/SimulIDE_1.0.0-SR1_Lin64/Timer/Timer.c **** #define AT24Cxx_SDA 0b00010000
  14:/home/student/avr_src/SimulIDE_1.0.0-SR1_Lin64/Timer/Timer.c **** #define E_BIT 0x04 //location of E BIT
  15:/home/student/avr_src/SimulIDE_1.0.0-SR1_Lin64/Timer/Timer.c **** #define B_BIT 0x08 //location of bright
  16:/home/student/avr_src/SimulIDE_1.0.0-SR1_Lin64/Timer/Timer.c **** #define I2CLCD_ADDR 0x27
  17:/home/student/avr_src/SimulIDE_1.0.0-SR1_Lin64/Timer/Timer.c **** #define ACK 0x00 // ACK LOW
  18:/home/student/avr_src/SimulIDE_1.0.0-SR1_Lin64/Timer/Timer.c **** #define NACK 0x01 // NACK HIGH
  19:/home/student/avr_src/SimulIDE_1.0.0-SR1_Lin64/Timer/Timer.c **** #define EEP_WRITE_WAIT 10 // write wait time
  20:/home/student/avr_src/SimulIDE_1.0.0-SR1_Lin64/Timer/Timer.c **** #define AT24Cxx_SDA_HIGH() (AT24CxxPORT |= AT24Cxx_SDA)
  21:/home/student/avr_src/SimulIDE_1.0.0-SR1_Lin64/Timer/Timer.c **** #define AT24Cxx_SDA_LOW() (AT24CxxPORT &= ~AT24Cxx_SDA)
  22:/home/student/avr_src/SimulIDE_1.0.0-SR1_Lin64/Timer/Timer.c **** #define AT24Cxx_SCL_HIGH() (AT24CxxPORT |= AT24Cxx_SCL)
  23:/home/student/avr_src/SimulIDE_1.0.0-SR1_Lin64/Timer/Timer.c **** #define AT24Cxx_SCL_LOW() (AT24CxxPORT &= ~(AT24Cxx_SCL))
  24:/home/student/avr_src/SimulIDE_1.0.0-SR1_Lin64/Timer/Timer.c **** #define AT24Cxx_SDA_IN() (AT24CxxDDR &= ~AT24Cxx_SDA)
  25:/home/student/avr_src/SimulIDE_1.0.0-SR1_Lin64/Timer/Timer.c **** #define AT24Cxx_SDA_OUT() (AT24CxxDDR |= AT24Cxx_SDA)
  26:/home/student/avr_src/SimulIDE_1.0.0-SR1_Lin64/Timer/Timer.c **** #define Q_LENGTH 16
  27:/home/student/avr_src/SimulIDE_1.0.0-SR1_Lin64/Timer/Timer.c **** #define true 1
  28:/home/student/avr_src/SimulIDE_1.0.0-SR1_Lin64/Timer/Timer.c **** #define false 0
  29:/home/student/avr_src/SimulIDE_1.0.0-SR1_Lin64/Timer/Timer.c **** typedef struct Point CursorPoint;
  30:/home/student/avr_src/SimulIDE_1.0.0-SR1_Lin64/Timer/Timer.c **** typedef struct timeNum SecNum;
  31:/home/student/avr_src/SimulIDE_1.0.0-SR1_Lin64/Timer/Timer.c **** typedef int bool;
  32:/home/student/avr_src/SimulIDE_1.0.0-SR1_Lin64/Timer/Timer.c **** //====================================================
  33:/home/student/avr_src/SimulIDE_1.0.0-SR1_Lin64/Timer/Timer.c **** struct Point
  34:/home/student/avr_src/SimulIDE_1.0.0-SR1_Lin64/Timer/Timer.c **** {
  35:/home/student/avr_src/SimulIDE_1.0.0-SR1_Lin64/Timer/Timer.c **** 	int x;
  36:/home/student/avr_src/SimulIDE_1.0.0-SR1_Lin64/Timer/Timer.c **** };
  37:/home/student/avr_src/SimulIDE_1.0.0-SR1_Lin64/Timer/Timer.c **** struct timeNum
  38:/home/student/avr_src/SimulIDE_1.0.0-SR1_Lin64/Timer/Timer.c **** {
  39:/home/student/avr_src/SimulIDE_1.0.0-SR1_Lin64/Timer/Timer.c **** 	int n1;
  40:/home/student/avr_src/SimulIDE_1.0.0-SR1_Lin64/Timer/Timer.c **** 	int n2;
  41:/home/student/avr_src/SimulIDE_1.0.0-SR1_Lin64/Timer/Timer.c **** 	int n3;
  42:/home/student/avr_src/SimulIDE_1.0.0-SR1_Lin64/Timer/Timer.c **** 	int n4;
  43:/home/student/avr_src/SimulIDE_1.0.0-SR1_Lin64/Timer/Timer.c **** 	int SecNum;
  44:/home/student/avr_src/SimulIDE_1.0.0-SR1_Lin64/Timer/Timer.c **** 	int MinNum;
  45:/home/student/avr_src/SimulIDE_1.0.0-SR1_Lin64/Timer/Timer.c **** };
  46:/home/student/avr_src/SimulIDE_1.0.0-SR1_Lin64/Timer/Timer.c **** //====================================================
  47:/home/student/avr_src/SimulIDE_1.0.0-SR1_Lin64/Timer/Timer.c **** volatile CursorPoint cp;
  48:/home/student/avr_src/SimulIDE_1.0.0-SR1_Lin64/Timer/Timer.c **** volatile SecNum sel;
  49:/home/student/avr_src/SimulIDE_1.0.0-SR1_Lin64/Timer/Timer.c **** volatile unsigned char ptr_read = 0;
  50:/home/student/avr_src/SimulIDE_1.0.0-SR1_Lin64/Timer/Timer.c **** volatile unsigned char ptr_write = 0;
  51:/home/student/avr_src/SimulIDE_1.0.0-SR1_Lin64/Timer/Timer.c **** volatile unsigned char q[Q_LENGTH];
  52:/home/student/avr_src/SimulIDE_1.0.0-SR1_Lin64/Timer/Timer.c **** //====================================================
  53:/home/student/avr_src/SimulIDE_1.0.0-SR1_Lin64/Timer/Timer.c **** volatile unsigned char job = 0; //Timer job flag
  54:/home/student/avr_src/SimulIDE_1.0.0-SR1_Lin64/Timer/Timer.c **** volatile unsigned char sel_flag = 0; //Time selector
  55:/home/student/avr_src/SimulIDE_1.0.0-SR1_Lin64/Timer/Timer.c **** volatile unsigned char lcd_flag = 0; //lcd on check flag
  56:/home/student/avr_src/SimulIDE_1.0.0-SR1_Lin64/Timer/Timer.c **** volatile unsigned char end_flag = 0; //timer end flag
  57:/home/student/avr_src/SimulIDE_1.0.0-SR1_Lin64/Timer/Timer.c **** volatile unsigned char addr = 0; 
  58:/home/student/avr_src/SimulIDE_1.0.0-SR1_Lin64/Timer/Timer.c **** volatile unsigned char timer_start_flag = 0;
  59:/home/student/avr_src/SimulIDE_1.0.0-SR1_Lin64/Timer/Timer.c **** volatile unsigned char counting_timer_start_flag = 0;
  60:/home/student/avr_src/SimulIDE_1.0.0-SR1_Lin64/Timer/Timer.c **** volatile unsigned char first_flag = 1;
  61:/home/student/avr_src/SimulIDE_1.0.0-SR1_Lin64/Timer/Timer.c **** //====================================================
  62:/home/student/avr_src/SimulIDE_1.0.0-SR1_Lin64/Timer/Timer.c **** volatile unsigned char key_flag = 0; //key check flag
  63:/home/student/avr_src/SimulIDE_1.0.0-SR1_Lin64/Timer/Timer.c **** volatile unsigned char new_key = 0;
  64:/home/student/avr_src/SimulIDE_1.0.0-SR1_Lin64/Timer/Timer.c **** volatile unsigned char key_data = 0;
  65:/home/student/avr_src/SimulIDE_1.0.0-SR1_Lin64/Timer/Timer.c **** volatile unsigned char pressing_flag = 0;
  66:/home/student/avr_src/SimulIDE_1.0.0-SR1_Lin64/Timer/Timer.c **** volatile unsigned char keyNum = 0;
  67:/home/student/avr_src/SimulIDE_1.0.0-SR1_Lin64/Timer/Timer.c **** volatile unsigned char current_key = 0;
  68:/home/student/avr_src/SimulIDE_1.0.0-SR1_Lin64/Timer/Timer.c **** volatile unsigned char old_key;
  69:/home/student/avr_src/SimulIDE_1.0.0-SR1_Lin64/Timer/Timer.c **** volatile unsigned char flag_time = 0;
  70:/home/student/avr_src/SimulIDE_1.0.0-SR1_Lin64/Timer/Timer.c **** volatile unsigned char Wait_time = 0;
  71:/home/student/avr_src/SimulIDE_1.0.0-SR1_Lin64/Timer/Timer.c **** //====================================================
  72:/home/student/avr_src/SimulIDE_1.0.0-SR1_Lin64/Timer/Timer.c **** volatile uint16_t time_1s = 0; // 100 : 1s
  73:/home/student/avr_src/SimulIDE_1.0.0-SR1_Lin64/Timer/Timer.c **** volatile uint16_t time_10ms = 0; 
  74:/home/student/avr_src/SimulIDE_1.0.0-SR1_Lin64/Timer/Timer.c **** volatile uint16_t time_tmp = 0;
  75:/home/student/avr_src/SimulIDE_1.0.0-SR1_Lin64/Timer/Timer.c **** volatile unsigned char min = 0;
  76:/home/student/avr_src/SimulIDE_1.0.0-SR1_Lin64/Timer/Timer.c **** volatile unsigned char sec = 0;
  77:/home/student/avr_src/SimulIDE_1.0.0-SR1_Lin64/Timer/Timer.c **** unsigned char input = 0;
  78:/home/student/avr_src/SimulIDE_1.0.0-SR1_Lin64/Timer/Timer.c **** //====================================================
  79:/home/student/avr_src/SimulIDE_1.0.0-SR1_Lin64/Timer/Timer.c **** void Timer0_init();
  80:/home/student/avr_src/SimulIDE_1.0.0-SR1_Lin64/Timer/Timer.c **** void Timer1_init();
  81:/home/student/avr_src/SimulIDE_1.0.0-SR1_Lin64/Timer/Timer.c **** void Port_init();
  82:/home/student/avr_src/SimulIDE_1.0.0-SR1_Lin64/Timer/Timer.c **** void USART_init();
  83:/home/student/avr_src/SimulIDE_1.0.0-SR1_Lin64/Timer/Timer.c **** void setup_watchdog();
  84:/home/student/avr_src/SimulIDE_1.0.0-SR1_Lin64/Timer/Timer.c **** //====================================================
  85:/home/student/avr_src/SimulIDE_1.0.0-SR1_Lin64/Timer/Timer.c **** void Tx_char(unsigned char data);
  86:/home/student/avr_src/SimulIDE_1.0.0-SR1_Lin64/Timer/Timer.c **** unsigned char key_scan(void);
  87:/home/student/avr_src/SimulIDE_1.0.0-SR1_Lin64/Timer/Timer.c **** unsigned char key_analysis(unsigned char key, unsigned char Raw);
  88:/home/student/avr_src/SimulIDE_1.0.0-SR1_Lin64/Timer/Timer.c **** unsigned char read_AT24Cxx_i2c_byte(void);
  89:/home/student/avr_src/SimulIDE_1.0.0-SR1_Lin64/Timer/Timer.c **** unsigned char AT24Cxx_Read(unsigned char address, unsigned char sub_addr1, unsigned char sub_addr2)
  90:/home/student/avr_src/SimulIDE_1.0.0-SR1_Lin64/Timer/Timer.c **** void AT24Cxx_i2c_init(void);
  91:/home/student/avr_src/SimulIDE_1.0.0-SR1_Lin64/Timer/Timer.c **** void AT24Cxx_i2c_start(void);
  92:/home/student/avr_src/SimulIDE_1.0.0-SR1_Lin64/Timer/Timer.c **** void AT24Cxx_ACK_send(unsigned char ack_data);
  93:/home/student/avr_src/SimulIDE_1.0.0-SR1_Lin64/Timer/Timer.c **** void AT24Cxx_i2c_stop(void);
  94:/home/student/avr_src/SimulIDE_1.0.0-SR1_Lin64/Timer/Timer.c **** void write_AT24Cxx_i2c_byte(unsigned char byte);
  95:/home/student/avr_src/SimulIDE_1.0.0-SR1_Lin64/Timer/Timer.c **** void write_AT24Cxx_i2cControl(unsigned char byte);
  96:/home/student/avr_src/SimulIDE_1.0.0-SR1_Lin64/Timer/Timer.c **** void LCD_Write(unsigned char byte);
  97:/home/student/avr_src/SimulIDE_1.0.0-SR1_Lin64/Timer/Timer.c **** void write_AT24Cxx_i2c_LCDAddressing(unsigned char byte);
  98:/home/student/avr_src/SimulIDE_1.0.0-SR1_Lin64/Timer/Timer.c **** void LCD_NEBIT(unsigned char byte);
  99:/home/student/avr_src/SimulIDE_1.0.0-SR1_Lin64/Timer/Timer.c **** void I2C_LCD_init(unsigned char data);
 100:/home/student/avr_src/SimulIDE_1.0.0-SR1_Lin64/Timer/Timer.c **** void LCD_clear(void);
 101:/home/student/avr_src/SimulIDE_1.0.0-SR1_Lin64/Timer/Timer.c **** void LCD_CharWrite(uint16_t byte);
 102:/home/student/avr_src/SimulIDE_1.0.0-SR1_Lin64/Timer/Timer.c **** void I2C_LCD_Reset();
 103:/home/student/avr_src/SimulIDE_1.0.0-SR1_Lin64/Timer/Timer.c **** void I2C_LCD_Erase();
 104:/home/student/avr_src/SimulIDE_1.0.0-SR1_Lin64/Timer/Timer.c **** void I2C_LCD_MoveLeft(unsigned char cnt);
 105:/home/student/avr_src/SimulIDE_1.0.0-SR1_Lin64/Timer/Timer.c **** void I2C_LCD_MoveRight(unsigned char cnt);
 106:/home/student/avr_src/SimulIDE_1.0.0-SR1_Lin64/Timer/Timer.c **** void I2C_LCD_SELECT();
 107:/home/student/avr_src/SimulIDE_1.0.0-SR1_Lin64/Timer/Timer.c **** void I2C_Timer_Default();
 108:/home/student/avr_src/SimulIDE_1.0.0-SR1_Lin64/Timer/Timer.c **** void I2C_Timer_act();
 109:/home/student/avr_src/SimulIDE_1.0.0-SR1_Lin64/Timer/Timer.c **** void I2C_Timer_act_ms();
 110:/home/student/avr_src/SimulIDE_1.0.0-SR1_Lin64/Timer/Timer.c **** void I2C_Timer_test();
 111:/home/student/avr_src/SimulIDE_1.0.0-SR1_Lin64/Timer/Timer.c **** void Value_init();
 112:/home/student/avr_src/SimulIDE_1.0.0-SR1_Lin64/Timer/Timer.c **** void TIME_SETTING(unsigned char m, unsigned char s);
 113:/home/student/avr_src/SimulIDE_1.0.0-SR1_Lin64/Timer/Timer.c **** uint16_t num2lcdbyte(unsigned char num);
 114:/home/student/avr_src/SimulIDE_1.0.0-SR1_Lin64/Timer/Timer.c **** //====================================================
 115:/home/student/avr_src/SimulIDE_1.0.0-SR1_Lin64/Timer/Timer.c **** void q_push(unsigned char data);
 116:/home/student/avr_src/SimulIDE_1.0.0-SR1_Lin64/Timer/Timer.c **** unsigned char q_pop();
 117:/home/student/avr_src/SimulIDE_1.0.0-SR1_Lin64/Timer/Timer.c **** bool q_isFull();
 118:/home/student/avr_src/SimulIDE_1.0.0-SR1_Lin64/Timer/Timer.c **** bool q_isEmpty();
 119:/home/student/avr_src/SimulIDE_1.0.0-SR1_Lin64/Timer/Timer.c **** //====================================================
 120:/home/student/avr_src/SimulIDE_1.0.0-SR1_Lin64/Timer/Timer.c **** int main(void){
 121:/home/student/avr_src/SimulIDE_1.0.0-SR1_Lin64/Timer/Timer.c **** 	
 122:/home/student/avr_src/SimulIDE_1.0.0-SR1_Lin64/Timer/Timer.c **** 	sei(); //must be set first position
 123:/home/student/avr_src/SimulIDE_1.0.0-SR1_Lin64/Timer/Timer.c **** 	Value_init();
 124:/home/student/avr_src/SimulIDE_1.0.0-SR1_Lin64/Timer/Timer.c ****     Port_init();
 125:/home/student/avr_src/SimulIDE_1.0.0-SR1_Lin64/Timer/Timer.c **** 	I2C_LCD_init(0x27);
 126:/home/student/avr_src/SimulIDE_1.0.0-SR1_Lin64/Timer/Timer.c **** 	I2C_LCD_Reset();
 127:/home/student/avr_src/SimulIDE_1.0.0-SR1_Lin64/Timer/Timer.c **** 	I2C_Timer_Default();
 128:/home/student/avr_src/SimulIDE_1.0.0-SR1_Lin64/Timer/Timer.c ****     USART_init();
 129:/home/student/avr_src/SimulIDE_1.0.0-SR1_Lin64/Timer/Timer.c **** 	Timer1_init();
 130:/home/student/avr_src/SimulIDE_1.0.0-SR1_Lin64/Timer/Timer.c **** 	//TIME_SETTING(1,2);
 131:/home/student/avr_src/SimulIDE_1.0.0-SR1_Lin64/Timer/Timer.c **** 	while(1){
 132:/home/student/avr_src/SimulIDE_1.0.0-SR1_Lin64/Timer/Timer.c **** 		PORTC ^= 0x01;
 133:/home/student/avr_src/SimulIDE_1.0.0-SR1_Lin64/Timer/Timer.c **** 		if(end_flag) {
 134:/home/student/avr_src/SimulIDE_1.0.0-SR1_Lin64/Timer/Timer.c **** 			end_flag = 0;
 135:/home/student/avr_src/SimulIDE_1.0.0-SR1_Lin64/Timer/Timer.c **** 			timer_start_flag = 0;
 136:/home/student/avr_src/SimulIDE_1.0.0-SR1_Lin64/Timer/Timer.c **** 			//TIME_SETTING(1,2);
 137:/home/student/avr_src/SimulIDE_1.0.0-SR1_Lin64/Timer/Timer.c **** 			I2C_Timer_Default();
 138:/home/student/avr_src/SimulIDE_1.0.0-SR1_Lin64/Timer/Timer.c **** 			job = 0;
 139:/home/student/avr_src/SimulIDE_1.0.0-SR1_Lin64/Timer/Timer.c **** 			Value_init();
 140:/home/student/avr_src/SimulIDE_1.0.0-SR1_Lin64/Timer/Timer.c **** 		}
 141:/home/student/avr_src/SimulIDE_1.0.0-SR1_Lin64/Timer/Timer.c **** 		switch (job) //can append command and set timer here
 142:/home/student/avr_src/SimulIDE_1.0.0-SR1_Lin64/Timer/Timer.c **** 		{
 143:/home/student/avr_src/SimulIDE_1.0.0-SR1_Lin64/Timer/Timer.c **** 		case 0:
 144:/home/student/avr_src/SimulIDE_1.0.0-SR1_Lin64/Timer/Timer.c **** 			if(timer_start_flag) {
 145:/home/student/avr_src/SimulIDE_1.0.0-SR1_Lin64/Timer/Timer.c **** 				time_1s = 100;
 146:/home/student/avr_src/SimulIDE_1.0.0-SR1_Lin64/Timer/Timer.c **** 				job++;
 147:/home/student/avr_src/SimulIDE_1.0.0-SR1_Lin64/Timer/Timer.c **** 			}
 148:/home/student/avr_src/SimulIDE_1.0.0-SR1_Lin64/Timer/Timer.c **** 			break;
 149:/home/student/avr_src/SimulIDE_1.0.0-SR1_Lin64/Timer/Timer.c **** 		case 1:
 150:/home/student/avr_src/SimulIDE_1.0.0-SR1_Lin64/Timer/Timer.c **** 			if(time_1s) break;
 151:/home/student/avr_src/SimulIDE_1.0.0-SR1_Lin64/Timer/Timer.c **** 			else job++;
 152:/home/student/avr_src/SimulIDE_1.0.0-SR1_Lin64/Timer/Timer.c **** 		case 2:
 153:/home/student/avr_src/SimulIDE_1.0.0-SR1_Lin64/Timer/Timer.c **** 			I2C_Timer_act();
 154:/home/student/avr_src/SimulIDE_1.0.0-SR1_Lin64/Timer/Timer.c **** 			job++;
 155:/home/student/avr_src/SimulIDE_1.0.0-SR1_Lin64/Timer/Timer.c **** 		case 3:
 156:/home/student/avr_src/SimulIDE_1.0.0-SR1_Lin64/Timer/Timer.c **** 			if(end_flag) job++;
 157:/home/student/avr_src/SimulIDE_1.0.0-SR1_Lin64/Timer/Timer.c **** 			else job = 0;
 158:/home/student/avr_src/SimulIDE_1.0.0-SR1_Lin64/Timer/Timer.c **** 		default:
 159:/home/student/avr_src/SimulIDE_1.0.0-SR1_Lin64/Timer/Timer.c **** 			break;
 160:/home/student/avr_src/SimulIDE_1.0.0-SR1_Lin64/Timer/Timer.c **** 		}
 161:/home/student/avr_src/SimulIDE_1.0.0-SR1_Lin64/Timer/Timer.c **** 	}
 162:/home/student/avr_src/SimulIDE_1.0.0-SR1_Lin64/Timer/Timer.c **** }
 163:/home/student/avr_src/SimulIDE_1.0.0-SR1_Lin64/Timer/Timer.c **** //===================================================
 164:/home/student/avr_src/SimulIDE_1.0.0-SR1_Lin64/Timer/Timer.c **** void TIME_SETTING(unsigned char m, unsigned char s){
 165:/home/student/avr_src/SimulIDE_1.0.0-SR1_Lin64/Timer/Timer.c **** 
 166:/home/student/avr_src/SimulIDE_1.0.0-SR1_Lin64/Timer/Timer.c **** 	unsigned char min_tmp[2];
 167:/home/student/avr_src/SimulIDE_1.0.0-SR1_Lin64/Timer/Timer.c **** 	unsigned char sec_tmp[2];
 168:/home/student/avr_src/SimulIDE_1.0.0-SR1_Lin64/Timer/Timer.c **** 
 169:/home/student/avr_src/SimulIDE_1.0.0-SR1_Lin64/Timer/Timer.c **** 	//global variable set
 170:/home/student/avr_src/SimulIDE_1.0.0-SR1_Lin64/Timer/Timer.c **** 	min = m;
 171:/home/student/avr_src/SimulIDE_1.0.0-SR1_Lin64/Timer/Timer.c **** 	sec = s;
 172:/home/student/avr_src/SimulIDE_1.0.0-SR1_Lin64/Timer/Timer.c **** 
 173:/home/student/avr_src/SimulIDE_1.0.0-SR1_Lin64/Timer/Timer.c **** 	//display array set
 174:/home/student/avr_src/SimulIDE_1.0.0-SR1_Lin64/Timer/Timer.c **** 	if(min > 9){
 175:/home/student/avr_src/SimulIDE_1.0.0-SR1_Lin64/Timer/Timer.c **** 		min_tmp[0] = min / 10;
 176:/home/student/avr_src/SimulIDE_1.0.0-SR1_Lin64/Timer/Timer.c **** 		min_tmp[1] = min % 10;
 177:/home/student/avr_src/SimulIDE_1.0.0-SR1_Lin64/Timer/Timer.c **** 	}
 178:/home/student/avr_src/SimulIDE_1.0.0-SR1_Lin64/Timer/Timer.c **** 	else{
 179:/home/student/avr_src/SimulIDE_1.0.0-SR1_Lin64/Timer/Timer.c **** 		min_tmp[0] = 0;
 180:/home/student/avr_src/SimulIDE_1.0.0-SR1_Lin64/Timer/Timer.c **** 		min_tmp[1] = min % 10;
 181:/home/student/avr_src/SimulIDE_1.0.0-SR1_Lin64/Timer/Timer.c **** 	}
 182:/home/student/avr_src/SimulIDE_1.0.0-SR1_Lin64/Timer/Timer.c **** 
 183:/home/student/avr_src/SimulIDE_1.0.0-SR1_Lin64/Timer/Timer.c **** 	if(sec > 9){
 184:/home/student/avr_src/SimulIDE_1.0.0-SR1_Lin64/Timer/Timer.c **** 		sec_tmp[0] = sec / 10;
 185:/home/student/avr_src/SimulIDE_1.0.0-SR1_Lin64/Timer/Timer.c **** 		sec_tmp[1] = sec % 10;
 186:/home/student/avr_src/SimulIDE_1.0.0-SR1_Lin64/Timer/Timer.c **** 	}
 187:/home/student/avr_src/SimulIDE_1.0.0-SR1_Lin64/Timer/Timer.c **** 	else{
 188:/home/student/avr_src/SimulIDE_1.0.0-SR1_Lin64/Timer/Timer.c **** 		sec_tmp[0] = 0;
 189:/home/student/avr_src/SimulIDE_1.0.0-SR1_Lin64/Timer/Timer.c **** 		sec_tmp[1] = sec % 10;
 190:/home/student/avr_src/SimulIDE_1.0.0-SR1_Lin64/Timer/Timer.c **** 	}
 191:/home/student/avr_src/SimulIDE_1.0.0-SR1_Lin64/Timer/Timer.c **** 
 192:/home/student/avr_src/SimulIDE_1.0.0-SR1_Lin64/Timer/Timer.c **** 	I2C_LCD_Reset();
 193:/home/student/avr_src/SimulIDE_1.0.0-SR1_Lin64/Timer/Timer.c ****     LCD_CharWrite(0x2101);
 194:/home/student/avr_src/SimulIDE_1.0.0-SR1_Lin64/Timer/Timer.c ****     LCD_CharWrite(0x2101);
 195:/home/student/avr_src/SimulIDE_1.0.0-SR1_Lin64/Timer/Timer.c ****     LCD_CharWrite(0x2101);
 196:/home/student/avr_src/SimulIDE_1.0.0-SR1_Lin64/Timer/Timer.c ****     LCD_CharWrite(0x2101);
 197:/home/student/avr_src/SimulIDE_1.0.0-SR1_Lin64/Timer/Timer.c ****     LCD_CharWrite(num2lcdbyte(min_tmp[0]));
 198:/home/student/avr_src/SimulIDE_1.0.0-SR1_Lin64/Timer/Timer.c ****     LCD_CharWrite(num2lcdbyte(min_tmp[1]));
 199:/home/student/avr_src/SimulIDE_1.0.0-SR1_Lin64/Timer/Timer.c **** 	LCD_CharWrite(0x31A1);
 200:/home/student/avr_src/SimulIDE_1.0.0-SR1_Lin64/Timer/Timer.c ****     LCD_CharWrite(num2lcdbyte(sec_tmp[0]));
 201:/home/student/avr_src/SimulIDE_1.0.0-SR1_Lin64/Timer/Timer.c ****     LCD_CharWrite(num2lcdbyte(sec_tmp[1]));
 202:/home/student/avr_src/SimulIDE_1.0.0-SR1_Lin64/Timer/Timer.c ****     LCD_CharWrite(0x31A1);
 203:/home/student/avr_src/SimulIDE_1.0.0-SR1_Lin64/Timer/Timer.c ****     LCD_CharWrite(num2lcdbyte(0));
 204:/home/student/avr_src/SimulIDE_1.0.0-SR1_Lin64/Timer/Timer.c ****     LCD_CharWrite(num2lcdbyte(0));
 205:/home/student/avr_src/SimulIDE_1.0.0-SR1_Lin64/Timer/Timer.c **** 	LCD_CharWrite(0x00C0);
 206:/home/student/avr_src/SimulIDE_1.0.0-SR1_Lin64/Timer/Timer.c **** 	I2C_LCD_MoveLeft(4);
 207:/home/student/avr_src/SimulIDE_1.0.0-SR1_Lin64/Timer/Timer.c **** 	cp.x = 9;
 208:/home/student/avr_src/SimulIDE_1.0.0-SR1_Lin64/Timer/Timer.c **** }
 209:/home/student/avr_src/SimulIDE_1.0.0-SR1_Lin64/Timer/Timer.c **** //===================================================
 210:/home/student/avr_src/SimulIDE_1.0.0-SR1_Lin64/Timer/Timer.c **** void Timer1_init(){
 114               		.stabn	68,0,210,.LM0-.LFBB1
 115               	.LM0:
 116               	.LFBB1:
 117               	/* prologue: function */
 118               	/* frame size = 0 */
 119               	/* stack size = 0 */
 120               	.L__stack_usage = 0
 211:/home/student/avr_src/SimulIDE_1.0.0-SR1_Lin64/Timer/Timer.c **** 
 212:/home/student/avr_src/SimulIDE_1.0.0-SR1_Lin64/Timer/Timer.c ****     TCCR1B =  (1 << WGM12) | (0 << CS12) | (1 << CS11) | (1 << CS10);
 121               		.stabn	68,0,212,.LM1-.LFBB1
 122               	.LM1:
 123 0000 8BE0      		ldi r24,lo8(11)
 124 0002 8093 8100 		sts 129,r24
 213:/home/student/avr_src/SimulIDE_1.0.0-SR1_Lin64/Timer/Timer.c **** 	TCNT1 = 0;
 125               		.stabn	68,0,213,.LM2-.LFBB1
 126               	.LM2:
 127 0006 1092 8500 		sts 132+1,__zero_reg__
 128 000a 1092 8400 		sts 132,__zero_reg__
 214:/home/student/avr_src/SimulIDE_1.0.0-SR1_Lin64/Timer/Timer.c ****     OCR1A = 0x09c4; 
 129               		.stabn	68,0,214,.LM3-.LFBB1
 130               	.LM3:
 131 000e 84EC      		ldi r24,lo8(-60)
 132 0010 99E0      		ldi r25,lo8(9)
 133 0012 9093 8900 		sts 136+1,r25
 134 0016 8093 8800 		sts 136,r24
 215:/home/student/avr_src/SimulIDE_1.0.0-SR1_Lin64/Timer/Timer.c ****     TIMSK1 |= (1 << TOIE1) | (1 << OCIE1A);
 135               		.stabn	68,0,215,.LM4-.LFBB1
 136               	.LM4:
 137 001a EFE6      		ldi r30,lo8(111)
 138 001c F0E0      		ldi r31,0
 139 001e 8081      		ld r24,Z
 140 0020 8360      		ori r24,lo8(3)
 141 0022 8083      		st Z,r24
 142 0024 0895      		ret
 143               		.size	Timer1_init, .-Timer1_init
 144               	.Lscope1:
 145               		.stabs	"",36,0,0,.Lscope1-.LFBB1
 146               		.stabd	78,0,0
 147               		.stabs	"Port_init:F(0,49)",36,0,218,Port_init
 148               	.global	Port_init
 149               		.type	Port_init, @function
 150               	Port_init:
 151               		.stabd	46,0,0
 216:/home/student/avr_src/SimulIDE_1.0.0-SR1_Lin64/Timer/Timer.c **** }
 217:/home/student/avr_src/SimulIDE_1.0.0-SR1_Lin64/Timer/Timer.c **** 
 218:/home/student/avr_src/SimulIDE_1.0.0-SR1_Lin64/Timer/Timer.c **** void Port_init(){
 152               		.stabn	68,0,218,.LM5-.LFBB2
 153               	.LM5:
 154               	.LFBB2:
 155               	/* prologue: function */
 156               	/* frame size = 0 */
 157               	/* stack size = 0 */
 158               	.L__stack_usage = 0
 219:/home/student/avr_src/SimulIDE_1.0.0-SR1_Lin64/Timer/Timer.c ****     //set B0~D4 as input,  D5, D6, D7 pins are set high to find key vals 
 220:/home/student/avr_src/SimulIDE_1.0.0-SR1_Lin64/Timer/Timer.c ****     DDRD = 0b01110000;
 159               		.stabn	68,0,220,.LM6-.LFBB2
 160               	.LM6:
 161 0026 80E7      		ldi r24,lo8(112)
 162 0028 8AB9      		out 0xa,r24
 221:/home/student/avr_src/SimulIDE_1.0.0-SR1_Lin64/Timer/Timer.c ****     PORTD = 0b00000000;
 163               		.stabn	68,0,221,.LM7-.LFBB2
 164               	.LM7:
 165 002a 1BB8      		out 0xb,__zero_reg__
 222:/home/student/avr_src/SimulIDE_1.0.0-SR1_Lin64/Timer/Timer.c ****     DDRB = 0b00110000;
 166               		.stabn	68,0,222,.LM8-.LFBB2
 167               	.LM8:
 168 002c 80E3      		ldi r24,lo8(48)
 169 002e 84B9      		out 0x4,r24
 170 0030 0895      		ret
 171               		.size	Port_init, .-Port_init
 172               	.Lscope2:
 173               		.stabs	"",36,0,0,.Lscope2-.LFBB2
 174               		.stabd	78,0,0
 175               		.stabs	"Value_init:F(0,49)",36,0,224,Value_init
 176               	.global	Value_init
 177               		.type	Value_init, @function
 178               	Value_init:
 179               		.stabd	46,0,0
 223:/home/student/avr_src/SimulIDE_1.0.0-SR1_Lin64/Timer/Timer.c **** }
 224:/home/student/avr_src/SimulIDE_1.0.0-SR1_Lin64/Timer/Timer.c **** void Value_init(){
 180               		.stabn	68,0,224,.LM9-.LFBB3
 181               	.LM9:
 182               	.LFBB3:
 183               	/* prologue: function */
 184               	/* frame size = 0 */
 185               	/* stack size = 0 */
 186               	.L__stack_usage = 0
 225:/home/student/avr_src/SimulIDE_1.0.0-SR1_Lin64/Timer/Timer.c **** 	cp.x =9;
 187               		.stabn	68,0,225,.LM10-.LFBB3
 188               	.LM10:
 189 0032 89E0      		ldi r24,lo8(9)
 190 0034 90E0      		ldi r25,0
 191 0036 9093 0000 		sts cp+1,r25
 192 003a 8093 0000 		sts cp,r24
 226:/home/student/avr_src/SimulIDE_1.0.0-SR1_Lin64/Timer/Timer.c **** 	sel.n1 = 0;
 193               		.stabn	68,0,226,.LM11-.LFBB3
 194               	.LM11:
 195 003e E0E0      		ldi r30,lo8(sel)
 196 0040 F0E0      		ldi r31,hi8(sel)
 197 0042 1182      		std Z+1,__zero_reg__
 198 0044 1082      		st Z,__zero_reg__
 227:/home/student/avr_src/SimulIDE_1.0.0-SR1_Lin64/Timer/Timer.c **** 	sel.n2 = 0;
 199               		.stabn	68,0,227,.LM12-.LFBB3
 200               	.LM12:
 201 0046 1382      		std Z+3,__zero_reg__
 202 0048 1282      		std Z+2,__zero_reg__
 228:/home/student/avr_src/SimulIDE_1.0.0-SR1_Lin64/Timer/Timer.c **** 	sel.n3 = 0;
 203               		.stabn	68,0,228,.LM13-.LFBB3
 204               	.LM13:
 205 004a 1582      		std Z+5,__zero_reg__
 206 004c 1482      		std Z+4,__zero_reg__
 229:/home/student/avr_src/SimulIDE_1.0.0-SR1_Lin64/Timer/Timer.c **** 	sel.n4 = 0;
 207               		.stabn	68,0,229,.LM14-.LFBB3
 208               	.LM14:
 209 004e 1782      		std Z+7,__zero_reg__
 210 0050 1682      		std Z+6,__zero_reg__
 230:/home/student/avr_src/SimulIDE_1.0.0-SR1_Lin64/Timer/Timer.c **** 	sel.SecNum = 0;
 211               		.stabn	68,0,230,.LM15-.LFBB3
 212               	.LM15:
 213 0052 1186      		std Z+9,__zero_reg__
 214 0054 1086      		std Z+8,__zero_reg__
 231:/home/student/avr_src/SimulIDE_1.0.0-SR1_Lin64/Timer/Timer.c **** 	sel.MinNum = 0;
 215               		.stabn	68,0,231,.LM16-.LFBB3
 216               	.LM16:
 217 0056 1386      		std Z+11,__zero_reg__
 218 0058 1286      		std Z+10,__zero_reg__
 219 005a 0895      		ret
 220               		.size	Value_init, .-Value_init
 221               	.Lscope3:
 222               		.stabs	"",36,0,0,.Lscope3-.LFBB3
 223               		.stabd	78,0,0
 224               		.stabs	"USART_init:F(0,49)",36,0,644,USART_init
 225               	.global	USART_init
 226               		.type	USART_init, @function
 227               	USART_init:
 228               		.stabd	46,0,0
 232:/home/student/avr_src/SimulIDE_1.0.0-SR1_Lin64/Timer/Timer.c **** }
 233:/home/student/avr_src/SimulIDE_1.0.0-SR1_Lin64/Timer/Timer.c **** //====================================================
 234:/home/student/avr_src/SimulIDE_1.0.0-SR1_Lin64/Timer/Timer.c **** void I2C_LCD_Erase(){
 235:/home/student/avr_src/SimulIDE_1.0.0-SR1_Lin64/Timer/Timer.c **** 	LCD_CharWrite(0x0040);
 236:/home/student/avr_src/SimulIDE_1.0.0-SR1_Lin64/Timer/Timer.c **** 	LCD_CharWrite(0xA101);
 237:/home/student/avr_src/SimulIDE_1.0.0-SR1_Lin64/Timer/Timer.c ****     LCD_CharWrite(0x0040);
 238:/home/student/avr_src/SimulIDE_1.0.0-SR1_Lin64/Timer/Timer.c ****     LCD_CharWrite(0xA101);
 239:/home/student/avr_src/SimulIDE_1.0.0-SR1_Lin64/Timer/Timer.c ****     LCD_CharWrite(0x0060);
 240:/home/student/avr_src/SimulIDE_1.0.0-SR1_Lin64/Timer/Timer.c **** }
 241:/home/student/avr_src/SimulIDE_1.0.0-SR1_Lin64/Timer/Timer.c **** 
 242:/home/student/avr_src/SimulIDE_1.0.0-SR1_Lin64/Timer/Timer.c **** void I2C_LCD_Reset(){
 243:/home/student/avr_src/SimulIDE_1.0.0-SR1_Lin64/Timer/Timer.c **** 	cli();
 244:/home/student/avr_src/SimulIDE_1.0.0-SR1_Lin64/Timer/Timer.c ****     LCD_CharWrite(0x0010);
 245:/home/student/avr_src/SimulIDE_1.0.0-SR1_Lin64/Timer/Timer.c **** 	_delay_us(38);
 246:/home/student/avr_src/SimulIDE_1.0.0-SR1_Lin64/Timer/Timer.c **** 	LCD_CharWrite(0x0010);
 247:/home/student/avr_src/SimulIDE_1.0.0-SR1_Lin64/Timer/Timer.c **** 	_delay_us(38);
 248:/home/student/avr_src/SimulIDE_1.0.0-SR1_Lin64/Timer/Timer.c **** 	LCD_CharWrite(0x0030);
 249:/home/student/avr_src/SimulIDE_1.0.0-SR1_Lin64/Timer/Timer.c **** 	_delay_us(38);
 250:/home/student/avr_src/SimulIDE_1.0.0-SR1_Lin64/Timer/Timer.c **** 
 251:/home/student/avr_src/SimulIDE_1.0.0-SR1_Lin64/Timer/Timer.c **** 	I2C_LCD_init(0x27);
 252:/home/student/avr_src/SimulIDE_1.0.0-SR1_Lin64/Timer/Timer.c **** 	_delay_us(38);
 253:/home/student/avr_src/SimulIDE_1.0.0-SR1_Lin64/Timer/Timer.c **** 
 254:/home/student/avr_src/SimulIDE_1.0.0-SR1_Lin64/Timer/Timer.c **** 	LCD_CharWrite(0x0010);
 255:/home/student/avr_src/SimulIDE_1.0.0-SR1_Lin64/Timer/Timer.c **** 	_delay_us(38);
 256:/home/student/avr_src/SimulIDE_1.0.0-SR1_Lin64/Timer/Timer.c **** 	LCD_CharWrite(0x0030);
 257:/home/student/avr_src/SimulIDE_1.0.0-SR1_Lin64/Timer/Timer.c **** 
 258:/home/student/avr_src/SimulIDE_1.0.0-SR1_Lin64/Timer/Timer.c **** 	_delay_us(38);
 259:/home/student/avr_src/SimulIDE_1.0.0-SR1_Lin64/Timer/Timer.c **** 
 260:/home/student/avr_src/SimulIDE_1.0.0-SR1_Lin64/Timer/Timer.c **** 	I2C_LCD_init(0x27);
 261:/home/student/avr_src/SimulIDE_1.0.0-SR1_Lin64/Timer/Timer.c **** 	_delay_us(38);
 262:/home/student/avr_src/SimulIDE_1.0.0-SR1_Lin64/Timer/Timer.c **** 	I2C_LCD_init(0x27);
 263:/home/student/avr_src/SimulIDE_1.0.0-SR1_Lin64/Timer/Timer.c **** 	LCD_CharWrite(0x20C0);
 264:/home/student/avr_src/SimulIDE_1.0.0-SR1_Lin64/Timer/Timer.c **** 	LCD_CharWrite(0x0020);
 265:/home/student/avr_src/SimulIDE_1.0.0-SR1_Lin64/Timer/Timer.c **** 	I2C_LCD_init(0x27);
 266:/home/student/avr_src/SimulIDE_1.0.0-SR1_Lin64/Timer/Timer.c ****     
 267:/home/student/avr_src/SimulIDE_1.0.0-SR1_Lin64/Timer/Timer.c **** 	sei();
 268:/home/student/avr_src/SimulIDE_1.0.0-SR1_Lin64/Timer/Timer.c ****     LCD_CharWrite(0x00C0);
 269:/home/student/avr_src/SimulIDE_1.0.0-SR1_Lin64/Timer/Timer.c **** }
 270:/home/student/avr_src/SimulIDE_1.0.0-SR1_Lin64/Timer/Timer.c **** void I2C_LCD_init(unsigned char address){
 271:/home/student/avr_src/SimulIDE_1.0.0-SR1_Lin64/Timer/Timer.c **** 	cli();
 272:/home/student/avr_src/SimulIDE_1.0.0-SR1_Lin64/Timer/Timer.c **** 
 273:/home/student/avr_src/SimulIDE_1.0.0-SR1_Lin64/Timer/Timer.c **** 	_delay_ms(18);
 274:/home/student/avr_src/SimulIDE_1.0.0-SR1_Lin64/Timer/Timer.c **** 	AT24Cxx_i2c_start();
 275:/home/student/avr_src/SimulIDE_1.0.0-SR1_Lin64/Timer/Timer.c **** 	write_AT24Cxx_i2c_LCDAddressing(address  << 1); //write mode
 276:/home/student/avr_src/SimulIDE_1.0.0-SR1_Lin64/Timer/Timer.c **** 	LCD_Write(0x20);
 277:/home/student/avr_src/SimulIDE_1.0.0-SR1_Lin64/Timer/Timer.c **** 
 278:/home/student/avr_src/SimulIDE_1.0.0-SR1_Lin64/Timer/Timer.c **** 
 279:/home/student/avr_src/SimulIDE_1.0.0-SR1_Lin64/Timer/Timer.c **** 	_delay_ms(2);
 280:/home/student/avr_src/SimulIDE_1.0.0-SR1_Lin64/Timer/Timer.c **** 	write_AT24Cxx_i2c_LCDAddressing(0x20);
 281:/home/student/avr_src/SimulIDE_1.0.0-SR1_Lin64/Timer/Timer.c **** 	_delay_ms(2);
 282:/home/student/avr_src/SimulIDE_1.0.0-SR1_Lin64/Timer/Timer.c **** 
 283:/home/student/avr_src/SimulIDE_1.0.0-SR1_Lin64/Timer/Timer.c **** 	write_AT24Cxx_i2c_LCDAddressing(0x30);
 284:/home/student/avr_src/SimulIDE_1.0.0-SR1_Lin64/Timer/Timer.c **** 	LCD_Write(0x00);
 285:/home/student/avr_src/SimulIDE_1.0.0-SR1_Lin64/Timer/Timer.c **** 	_delay_us(38);
 286:/home/student/avr_src/SimulIDE_1.0.0-SR1_Lin64/Timer/Timer.c **** 
 287:/home/student/avr_src/SimulIDE_1.0.0-SR1_Lin64/Timer/Timer.c **** 	LCD_Write(0x00);
 288:/home/student/avr_src/SimulIDE_1.0.0-SR1_Lin64/Timer/Timer.c **** 	write_AT24Cxx_i2c_LCDAddressing(0x00);
 289:/home/student/avr_src/SimulIDE_1.0.0-SR1_Lin64/Timer/Timer.c ****     _delay_us(38);
 290:/home/student/avr_src/SimulIDE_1.0.0-SR1_Lin64/Timer/Timer.c **** 
 291:/home/student/avr_src/SimulIDE_1.0.0-SR1_Lin64/Timer/Timer.c **** 	LCD_Write(0xE0);
 292:/home/student/avr_src/SimulIDE_1.0.0-SR1_Lin64/Timer/Timer.c **** 	write_AT24Cxx_i2c_LCDAddressing(0xE0);
 293:/home/student/avr_src/SimulIDE_1.0.0-SR1_Lin64/Timer/Timer.c **** 	_delay_us(38);
 294:/home/student/avr_src/SimulIDE_1.0.0-SR1_Lin64/Timer/Timer.c **** 
 295:/home/student/avr_src/SimulIDE_1.0.0-SR1_Lin64/Timer/Timer.c **** 	LCD_Write(0x00);
 296:/home/student/avr_src/SimulIDE_1.0.0-SR1_Lin64/Timer/Timer.c **** 	write_AT24Cxx_i2c_LCDAddressing(0x00);
 297:/home/student/avr_src/SimulIDE_1.0.0-SR1_Lin64/Timer/Timer.c **** 	_delay_us(38);
 298:/home/student/avr_src/SimulIDE_1.0.0-SR1_Lin64/Timer/Timer.c **** 
 299:/home/student/avr_src/SimulIDE_1.0.0-SR1_Lin64/Timer/Timer.c **** 	LCD_Write(0x60);
 300:/home/student/avr_src/SimulIDE_1.0.0-SR1_Lin64/Timer/Timer.c **** 	write_AT24Cxx_i2c_LCDAddressing(0x60);
 301:/home/student/avr_src/SimulIDE_1.0.0-SR1_Lin64/Timer/Timer.c **** 	_delay_us(38);
 302:/home/student/avr_src/SimulIDE_1.0.0-SR1_Lin64/Timer/Timer.c **** 
 303:/home/student/avr_src/SimulIDE_1.0.0-SR1_Lin64/Timer/Timer.c **** 	AT24Cxx_i2c_stop();
 304:/home/student/avr_src/SimulIDE_1.0.0-SR1_Lin64/Timer/Timer.c ****     _delay_us(40);
 305:/home/student/avr_src/SimulIDE_1.0.0-SR1_Lin64/Timer/Timer.c **** 	sei();
 306:/home/student/avr_src/SimulIDE_1.0.0-SR1_Lin64/Timer/Timer.c **** 	
 307:/home/student/avr_src/SimulIDE_1.0.0-SR1_Lin64/Timer/Timer.c **** }
 308:/home/student/avr_src/SimulIDE_1.0.0-SR1_Lin64/Timer/Timer.c **** //====================================================
 309:/home/student/avr_src/SimulIDE_1.0.0-SR1_Lin64/Timer/Timer.c **** void I2C_Timer_Default(){
 310:/home/student/avr_src/SimulIDE_1.0.0-SR1_Lin64/Timer/Timer.c **** 	I2C_LCD_Reset();
 311:/home/student/avr_src/SimulIDE_1.0.0-SR1_Lin64/Timer/Timer.c ****     LCD_CharWrite(0x2101);
 312:/home/student/avr_src/SimulIDE_1.0.0-SR1_Lin64/Timer/Timer.c ****     LCD_CharWrite(0x2101);
 313:/home/student/avr_src/SimulIDE_1.0.0-SR1_Lin64/Timer/Timer.c ****     LCD_CharWrite(0x2101);
 314:/home/student/avr_src/SimulIDE_1.0.0-SR1_Lin64/Timer/Timer.c ****     LCD_CharWrite(0x2101);
 315:/home/student/avr_src/SimulIDE_1.0.0-SR1_Lin64/Timer/Timer.c ****     LCD_CharWrite(num2lcdbyte(0));
 316:/home/student/avr_src/SimulIDE_1.0.0-SR1_Lin64/Timer/Timer.c ****     LCD_CharWrite(num2lcdbyte(0));
 317:/home/student/avr_src/SimulIDE_1.0.0-SR1_Lin64/Timer/Timer.c **** 	LCD_CharWrite(0x31A1);
 318:/home/student/avr_src/SimulIDE_1.0.0-SR1_Lin64/Timer/Timer.c ****     LCD_CharWrite(num2lcdbyte(0));
 319:/home/student/avr_src/SimulIDE_1.0.0-SR1_Lin64/Timer/Timer.c ****     LCD_CharWrite(num2lcdbyte(0));
 320:/home/student/avr_src/SimulIDE_1.0.0-SR1_Lin64/Timer/Timer.c ****     LCD_CharWrite(0x31A1);
 321:/home/student/avr_src/SimulIDE_1.0.0-SR1_Lin64/Timer/Timer.c ****     LCD_CharWrite(num2lcdbyte(0));
 322:/home/student/avr_src/SimulIDE_1.0.0-SR1_Lin64/Timer/Timer.c ****     LCD_CharWrite(num2lcdbyte(0));
 323:/home/student/avr_src/SimulIDE_1.0.0-SR1_Lin64/Timer/Timer.c **** 	LCD_CharWrite(0x00C0);
 324:/home/student/avr_src/SimulIDE_1.0.0-SR1_Lin64/Timer/Timer.c **** 	I2C_LCD_MoveLeft(4);
 325:/home/student/avr_src/SimulIDE_1.0.0-SR1_Lin64/Timer/Timer.c **** 	cp.x = 9;
 326:/home/student/avr_src/SimulIDE_1.0.0-SR1_Lin64/Timer/Timer.c **** }
 327:/home/student/avr_src/SimulIDE_1.0.0-SR1_Lin64/Timer/Timer.c **** //====================================================
 328:/home/student/avr_src/SimulIDE_1.0.0-SR1_Lin64/Timer/Timer.c **** void I2C_Timer_act(){
 329:/home/student/avr_src/SimulIDE_1.0.0-SR1_Lin64/Timer/Timer.c **** 		
 330:/home/student/avr_src/SimulIDE_1.0.0-SR1_Lin64/Timer/Timer.c **** 		if(min && !sec){
 331:/home/student/avr_src/SimulIDE_1.0.0-SR1_Lin64/Timer/Timer.c **** 			min--;
 332:/home/student/avr_src/SimulIDE_1.0.0-SR1_Lin64/Timer/Timer.c **** 			sec = 60;
 333:/home/student/avr_src/SimulIDE_1.0.0-SR1_Lin64/Timer/Timer.c **** 		}
 334:/home/student/avr_src/SimulIDE_1.0.0-SR1_Lin64/Timer/Timer.c **** 		/*------- Minutes Part start -------*/
 335:/home/student/avr_src/SimulIDE_1.0.0-SR1_Lin64/Timer/Timer.c **** 		if(min < 10){
 336:/home/student/avr_src/SimulIDE_1.0.0-SR1_Lin64/Timer/Timer.c **** 			I2C_LCD_MoveLeft(3);
 337:/home/student/avr_src/SimulIDE_1.0.0-SR1_Lin64/Timer/Timer.c **** 			LCD_CharWrite(num2lcdbyte(min));
 338:/home/student/avr_src/SimulIDE_1.0.0-SR1_Lin64/Timer/Timer.c **** 			I2C_LCD_MoveRight(2);
 339:/home/student/avr_src/SimulIDE_1.0.0-SR1_Lin64/Timer/Timer.c **** 			LCD_CharWrite(0x00C0);
 340:/home/student/avr_src/SimulIDE_1.0.0-SR1_Lin64/Timer/Timer.c **** 			LCD_CharWrite(0x00C0);
 341:/home/student/avr_src/SimulIDE_1.0.0-SR1_Lin64/Timer/Timer.c **** 		}
 342:/home/student/avr_src/SimulIDE_1.0.0-SR1_Lin64/Timer/Timer.c **** 		 if(min > 10){
 343:/home/student/avr_src/SimulIDE_1.0.0-SR1_Lin64/Timer/Timer.c **** 			I2C_LCD_MoveLeft(4);
 344:/home/student/avr_src/SimulIDE_1.0.0-SR1_Lin64/Timer/Timer.c **** 			LCD_CharWrite(num2lcdbyte(min/10));
 345:/home/student/avr_src/SimulIDE_1.0.0-SR1_Lin64/Timer/Timer.c **** 			LCD_CharWrite(num2lcdbyte(min%10));
 346:/home/student/avr_src/SimulIDE_1.0.0-SR1_Lin64/Timer/Timer.c **** 			I2C_LCD_MoveRight(2);
 347:/home/student/avr_src/SimulIDE_1.0.0-SR1_Lin64/Timer/Timer.c **** 			LCD_CharWrite(0x00C0);
 348:/home/student/avr_src/SimulIDE_1.0.0-SR1_Lin64/Timer/Timer.c **** 			LCD_CharWrite(0x00C0);
 349:/home/student/avr_src/SimulIDE_1.0.0-SR1_Lin64/Timer/Timer.c **** 		}
 350:/home/student/avr_src/SimulIDE_1.0.0-SR1_Lin64/Timer/Timer.c **** 		else if(min == 10){
 351:/home/student/avr_src/SimulIDE_1.0.0-SR1_Lin64/Timer/Timer.c **** 			I2C_LCD_MoveLeft(4);
 352:/home/student/avr_src/SimulIDE_1.0.0-SR1_Lin64/Timer/Timer.c **** 			LCD_CharWrite(num2lcdbyte(0));
 353:/home/student/avr_src/SimulIDE_1.0.0-SR1_Lin64/Timer/Timer.c **** 			LCD_CharWrite(num2lcdbyte(min%10));
 354:/home/student/avr_src/SimulIDE_1.0.0-SR1_Lin64/Timer/Timer.c **** 			I2C_LCD_MoveRight(2);
 355:/home/student/avr_src/SimulIDE_1.0.0-SR1_Lin64/Timer/Timer.c **** 			LCD_CharWrite(0x00C0);
 356:/home/student/avr_src/SimulIDE_1.0.0-SR1_Lin64/Timer/Timer.c **** 			LCD_CharWrite(0x00C0);
 357:/home/student/avr_src/SimulIDE_1.0.0-SR1_Lin64/Timer/Timer.c **** 		}
 358:/home/student/avr_src/SimulIDE_1.0.0-SR1_Lin64/Timer/Timer.c **** 		/*-------- Minutes part end --------*/
 359:/home/student/avr_src/SimulIDE_1.0.0-SR1_Lin64/Timer/Timer.c **** 
 360:/home/student/avr_src/SimulIDE_1.0.0-SR1_Lin64/Timer/Timer.c **** 		/*-------- Second part start -------*/
 361:/home/student/avr_src/SimulIDE_1.0.0-SR1_Lin64/Timer/Timer.c **** 		if(sec == 1 && !end_flag){
 362:/home/student/avr_src/SimulIDE_1.0.0-SR1_Lin64/Timer/Timer.c **** 			if(min){
 363:/home/student/avr_src/SimulIDE_1.0.0-SR1_Lin64/Timer/Timer.c **** 				LCD_CharWrite(num2lcdbyte(0));
 364:/home/student/avr_src/SimulIDE_1.0.0-SR1_Lin64/Timer/Timer.c **** 				I2C_LCD_MoveLeft(1);
 365:/home/student/avr_src/SimulIDE_1.0.0-SR1_Lin64/Timer/Timer.c **** 				time_10ms = 99;
 366:/home/student/avr_src/SimulIDE_1.0.0-SR1_Lin64/Timer/Timer.c **** 				sec = 60;
 367:/home/student/avr_src/SimulIDE_1.0.0-SR1_Lin64/Timer/Timer.c **** 				min--;
 368:/home/student/avr_src/SimulIDE_1.0.0-SR1_Lin64/Timer/Timer.c **** 			}
 369:/home/student/avr_src/SimulIDE_1.0.0-SR1_Lin64/Timer/Timer.c **** 			else {
 370:/home/student/avr_src/SimulIDE_1.0.0-SR1_Lin64/Timer/Timer.c **** 				end_flag = 1;
 371:/home/student/avr_src/SimulIDE_1.0.0-SR1_Lin64/Timer/Timer.c **** 			}
 372:/home/student/avr_src/SimulIDE_1.0.0-SR1_Lin64/Timer/Timer.c **** 		}
 373:/home/student/avr_src/SimulIDE_1.0.0-SR1_Lin64/Timer/Timer.c **** 		else if(sec == 60){
 374:/home/student/avr_src/SimulIDE_1.0.0-SR1_Lin64/Timer/Timer.c **** 			if (min == 0){
 375:/home/student/avr_src/SimulIDE_1.0.0-SR1_Lin64/Timer/Timer.c **** 				I2C_LCD_MoveLeft(3);
 376:/home/student/avr_src/SimulIDE_1.0.0-SR1_Lin64/Timer/Timer.c **** 				LCD_CharWrite(num2lcdbyte(0));
 377:/home/student/avr_src/SimulIDE_1.0.0-SR1_Lin64/Timer/Timer.c **** 				I2C_LCD_MoveRight(2);
 378:/home/student/avr_src/SimulIDE_1.0.0-SR1_Lin64/Timer/Timer.c **** 				LCD_CharWrite(0x00C0);
 379:/home/student/avr_src/SimulIDE_1.0.0-SR1_Lin64/Timer/Timer.c **** 				LCD_CharWrite(0x00C0);
 380:/home/student/avr_src/SimulIDE_1.0.0-SR1_Lin64/Timer/Timer.c **** 			}
 381:/home/student/avr_src/SimulIDE_1.0.0-SR1_Lin64/Timer/Timer.c **** 			else if(min){
 382:/home/student/avr_src/SimulIDE_1.0.0-SR1_Lin64/Timer/Timer.c **** 				I2C_LCD_MoveLeft(3);
 383:/home/student/avr_src/SimulIDE_1.0.0-SR1_Lin64/Timer/Timer.c **** 				LCD_CharWrite(num2lcdbyte(min));
 384:/home/student/avr_src/SimulIDE_1.0.0-SR1_Lin64/Timer/Timer.c **** 				I2C_LCD_MoveRight(2);
 385:/home/student/avr_src/SimulIDE_1.0.0-SR1_Lin64/Timer/Timer.c **** 				LCD_CharWrite(0x00C0);
 386:/home/student/avr_src/SimulIDE_1.0.0-SR1_Lin64/Timer/Timer.c **** 				LCD_CharWrite(0x00C0);
 387:/home/student/avr_src/SimulIDE_1.0.0-SR1_Lin64/Timer/Timer.c **** 			}
 388:/home/student/avr_src/SimulIDE_1.0.0-SR1_Lin64/Timer/Timer.c **** 			I2C_LCD_MoveLeft(1);
 389:/home/student/avr_src/SimulIDE_1.0.0-SR1_Lin64/Timer/Timer.c **** 			LCD_CharWrite(num2lcdbyte((5)));
 390:/home/student/avr_src/SimulIDE_1.0.0-SR1_Lin64/Timer/Timer.c **** 			LCD_CharWrite(num2lcdbyte((sec-1)%10));
 391:/home/student/avr_src/SimulIDE_1.0.0-SR1_Lin64/Timer/Timer.c **** 			I2C_LCD_MoveLeft(1);
 392:/home/student/avr_src/SimulIDE_1.0.0-SR1_Lin64/Timer/Timer.c **** 			LCD_CharWrite(0x00C0);
 393:/home/student/avr_src/SimulIDE_1.0.0-SR1_Lin64/Timer/Timer.c **** 			LCD_CharWrite(0x00C0);
 394:/home/student/avr_src/SimulIDE_1.0.0-SR1_Lin64/Timer/Timer.c **** 			time_10ms = 99;
 395:/home/student/avr_src/SimulIDE_1.0.0-SR1_Lin64/Timer/Timer.c **** 			--sec;
 396:/home/student/avr_src/SimulIDE_1.0.0-SR1_Lin64/Timer/Timer.c **** 		}
 397:/home/student/avr_src/SimulIDE_1.0.0-SR1_Lin64/Timer/Timer.c **** 		else if(sec != 10){
 398:/home/student/avr_src/SimulIDE_1.0.0-SR1_Lin64/Timer/Timer.c **** 			if(sec % 10 == 0){
 399:/home/student/avr_src/SimulIDE_1.0.0-SR1_Lin64/Timer/Timer.c **** 				I2C_LCD_MoveLeft(1);
 400:/home/student/avr_src/SimulIDE_1.0.0-SR1_Lin64/Timer/Timer.c **** 				LCD_CharWrite(num2lcdbyte((sec/10 -1)));
 401:/home/student/avr_src/SimulIDE_1.0.0-SR1_Lin64/Timer/Timer.c **** 			}
 402:/home/student/avr_src/SimulIDE_1.0.0-SR1_Lin64/Timer/Timer.c **** 			else {
 403:/home/student/avr_src/SimulIDE_1.0.0-SR1_Lin64/Timer/Timer.c **** 				I2C_LCD_MoveLeft(1);
 404:/home/student/avr_src/SimulIDE_1.0.0-SR1_Lin64/Timer/Timer.c **** 				LCD_CharWrite(num2lcdbyte((sec/10)));
 405:/home/student/avr_src/SimulIDE_1.0.0-SR1_Lin64/Timer/Timer.c **** 			}
 406:/home/student/avr_src/SimulIDE_1.0.0-SR1_Lin64/Timer/Timer.c **** 			LCD_CharWrite(num2lcdbyte((sec-1)%10));
 407:/home/student/avr_src/SimulIDE_1.0.0-SR1_Lin64/Timer/Timer.c **** 			I2C_LCD_MoveLeft(1);
 408:/home/student/avr_src/SimulIDE_1.0.0-SR1_Lin64/Timer/Timer.c **** 			LCD_CharWrite(0x00C0);
 409:/home/student/avr_src/SimulIDE_1.0.0-SR1_Lin64/Timer/Timer.c **** 			LCD_CharWrite(0x00C0);
 410:/home/student/avr_src/SimulIDE_1.0.0-SR1_Lin64/Timer/Timer.c **** 			time_10ms = 99;
 411:/home/student/avr_src/SimulIDE_1.0.0-SR1_Lin64/Timer/Timer.c **** 			--sec;
 412:/home/student/avr_src/SimulIDE_1.0.0-SR1_Lin64/Timer/Timer.c **** 		}
 413:/home/student/avr_src/SimulIDE_1.0.0-SR1_Lin64/Timer/Timer.c **** 		else if(sec == 10){
 414:/home/student/avr_src/SimulIDE_1.0.0-SR1_Lin64/Timer/Timer.c **** 			I2C_LCD_MoveLeft(1);
 415:/home/student/avr_src/SimulIDE_1.0.0-SR1_Lin64/Timer/Timer.c **** 			LCD_CharWrite(num2lcdbyte((0)));
 416:/home/student/avr_src/SimulIDE_1.0.0-SR1_Lin64/Timer/Timer.c **** 			LCD_CharWrite(num2lcdbyte((sec-1)%10));
 417:/home/student/avr_src/SimulIDE_1.0.0-SR1_Lin64/Timer/Timer.c **** 			I2C_LCD_MoveLeft(1);
 418:/home/student/avr_src/SimulIDE_1.0.0-SR1_Lin64/Timer/Timer.c **** 			LCD_CharWrite(0x00C0);
 419:/home/student/avr_src/SimulIDE_1.0.0-SR1_Lin64/Timer/Timer.c **** 			LCD_CharWrite(0x00C0);
 420:/home/student/avr_src/SimulIDE_1.0.0-SR1_Lin64/Timer/Timer.c **** 			time_10ms = 99;
 421:/home/student/avr_src/SimulIDE_1.0.0-SR1_Lin64/Timer/Timer.c **** 			--sec;
 422:/home/student/avr_src/SimulIDE_1.0.0-SR1_Lin64/Timer/Timer.c **** 		}
 423:/home/student/avr_src/SimulIDE_1.0.0-SR1_Lin64/Timer/Timer.c **** 
 424:/home/student/avr_src/SimulIDE_1.0.0-SR1_Lin64/Timer/Timer.c **** 
 425:/home/student/avr_src/SimulIDE_1.0.0-SR1_Lin64/Timer/Timer.c **** 		/*-------- Second part end -------*/
 426:/home/student/avr_src/SimulIDE_1.0.0-SR1_Lin64/Timer/Timer.c **** 
 427:/home/student/avr_src/SimulIDE_1.0.0-SR1_Lin64/Timer/Timer.c **** 		
 428:/home/student/avr_src/SimulIDE_1.0.0-SR1_Lin64/Timer/Timer.c **** 	
 429:/home/student/avr_src/SimulIDE_1.0.0-SR1_Lin64/Timer/Timer.c **** }
 430:/home/student/avr_src/SimulIDE_1.0.0-SR1_Lin64/Timer/Timer.c **** //====================================================
 431:/home/student/avr_src/SimulIDE_1.0.0-SR1_Lin64/Timer/Timer.c **** void I2C_LCD_MoveLeft(unsigned char cnt){
 432:/home/student/avr_src/SimulIDE_1.0.0-SR1_Lin64/Timer/Timer.c **** 	
 433:/home/student/avr_src/SimulIDE_1.0.0-SR1_Lin64/Timer/Timer.c ****     while(cnt){
 434:/home/student/avr_src/SimulIDE_1.0.0-SR1_Lin64/Timer/Timer.c **** 		LCD_CharWrite(0x1000);
 435:/home/student/avr_src/SimulIDE_1.0.0-SR1_Lin64/Timer/Timer.c **** 		cnt--;
 436:/home/student/avr_src/SimulIDE_1.0.0-SR1_Lin64/Timer/Timer.c **** 	}
 437:/home/student/avr_src/SimulIDE_1.0.0-SR1_Lin64/Timer/Timer.c ****     LCD_CharWrite(0x0060);
 438:/home/student/avr_src/SimulIDE_1.0.0-SR1_Lin64/Timer/Timer.c ****     LCD_CharWrite(0x00E0); //must add current state
 439:/home/student/avr_src/SimulIDE_1.0.0-SR1_Lin64/Timer/Timer.c **** }
 440:/home/student/avr_src/SimulIDE_1.0.0-SR1_Lin64/Timer/Timer.c **** 
 441:/home/student/avr_src/SimulIDE_1.0.0-SR1_Lin64/Timer/Timer.c **** void I2C_LCD_MoveRight(unsigned char cnt){
 442:/home/student/avr_src/SimulIDE_1.0.0-SR1_Lin64/Timer/Timer.c **** 	while(cnt){
 443:/home/student/avr_src/SimulIDE_1.0.0-SR1_Lin64/Timer/Timer.c **** 		LCD_CharWrite(0x1040);
 444:/home/student/avr_src/SimulIDE_1.0.0-SR1_Lin64/Timer/Timer.c **** 		cnt--;
 445:/home/student/avr_src/SimulIDE_1.0.0-SR1_Lin64/Timer/Timer.c **** 	}
 446:/home/student/avr_src/SimulIDE_1.0.0-SR1_Lin64/Timer/Timer.c ****     LCD_CharWrite(0x00E0); //must add current state
 447:/home/student/avr_src/SimulIDE_1.0.0-SR1_Lin64/Timer/Timer.c **** }
 448:/home/student/avr_src/SimulIDE_1.0.0-SR1_Lin64/Timer/Timer.c **** 
 449:/home/student/avr_src/SimulIDE_1.0.0-SR1_Lin64/Timer/Timer.c **** void I2C_LCD_SELECT(){
 450:/home/student/avr_src/SimulIDE_1.0.0-SR1_Lin64/Timer/Timer.c **** 	sel_flag ^= 1;
 451:/home/student/avr_src/SimulIDE_1.0.0-SR1_Lin64/Timer/Timer.c **** 	if(sel_flag){
 452:/home/student/avr_src/SimulIDE_1.0.0-SR1_Lin64/Timer/Timer.c **** 		LCD_CharWrite(0x00F0);
 453:/home/student/avr_src/SimulIDE_1.0.0-SR1_Lin64/Timer/Timer.c **** 		LCD_CharWrite(0x00F0);
 454:/home/student/avr_src/SimulIDE_1.0.0-SR1_Lin64/Timer/Timer.c **** 	} 
 455:/home/student/avr_src/SimulIDE_1.0.0-SR1_Lin64/Timer/Timer.c **** 	else {
 456:/home/student/avr_src/SimulIDE_1.0.0-SR1_Lin64/Timer/Timer.c **** 		LCD_CharWrite(0x00E0);
 457:/home/student/avr_src/SimulIDE_1.0.0-SR1_Lin64/Timer/Timer.c **** 		LCD_CharWrite(0x00E0);
 458:/home/student/avr_src/SimulIDE_1.0.0-SR1_Lin64/Timer/Timer.c **** 	}
 459:/home/student/avr_src/SimulIDE_1.0.0-SR1_Lin64/Timer/Timer.c **** }
 460:/home/student/avr_src/SimulIDE_1.0.0-SR1_Lin64/Timer/Timer.c **** 
 461:/home/student/avr_src/SimulIDE_1.0.0-SR1_Lin64/Timer/Timer.c **** //====================================================
 462:/home/student/avr_src/SimulIDE_1.0.0-SR1_Lin64/Timer/Timer.c **** //**NOTE: Timer must perform only the role of timer otherwise, global variables will be reset **
 463:/home/student/avr_src/SimulIDE_1.0.0-SR1_Lin64/Timer/Timer.c **** ISR(TIMER1_COMPA_vect){
 464:/home/student/avr_src/SimulIDE_1.0.0-SR1_Lin64/Timer/Timer.c **** 	if(timer_start_flag){ 
 465:/home/student/avr_src/SimulIDE_1.0.0-SR1_Lin64/Timer/Timer.c **** 		if(time_1s) time_1s--;
 466:/home/student/avr_src/SimulIDE_1.0.0-SR1_Lin64/Timer/Timer.c **** 		if(time_10ms) {
 467:/home/student/avr_src/SimulIDE_1.0.0-SR1_Lin64/Timer/Timer.c **** 			time_10ms--;
 468:/home/student/avr_src/SimulIDE_1.0.0-SR1_Lin64/Timer/Timer.c **** 			I2C_LCD_MoveRight(2);
 469:/home/student/avr_src/SimulIDE_1.0.0-SR1_Lin64/Timer/Timer.c **** 			LCD_CharWrite(num2lcdbyte(time_10ms/10));
 470:/home/student/avr_src/SimulIDE_1.0.0-SR1_Lin64/Timer/Timer.c **** 			LCD_CharWrite(num2lcdbyte(time_10ms % 10));
 471:/home/student/avr_src/SimulIDE_1.0.0-SR1_Lin64/Timer/Timer.c **** 			I2C_LCD_MoveLeft(4);
 472:/home/student/avr_src/SimulIDE_1.0.0-SR1_Lin64/Timer/Timer.c **** 			LCD_CharWrite(0x00C0);
 473:/home/student/avr_src/SimulIDE_1.0.0-SR1_Lin64/Timer/Timer.c **** 			LCD_CharWrite(0x00C0);
 474:/home/student/avr_src/SimulIDE_1.0.0-SR1_Lin64/Timer/Timer.c **** 		}
 475:/home/student/avr_src/SimulIDE_1.0.0-SR1_Lin64/Timer/Timer.c **** 	}
 476:/home/student/avr_src/SimulIDE_1.0.0-SR1_Lin64/Timer/Timer.c **** 
 477:/home/student/avr_src/SimulIDE_1.0.0-SR1_Lin64/Timer/Timer.c ****     key_data = key_scan();
 478:/home/student/avr_src/SimulIDE_1.0.0-SR1_Lin64/Timer/Timer.c **** 	if(sel_flag && key_flag){
 479:/home/student/avr_src/SimulIDE_1.0.0-SR1_Lin64/Timer/Timer.c **** 		key_flag = 0;
 480:/home/student/avr_src/SimulIDE_1.0.0-SR1_Lin64/Timer/Timer.c **** 		if(key_data == 0xff){
 481:/home/student/avr_src/SimulIDE_1.0.0-SR1_Lin64/Timer/Timer.c ****             return;
 482:/home/student/avr_src/SimulIDE_1.0.0-SR1_Lin64/Timer/Timer.c **** 		}
 483:/home/student/avr_src/SimulIDE_1.0.0-SR1_Lin64/Timer/Timer.c **** 		
 484:/home/student/avr_src/SimulIDE_1.0.0-SR1_Lin64/Timer/Timer.c **** 		if(key_data == 2){
 485:/home/student/avr_src/SimulIDE_1.0.0-SR1_Lin64/Timer/Timer.c **** 			if(cp.x == 5){
 486:/home/student/avr_src/SimulIDE_1.0.0-SR1_Lin64/Timer/Timer.c **** 				if((sel.MinNum + 10)< 60) {
 487:/home/student/avr_src/SimulIDE_1.0.0-SR1_Lin64/Timer/Timer.c **** 					sel.MinNum = sel.MinNum + 10;
 488:/home/student/avr_src/SimulIDE_1.0.0-SR1_Lin64/Timer/Timer.c **** 					sel.n1++;
 489:/home/student/avr_src/SimulIDE_1.0.0-SR1_Lin64/Timer/Timer.c **** 				}
 490:/home/student/avr_src/SimulIDE_1.0.0-SR1_Lin64/Timer/Timer.c **** 				LCD_CharWrite(num2lcdbyte(sel.n1));
 491:/home/student/avr_src/SimulIDE_1.0.0-SR1_Lin64/Timer/Timer.c ****         		LCD_CharWrite(0x1000);
 492:/home/student/avr_src/SimulIDE_1.0.0-SR1_Lin64/Timer/Timer.c ****         		LCD_CharWrite(0x00F0);
 493:/home/student/avr_src/SimulIDE_1.0.0-SR1_Lin64/Timer/Timer.c **** 			}
 494:/home/student/avr_src/SimulIDE_1.0.0-SR1_Lin64/Timer/Timer.c **** 			else if(cp.x == 6){
 495:/home/student/avr_src/SimulIDE_1.0.0-SR1_Lin64/Timer/Timer.c **** 				if(sel.MinNum < 9) {
 496:/home/student/avr_src/SimulIDE_1.0.0-SR1_Lin64/Timer/Timer.c **** 					sel.MinNum++;
 497:/home/student/avr_src/SimulIDE_1.0.0-SR1_Lin64/Timer/Timer.c **** 					sel.n2++;
 498:/home/student/avr_src/SimulIDE_1.0.0-SR1_Lin64/Timer/Timer.c **** 				}
 499:/home/student/avr_src/SimulIDE_1.0.0-SR1_Lin64/Timer/Timer.c **** 				LCD_CharWrite(num2lcdbyte(sel.n2));
 500:/home/student/avr_src/SimulIDE_1.0.0-SR1_Lin64/Timer/Timer.c ****         		LCD_CharWrite(0x1000);
 501:/home/student/avr_src/SimulIDE_1.0.0-SR1_Lin64/Timer/Timer.c ****         		LCD_CharWrite(0x00F0);
 502:/home/student/avr_src/SimulIDE_1.0.0-SR1_Lin64/Timer/Timer.c **** 			}
 503:/home/student/avr_src/SimulIDE_1.0.0-SR1_Lin64/Timer/Timer.c **** 			else if(cp.x == 8){
 504:/home/student/avr_src/SimulIDE_1.0.0-SR1_Lin64/Timer/Timer.c **** 				if((sel.SecNum + 10) < 60) {
 505:/home/student/avr_src/SimulIDE_1.0.0-SR1_Lin64/Timer/Timer.c **** 					sel.SecNum = sel.SecNum + 10;
 506:/home/student/avr_src/SimulIDE_1.0.0-SR1_Lin64/Timer/Timer.c **** 					sel.n3++;
 507:/home/student/avr_src/SimulIDE_1.0.0-SR1_Lin64/Timer/Timer.c **** 				}
 508:/home/student/avr_src/SimulIDE_1.0.0-SR1_Lin64/Timer/Timer.c **** 				LCD_CharWrite(num2lcdbyte(sel.n3));
 509:/home/student/avr_src/SimulIDE_1.0.0-SR1_Lin64/Timer/Timer.c ****         		LCD_CharWrite(0x1000);
 510:/home/student/avr_src/SimulIDE_1.0.0-SR1_Lin64/Timer/Timer.c ****         		LCD_CharWrite(0x00F0);
 511:/home/student/avr_src/SimulIDE_1.0.0-SR1_Lin64/Timer/Timer.c **** 			}
 512:/home/student/avr_src/SimulIDE_1.0.0-SR1_Lin64/Timer/Timer.c **** 			else if(cp.x == 9){
 513:/home/student/avr_src/SimulIDE_1.0.0-SR1_Lin64/Timer/Timer.c **** 				if(sel.SecNum < 9) {
 514:/home/student/avr_src/SimulIDE_1.0.0-SR1_Lin64/Timer/Timer.c **** 					sel.SecNum++;
 515:/home/student/avr_src/SimulIDE_1.0.0-SR1_Lin64/Timer/Timer.c **** 					sel.n4++;
 516:/home/student/avr_src/SimulIDE_1.0.0-SR1_Lin64/Timer/Timer.c **** 				}
 517:/home/student/avr_src/SimulIDE_1.0.0-SR1_Lin64/Timer/Timer.c **** 				LCD_CharWrite(num2lcdbyte(sel.n4));
 518:/home/student/avr_src/SimulIDE_1.0.0-SR1_Lin64/Timer/Timer.c ****         		LCD_CharWrite(0x1000);
 519:/home/student/avr_src/SimulIDE_1.0.0-SR1_Lin64/Timer/Timer.c ****         		LCD_CharWrite(0x00F0);
 520:/home/student/avr_src/SimulIDE_1.0.0-SR1_Lin64/Timer/Timer.c **** 			}
 521:/home/student/avr_src/SimulIDE_1.0.0-SR1_Lin64/Timer/Timer.c **** 		}
 522:/home/student/avr_src/SimulIDE_1.0.0-SR1_Lin64/Timer/Timer.c **** 		if(key_data == 5){
 523:/home/student/avr_src/SimulIDE_1.0.0-SR1_Lin64/Timer/Timer.c **** 			I2C_LCD_SELECT();
 524:/home/student/avr_src/SimulIDE_1.0.0-SR1_Lin64/Timer/Timer.c **** 			TIME_SETTING(sel.MinNum, sel.SecNum);
 525:/home/student/avr_src/SimulIDE_1.0.0-SR1_Lin64/Timer/Timer.c **** 		}
 526:/home/student/avr_src/SimulIDE_1.0.0-SR1_Lin64/Timer/Timer.c **** 
 527:/home/student/avr_src/SimulIDE_1.0.0-SR1_Lin64/Timer/Timer.c **** 		if(key_data == 8){
 528:/home/student/avr_src/SimulIDE_1.0.0-SR1_Lin64/Timer/Timer.c **** 			if(cp.x == 5){
 529:/home/student/avr_src/SimulIDE_1.0.0-SR1_Lin64/Timer/Timer.c **** 				if(sel.MinNum > 10 && sel.n1 > 0) {
 530:/home/student/avr_src/SimulIDE_1.0.0-SR1_Lin64/Timer/Timer.c **** 					sel.MinNum = sel.MinNum - 10;
 531:/home/student/avr_src/SimulIDE_1.0.0-SR1_Lin64/Timer/Timer.c **** 					sel.n1--;
 532:/home/student/avr_src/SimulIDE_1.0.0-SR1_Lin64/Timer/Timer.c **** 				}
 533:/home/student/avr_src/SimulIDE_1.0.0-SR1_Lin64/Timer/Timer.c **** 				LCD_CharWrite(num2lcdbyte(sel.n1));
 534:/home/student/avr_src/SimulIDE_1.0.0-SR1_Lin64/Timer/Timer.c ****         		LCD_CharWrite(0x1000);
 535:/home/student/avr_src/SimulIDE_1.0.0-SR1_Lin64/Timer/Timer.c ****         		LCD_CharWrite(0x00F0);
 536:/home/student/avr_src/SimulIDE_1.0.0-SR1_Lin64/Timer/Timer.c **** 			}
 537:/home/student/avr_src/SimulIDE_1.0.0-SR1_Lin64/Timer/Timer.c **** 			else if(cp.x == 6){
 538:/home/student/avr_src/SimulIDE_1.0.0-SR1_Lin64/Timer/Timer.c **** 				if(sel.MinNum > 0) {
 539:/home/student/avr_src/SimulIDE_1.0.0-SR1_Lin64/Timer/Timer.c **** 					sel.MinNum--;
 540:/home/student/avr_src/SimulIDE_1.0.0-SR1_Lin64/Timer/Timer.c **** 					sel.n2--;
 541:/home/student/avr_src/SimulIDE_1.0.0-SR1_Lin64/Timer/Timer.c **** 				}
 542:/home/student/avr_src/SimulIDE_1.0.0-SR1_Lin64/Timer/Timer.c **** 				LCD_CharWrite(num2lcdbyte(sel.n2));
 543:/home/student/avr_src/SimulIDE_1.0.0-SR1_Lin64/Timer/Timer.c ****         		LCD_CharWrite(0x1000);
 544:/home/student/avr_src/SimulIDE_1.0.0-SR1_Lin64/Timer/Timer.c ****         		LCD_CharWrite(0x00F0);
 545:/home/student/avr_src/SimulIDE_1.0.0-SR1_Lin64/Timer/Timer.c **** 			}
 546:/home/student/avr_src/SimulIDE_1.0.0-SR1_Lin64/Timer/Timer.c **** 			else if(cp.x == 8){
 547:/home/student/avr_src/SimulIDE_1.0.0-SR1_Lin64/Timer/Timer.c **** 				if(sel.SecNum > 10 && sel.n3 > 0) {
 548:/home/student/avr_src/SimulIDE_1.0.0-SR1_Lin64/Timer/Timer.c **** 					sel.SecNum = sel.SecNum - 10;
 549:/home/student/avr_src/SimulIDE_1.0.0-SR1_Lin64/Timer/Timer.c **** 					sel.n3--;
 550:/home/student/avr_src/SimulIDE_1.0.0-SR1_Lin64/Timer/Timer.c **** 				}
 551:/home/student/avr_src/SimulIDE_1.0.0-SR1_Lin64/Timer/Timer.c **** 				LCD_CharWrite(num2lcdbyte(sel.n3));
 552:/home/student/avr_src/SimulIDE_1.0.0-SR1_Lin64/Timer/Timer.c ****         		LCD_CharWrite(0x1000);
 553:/home/student/avr_src/SimulIDE_1.0.0-SR1_Lin64/Timer/Timer.c ****         		LCD_CharWrite(0x00F0);
 554:/home/student/avr_src/SimulIDE_1.0.0-SR1_Lin64/Timer/Timer.c **** 			}
 555:/home/student/avr_src/SimulIDE_1.0.0-SR1_Lin64/Timer/Timer.c **** 			else if(cp.x == 9){
 556:/home/student/avr_src/SimulIDE_1.0.0-SR1_Lin64/Timer/Timer.c **** 				if(sel.SecNum > 0) {
 557:/home/student/avr_src/SimulIDE_1.0.0-SR1_Lin64/Timer/Timer.c **** 					sel.SecNum--;
 558:/home/student/avr_src/SimulIDE_1.0.0-SR1_Lin64/Timer/Timer.c **** 					sel.n4--;
 559:/home/student/avr_src/SimulIDE_1.0.0-SR1_Lin64/Timer/Timer.c **** 				}
 560:/home/student/avr_src/SimulIDE_1.0.0-SR1_Lin64/Timer/Timer.c **** 				LCD_CharWrite(num2lcdbyte(sel.n4));
 561:/home/student/avr_src/SimulIDE_1.0.0-SR1_Lin64/Timer/Timer.c ****         		LCD_CharWrite(0x1000);
 562:/home/student/avr_src/SimulIDE_1.0.0-SR1_Lin64/Timer/Timer.c ****         		LCD_CharWrite(0x00F0);
 563:/home/student/avr_src/SimulIDE_1.0.0-SR1_Lin64/Timer/Timer.c **** 			}
 564:/home/student/avr_src/SimulIDE_1.0.0-SR1_Lin64/Timer/Timer.c **** 		}
 565:/home/student/avr_src/SimulIDE_1.0.0-SR1_Lin64/Timer/Timer.c **** 	}
 566:/home/student/avr_src/SimulIDE_1.0.0-SR1_Lin64/Timer/Timer.c **** 
 567:/home/student/avr_src/SimulIDE_1.0.0-SR1_Lin64/Timer/Timer.c ****     if(key_flag && !sel_flag){
 568:/home/student/avr_src/SimulIDE_1.0.0-SR1_Lin64/Timer/Timer.c **** 		key_flag = 0;
 569:/home/student/avr_src/SimulIDE_1.0.0-SR1_Lin64/Timer/Timer.c **** 		if(key_data == 0xff){
 570:/home/student/avr_src/SimulIDE_1.0.0-SR1_Lin64/Timer/Timer.c ****             return;
 571:/home/student/avr_src/SimulIDE_1.0.0-SR1_Lin64/Timer/Timer.c **** 		}
 572:/home/student/avr_src/SimulIDE_1.0.0-SR1_Lin64/Timer/Timer.c ****         if(key_data == 10){
 573:/home/student/avr_src/SimulIDE_1.0.0-SR1_Lin64/Timer/Timer.c **** 			I2C_Timer_Default(); //set 00:00:00
 574:/home/student/avr_src/SimulIDE_1.0.0-SR1_Lin64/Timer/Timer.c ****         }
 575:/home/student/avr_src/SimulIDE_1.0.0-SR1_Lin64/Timer/Timer.c ****         if(key_data == 11){
 576:/home/student/avr_src/SimulIDE_1.0.0-SR1_Lin64/Timer/Timer.c **** 			if(cp.x > 9) {
 577:/home/student/avr_src/SimulIDE_1.0.0-SR1_Lin64/Timer/Timer.c **** 				I2C_LCD_MoveLeft(cp.x - 9);
 578:/home/student/avr_src/SimulIDE_1.0.0-SR1_Lin64/Timer/Timer.c **** 				cp.x = 9;
 579:/home/student/avr_src/SimulIDE_1.0.0-SR1_Lin64/Timer/Timer.c **** 				LCD_CharWrite(0x00C0);
 580:/home/student/avr_src/SimulIDE_1.0.0-SR1_Lin64/Timer/Timer.c **** 				LCD_CharWrite(0x00C0);
 581:/home/student/avr_src/SimulIDE_1.0.0-SR1_Lin64/Timer/Timer.c **** 			}
 582:/home/student/avr_src/SimulIDE_1.0.0-SR1_Lin64/Timer/Timer.c **** 			else if(cp.x <9){
 583:/home/student/avr_src/SimulIDE_1.0.0-SR1_Lin64/Timer/Timer.c **** 				I2C_LCD_MoveRight(9 -cp.x);
 584:/home/student/avr_src/SimulIDE_1.0.0-SR1_Lin64/Timer/Timer.c **** 				cp.x = 9;
 585:/home/student/avr_src/SimulIDE_1.0.0-SR1_Lin64/Timer/Timer.c **** 				LCD_CharWrite(0x00C0);
 586:/home/student/avr_src/SimulIDE_1.0.0-SR1_Lin64/Timer/Timer.c **** 				LCD_CharWrite(0x00C0);
 587:/home/student/avr_src/SimulIDE_1.0.0-SR1_Lin64/Timer/Timer.c **** 			}
 588:/home/student/avr_src/SimulIDE_1.0.0-SR1_Lin64/Timer/Timer.c **** 			timer_start_flag ^= 1;
 589:/home/student/avr_src/SimulIDE_1.0.0-SR1_Lin64/Timer/Timer.c **** 		}                                                       
 590:/home/student/avr_src/SimulIDE_1.0.0-SR1_Lin64/Timer/Timer.c **** 		if(key_data == 1){ //reverse function
 591:/home/student/avr_src/SimulIDE_1.0.0-SR1_Lin64/Timer/Timer.c **** 			
 592:/home/student/avr_src/SimulIDE_1.0.0-SR1_Lin64/Timer/Timer.c **** 		}
 593:/home/student/avr_src/SimulIDE_1.0.0-SR1_Lin64/Timer/Timer.c **** 		if(key_data == 3){
 594:/home/student/avr_src/SimulIDE_1.0.0-SR1_Lin64/Timer/Timer.c **** 			I2C_Timer_act();
 595:/home/student/avr_src/SimulIDE_1.0.0-SR1_Lin64/Timer/Timer.c **** 		}
 596:/home/student/avr_src/SimulIDE_1.0.0-SR1_Lin64/Timer/Timer.c **** 		if(key_data == 4 && !timer_start_flag){
 597:/home/student/avr_src/SimulIDE_1.0.0-SR1_Lin64/Timer/Timer.c **** 			if(cp.x > 5){
 598:/home/student/avr_src/SimulIDE_1.0.0-SR1_Lin64/Timer/Timer.c **** 				if(cp.x == 8) {
 599:/home/student/avr_src/SimulIDE_1.0.0-SR1_Lin64/Timer/Timer.c **** 					I2C_LCD_MoveLeft(2);
 600:/home/student/avr_src/SimulIDE_1.0.0-SR1_Lin64/Timer/Timer.c **** 					cp.x = cp.x -2;
 601:/home/student/avr_src/SimulIDE_1.0.0-SR1_Lin64/Timer/Timer.c **** 				}
 602:/home/student/avr_src/SimulIDE_1.0.0-SR1_Lin64/Timer/Timer.c **** 				else {
 603:/home/student/avr_src/SimulIDE_1.0.0-SR1_Lin64/Timer/Timer.c **** 					I2C_LCD_MoveLeft(1);
 604:/home/student/avr_src/SimulIDE_1.0.0-SR1_Lin64/Timer/Timer.c **** 					cp.x--;
 605:/home/student/avr_src/SimulIDE_1.0.0-SR1_Lin64/Timer/Timer.c **** 				}
 606:/home/student/avr_src/SimulIDE_1.0.0-SR1_Lin64/Timer/Timer.c **** 			}
 607:/home/student/avr_src/SimulIDE_1.0.0-SR1_Lin64/Timer/Timer.c **** 		}
 608:/home/student/avr_src/SimulIDE_1.0.0-SR1_Lin64/Timer/Timer.c **** 		if(key_data == 5){
 609:/home/student/avr_src/SimulIDE_1.0.0-SR1_Lin64/Timer/Timer.c **** 			if(cp.x == 5 || cp.x == 6 || cp.x == 8 || cp.x == 9) I2C_LCD_SELECT();
 610:/home/student/avr_src/SimulIDE_1.0.0-SR1_Lin64/Timer/Timer.c **** 		}
 611:/home/student/avr_src/SimulIDE_1.0.0-SR1_Lin64/Timer/Timer.c **** 		if(key_data == 6 && !timer_start_flag){
 612:/home/student/avr_src/SimulIDE_1.0.0-SR1_Lin64/Timer/Timer.c **** 			if(cp.x < 9){
 613:/home/student/avr_src/SimulIDE_1.0.0-SR1_Lin64/Timer/Timer.c **** 				if(cp.x == 6){
 614:/home/student/avr_src/SimulIDE_1.0.0-SR1_Lin64/Timer/Timer.c **** 					I2C_LCD_MoveRight(2);
 615:/home/student/avr_src/SimulIDE_1.0.0-SR1_Lin64/Timer/Timer.c **** 					cp.x = cp.x + 2;
 616:/home/student/avr_src/SimulIDE_1.0.0-SR1_Lin64/Timer/Timer.c **** 				}
 617:/home/student/avr_src/SimulIDE_1.0.0-SR1_Lin64/Timer/Timer.c **** 				else {
 618:/home/student/avr_src/SimulIDE_1.0.0-SR1_Lin64/Timer/Timer.c **** 					I2C_LCD_MoveRight(1);
 619:/home/student/avr_src/SimulIDE_1.0.0-SR1_Lin64/Timer/Timer.c **** 					cp.x++;
 620:/home/student/avr_src/SimulIDE_1.0.0-SR1_Lin64/Timer/Timer.c **** 				}
 621:/home/student/avr_src/SimulIDE_1.0.0-SR1_Lin64/Timer/Timer.c **** 			}
 622:/home/student/avr_src/SimulIDE_1.0.0-SR1_Lin64/Timer/Timer.c **** 		}
 623:/home/student/avr_src/SimulIDE_1.0.0-SR1_Lin64/Timer/Timer.c **** 		if(key_data == 7){
 624:/home/student/avr_src/SimulIDE_1.0.0-SR1_Lin64/Timer/Timer.c **** 			LCD_CharWrite(num2lcdbyte(7));
 625:/home/student/avr_src/SimulIDE_1.0.0-SR1_Lin64/Timer/Timer.c ****             LCD_CharWrite(0x00E0);
 626:/home/student/avr_src/SimulIDE_1.0.0-SR1_Lin64/Timer/Timer.c **** 		}
 627:/home/student/avr_src/SimulIDE_1.0.0-SR1_Lin64/Timer/Timer.c **** 		if(key_data == 9){
 628:/home/student/avr_src/SimulIDE_1.0.0-SR1_Lin64/Timer/Timer.c **** 
 629:/home/student/avr_src/SimulIDE_1.0.0-SR1_Lin64/Timer/Timer.c **** 		}
 630:/home/student/avr_src/SimulIDE_1.0.0-SR1_Lin64/Timer/Timer.c **** 		if(key_data == 0){
 631:/home/student/avr_src/SimulIDE_1.0.0-SR1_Lin64/Timer/Timer.c **** 			
 632:/home/student/avr_src/SimulIDE_1.0.0-SR1_Lin64/Timer/Timer.c **** 			LCD_CharWrite(num2lcdbyte(0));
 633:/home/student/avr_src/SimulIDE_1.0.0-SR1_Lin64/Timer/Timer.c ****             LCD_CharWrite(0x00E0);
 634:/home/student/avr_src/SimulIDE_1.0.0-SR1_Lin64/Timer/Timer.c **** 		}
 635:/home/student/avr_src/SimulIDE_1.0.0-SR1_Lin64/Timer/Timer.c **** 		PORTC |= 0b00100000;
 636:/home/student/avr_src/SimulIDE_1.0.0-SR1_Lin64/Timer/Timer.c ****         }
 637:/home/student/avr_src/SimulIDE_1.0.0-SR1_Lin64/Timer/Timer.c ****         else{
 638:/home/student/avr_src/SimulIDE_1.0.0-SR1_Lin64/Timer/Timer.c **** 			PORTC &= ~0b00100000;
 639:/home/student/avr_src/SimulIDE_1.0.0-SR1_Lin64/Timer/Timer.c ****   			PORTC &= ~0x01;
 640:/home/student/avr_src/SimulIDE_1.0.0-SR1_Lin64/Timer/Timer.c ****         }
 641:/home/student/avr_src/SimulIDE_1.0.0-SR1_Lin64/Timer/Timer.c **** 
 642:/home/student/avr_src/SimulIDE_1.0.0-SR1_Lin64/Timer/Timer.c **** }
 643:/home/student/avr_src/SimulIDE_1.0.0-SR1_Lin64/Timer/Timer.c **** //====================================================
 644:/home/student/avr_src/SimulIDE_1.0.0-SR1_Lin64/Timer/Timer.c **** void USART_init(){
 229               		.stabn	68,0,644,.LM17-.LFBB4
 230               	.LM17:
 231               	.LFBB4:
 232               	/* prologue: function */
 233               	/* frame size = 0 */
 234               	/* stack size = 0 */
 235               	.L__stack_usage = 0
 645:/home/student/avr_src/SimulIDE_1.0.0-SR1_Lin64/Timer/Timer.c ****     UCSR0A = 0x20;
 236               		.stabn	68,0,645,.LM18-.LFBB4
 237               	.LM18:
 238 005c E0EC      		ldi r30,lo8(-64)
 239 005e F0E0      		ldi r31,0
 240 0060 80E2      		ldi r24,lo8(32)
 241 0062 8083      		st Z,r24
 646:/home/student/avr_src/SimulIDE_1.0.0-SR1_Lin64/Timer/Timer.c **** 	UCSR0A |= (1 << UDRE0);
 242               		.stabn	68,0,646,.LM19-.LFBB4
 243               	.LM19:
 244 0064 8081      		ld r24,Z
 245 0066 8062      		ori r24,lo8(32)
 246 0068 8083      		st Z,r24
 647:/home/student/avr_src/SimulIDE_1.0.0-SR1_Lin64/Timer/Timer.c ****     UCSR0B |= (1 << RXEN0)| (1 <<TXEN0) | (1 << RXCIE0);
 247               		.stabn	68,0,647,.LM20-.LFBB4
 248               	.LM20:
 249 006a E1EC      		ldi r30,lo8(-63)
 250 006c F0E0      		ldi r31,0
 251 006e 8081      		ld r24,Z
 252 0070 8869      		ori r24,lo8(-104)
 253 0072 8083      		st Z,r24
 648:/home/student/avr_src/SimulIDE_1.0.0-SR1_Lin64/Timer/Timer.c ****     UCSR0C = 0x06;
 254               		.stabn	68,0,648,.LM21-.LFBB4
 255               	.LM21:
 256 0074 86E0      		ldi r24,lo8(6)
 257 0076 8093 C200 		sts 194,r24
 649:/home/student/avr_src/SimulIDE_1.0.0-SR1_Lin64/Timer/Timer.c ****     UBRR0 = 8;
 258               		.stabn	68,0,649,.LM22-.LFBB4
 259               	.LM22:
 260 007a 88E0      		ldi r24,lo8(8)
 261 007c 90E0      		ldi r25,0
 262 007e 9093 C500 		sts 196+1,r25
 263 0082 8093 C400 		sts 196,r24
 264 0086 0895      		ret
 265               		.size	USART_init, .-USART_init
 266               	.Lscope4:
 267               		.stabs	"",36,0,0,.Lscope4-.LFBB4
 268               		.stabd	78,0,0
 269               		.stabs	"Tx_char:F(0,49)",36,0,651,Tx_char
 270               		.stabs	"data:P(0,13)",64,0,651,24
 271               	.global	Tx_char
 272               		.type	Tx_char, @function
 273               	Tx_char:
 274               		.stabd	46,0,0
 650:/home/student/avr_src/SimulIDE_1.0.0-SR1_Lin64/Timer/Timer.c **** }
 651:/home/student/avr_src/SimulIDE_1.0.0-SR1_Lin64/Timer/Timer.c **** void Tx_char(unsigned char data){
 275               		.stabn	68,0,651,.LM23-.LFBB5
 276               	.LM23:
 277               	.LFBB5:
 278               	/* prologue: function */
 279               	/* frame size = 0 */
 280               	/* stack size = 0 */
 281               	.L__stack_usage = 0
 282               	.L6:
 652:/home/student/avr_src/SimulIDE_1.0.0-SR1_Lin64/Timer/Timer.c ****     while(!(UCSR0A & (1 << UDRE0)));
 283               		.stabn	68,0,652,.LM24-.LFBB5
 284               	.LM24:
 285 0088 9091 C000 		lds r25,192
 286 008c 95FF      		sbrs r25,5
 287 008e 00C0      		rjmp .L6
 653:/home/student/avr_src/SimulIDE_1.0.0-SR1_Lin64/Timer/Timer.c ****     UDR0 = data;
 288               		.stabn	68,0,653,.LM25-.LFBB5
 289               	.LM25:
 290 0090 8093 C600 		sts 198,r24
 291 0094 0895      		ret
 292               		.size	Tx_char, .-Tx_char
 293               	.Lscope5:
 294               		.stabs	"",36,0,0,.Lscope5-.LFBB5
 295               		.stabd	78,0,0
 296               		.stabs	"__vector_18:F(0,49)",36,0,655,__vector_18
 297               	.global	__vector_18
 298               		.type	__vector_18, @function
 299               	__vector_18:
 300               		.stabd	46,0,0
 654:/home/student/avr_src/SimulIDE_1.0.0-SR1_Lin64/Timer/Timer.c **** }
 655:/home/student/avr_src/SimulIDE_1.0.0-SR1_Lin64/Timer/Timer.c **** ISR(USART_RX_vect) {
 301               		.stabn	68,0,655,.LM26-.LFBB6
 302               	.LM26:
 303               	.LFBB6:
 304 0096 1F92      		push r1
 305 0098 0F92      		push r0
 306 009a 0FB6      		in r0,__SREG__
 307 009c 0F92      		push r0
 308 009e 1124      		clr __zero_reg__
 309 00a0 2F93      		push r18
 310 00a2 3F93      		push r19
 311 00a4 4F93      		push r20
 312 00a6 5F93      		push r21
 313 00a8 6F93      		push r22
 314 00aa 7F93      		push r23
 315 00ac 8F93      		push r24
 316 00ae 9F93      		push r25
 317 00b0 AF93      		push r26
 318 00b2 BF93      		push r27
 319 00b4 EF93      		push r30
 320 00b6 FF93      		push r31
 321               	/* prologue: Signal */
 322               	/* frame size = 0 */
 323               	/* stack size = 15 */
 324               	.L__stack_usage = 15
 656:/home/student/avr_src/SimulIDE_1.0.0-SR1_Lin64/Timer/Timer.c ****     input = UDR0;
 325               		.stabn	68,0,656,.LM27-.LFBB6
 326               	.LM27:
 327 00b8 8091 C600 		lds r24,198
 328 00bc 8093 0000 		sts input,r24
 657:/home/student/avr_src/SimulIDE_1.0.0-SR1_Lin64/Timer/Timer.c **** 	unsigned char IN_2_INT = '`' + input + 0x20 - '0';
 658:/home/student/avr_src/SimulIDE_1.0.0-SR1_Lin64/Timer/Timer.c **** // LCD_CharWrite(num2lcdbyte(in2ascii));
 659:/home/student/avr_src/SimulIDE_1.0.0-SR1_Lin64/Timer/Timer.c **** // LCD_CharWrite(0x00F0);
 660:/home/student/avr_src/SimulIDE_1.0.0-SR1_Lin64/Timer/Timer.c **** // LCD_CharWrite(0x00F0);
 661:/home/student/avr_src/SimulIDE_1.0.0-SR1_Lin64/Timer/Timer.c **** 	Tx_char('0'+IN_2_INT);
 329               		.stabn	68,0,661,.LM28-.LFBB6
 330               	.LM28:
 331 00c0 8058      		subi r24,lo8(-(-128))
 332 00c2 0E94 0000 		call Tx_char
 333               	/* epilogue start */
 662:/home/student/avr_src/SimulIDE_1.0.0-SR1_Lin64/Timer/Timer.c **** 	// if()
 663:/home/student/avr_src/SimulIDE_1.0.0-SR1_Lin64/Timer/Timer.c **** 	// q_push();
 664:/home/student/avr_src/SimulIDE_1.0.0-SR1_Lin64/Timer/Timer.c **** }
 334               		.stabn	68,0,664,.LM29-.LFBB6
 335               	.LM29:
 336 00c6 FF91      		pop r31
 337 00c8 EF91      		pop r30
 338 00ca BF91      		pop r27
 339 00cc AF91      		pop r26
 340 00ce 9F91      		pop r25
 341 00d0 8F91      		pop r24
 342 00d2 7F91      		pop r23
 343 00d4 6F91      		pop r22
 344 00d6 5F91      		pop r21
 345 00d8 4F91      		pop r20
 346 00da 3F91      		pop r19
 347 00dc 2F91      		pop r18
 348 00de 0F90      		pop r0
 349 00e0 0FBE      		out __SREG__,r0
 350 00e2 0F90      		pop r0
 351 00e4 1F90      		pop r1
 352 00e6 1895      		reti
 353               		.size	__vector_18, .-__vector_18
 354               	.Lscope6:
 355               		.stabs	"",36,0,0,.Lscope6-.LFBB6
 356               		.stabd	78,0,0
 357               		.stabs	"key_analysis:F(0,13)",36,0,727,key_analysis
 358               		.stabs	"key:P(0,13)",64,0,727,24
 359               		.stabs	"Raw:P(0,13)",64,0,727,22
 360               	.global	key_analysis
 361               		.type	key_analysis, @function
 362               	key_analysis:
 363               		.stabd	46,0,0
 665:/home/student/avr_src/SimulIDE_1.0.0-SR1_Lin64/Timer/Timer.c **** //====================================================
 666:/home/student/avr_src/SimulIDE_1.0.0-SR1_Lin64/Timer/Timer.c **** unsigned char key_scan(){
 667:/home/student/avr_src/SimulIDE_1.0.0-SR1_Lin64/Timer/Timer.c **** 
 668:/home/student/avr_src/SimulIDE_1.0.0-SR1_Lin64/Timer/Timer.c ****     unsigned char bit_shift = 0b00010000;
 669:/home/student/avr_src/SimulIDE_1.0.0-SR1_Lin64/Timer/Timer.c ****     if(key_flag) return -1;
 670:/home/student/avr_src/SimulIDE_1.0.0-SR1_Lin64/Timer/Timer.c ****     PORTD &= ~(0x70);
 671:/home/student/avr_src/SimulIDE_1.0.0-SR1_Lin64/Timer/Timer.c ****     new_key = (PINB) & 0x0f;
 672:/home/student/avr_src/SimulIDE_1.0.0-SR1_Lin64/Timer/Timer.c **** 
 673:/home/student/avr_src/SimulIDE_1.0.0-SR1_Lin64/Timer/Timer.c ****     /* procedure to prevent signals chattering */
 674:/home/student/avr_src/SimulIDE_1.0.0-SR1_Lin64/Timer/Timer.c ****     if(new_key != old_key){
 675:/home/student/avr_src/SimulIDE_1.0.0-SR1_Lin64/Timer/Timer.c ****         old_key = new_key;
 676:/home/student/avr_src/SimulIDE_1.0.0-SR1_Lin64/Timer/Timer.c ****         return -1;
 677:/home/student/avr_src/SimulIDE_1.0.0-SR1_Lin64/Timer/Timer.c ****     }
 678:/home/student/avr_src/SimulIDE_1.0.0-SR1_Lin64/Timer/Timer.c **** 
 679:/home/student/avr_src/SimulIDE_1.0.0-SR1_Lin64/Timer/Timer.c ****     if(pressing_flag){ //checking if btn released
 680:/home/student/avr_src/SimulIDE_1.0.0-SR1_Lin64/Timer/Timer.c ****         //pin 1 ,3, 5 => D4, D5, D6 / pin 2,7,6,4 => D0, D1, D2, D3
 681:/home/student/avr_src/SimulIDE_1.0.0-SR1_Lin64/Timer/Timer.c ****         if(new_key == 0x0f){ //compare with current key and the received new key
 682:/home/student/avr_src/SimulIDE_1.0.0-SR1_Lin64/Timer/Timer.c ****                              //because if one of btns is pressed, it can get signals 
 683:/home/student/avr_src/SimulIDE_1.0.0-SR1_Lin64/Timer/Timer.c ****             pressing_flag = 0;
 684:/home/student/avr_src/SimulIDE_1.0.0-SR1_Lin64/Timer/Timer.c ****             return -1;
 685:/home/student/avr_src/SimulIDE_1.0.0-SR1_Lin64/Timer/Timer.c ****         }
 686:/home/student/avr_src/SimulIDE_1.0.0-SR1_Lin64/Timer/Timer.c ****         else return -1;
 687:/home/student/avr_src/SimulIDE_1.0.0-SR1_Lin64/Timer/Timer.c ****     }
 688:/home/student/avr_src/SimulIDE_1.0.0-SR1_Lin64/Timer/Timer.c **** 
 689:/home/student/avr_src/SimulIDE_1.0.0-SR1_Lin64/Timer/Timer.c ****     else { //checking if key pressed has a diffrent value with the previous key 
 690:/home/student/avr_src/SimulIDE_1.0.0-SR1_Lin64/Timer/Timer.c ****         if (new_key == 0x0f){
 691:/home/student/avr_src/SimulIDE_1.0.0-SR1_Lin64/Timer/Timer.c ****             return -1;
 692:/home/student/avr_src/SimulIDE_1.0.0-SR1_Lin64/Timer/Timer.c ****         } 
 693:/home/student/avr_src/SimulIDE_1.0.0-SR1_Lin64/Timer/Timer.c ****         else { 
 694:/home/student/avr_src/SimulIDE_1.0.0-SR1_Lin64/Timer/Timer.c ****             for(int Raw = 0; Raw < 3; Raw++){
 695:/home/student/avr_src/SimulIDE_1.0.0-SR1_Lin64/Timer/Timer.c ****                 PORTD |= 0x70; 
 696:/home/student/avr_src/SimulIDE_1.0.0-SR1_Lin64/Timer/Timer.c ****                 PORTD &= ~(bit_shift); //to check specific raw, Ex) raw 1 -> D5, D6 must be HIGH st
 697:/home/student/avr_src/SimulIDE_1.0.0-SR1_Lin64/Timer/Timer.c **** 									   //in addition if pin of PORTD is on, PINB won't be low state
 698:/home/student/avr_src/SimulIDE_1.0.0-SR1_Lin64/Timer/Timer.c **** 			    
 699:/home/student/avr_src/SimulIDE_1.0.0-SR1_Lin64/Timer/Timer.c ****                 
 700:/home/student/avr_src/SimulIDE_1.0.0-SR1_Lin64/Timer/Timer.c ****                 DDRD &= ~(bit_shift); //refresh
 701:/home/student/avr_src/SimulIDE_1.0.0-SR1_Lin64/Timer/Timer.c **** 				DDRD |= 0x70; 
 702:/home/student/avr_src/SimulIDE_1.0.0-SR1_Lin64/Timer/Timer.c **** 				
 703:/home/student/avr_src/SimulIDE_1.0.0-SR1_Lin64/Timer/Timer.c ****                 new_key = (PINB) & 0x0f;
 704:/home/student/avr_src/SimulIDE_1.0.0-SR1_Lin64/Timer/Timer.c ****                 if(new_key == 0x0f){ // + when raw is LOW
 705:/home/student/avr_src/SimulIDE_1.0.0-SR1_Lin64/Timer/Timer.c ****                   
 706:/home/student/avr_src/SimulIDE_1.0.0-SR1_Lin64/Timer/Timer.c ****                     bit_shift <<= 1;
 707:/home/student/avr_src/SimulIDE_1.0.0-SR1_Lin64/Timer/Timer.c ****                     continue;
 708:/home/student/avr_src/SimulIDE_1.0.0-SR1_Lin64/Timer/Timer.c ****                 }
 709:/home/student/avr_src/SimulIDE_1.0.0-SR1_Lin64/Timer/Timer.c ****                 else {
 710:/home/student/avr_src/SimulIDE_1.0.0-SR1_Lin64/Timer/Timer.c **** 					// if(!lcd_flag) I2C_LCD_init(0x27);
 711:/home/student/avr_src/SimulIDE_1.0.0-SR1_Lin64/Timer/Timer.c **** 					// lcd_flag = 1;
 712:/home/student/avr_src/SimulIDE_1.0.0-SR1_Lin64/Timer/Timer.c ****                     pressing_flag = 1;
 713:/home/student/avr_src/SimulIDE_1.0.0-SR1_Lin64/Timer/Timer.c ****                     key_flag = 1;
 714:/home/student/avr_src/SimulIDE_1.0.0-SR1_Lin64/Timer/Timer.c ****                     return key_analysis(new_key, Raw);
 715:/home/student/avr_src/SimulIDE_1.0.0-SR1_Lin64/Timer/Timer.c ****                 }
 716:/home/student/avr_src/SimulIDE_1.0.0-SR1_Lin64/Timer/Timer.c ****             }
 717:/home/student/avr_src/SimulIDE_1.0.0-SR1_Lin64/Timer/Timer.c ****         
 718:/home/student/avr_src/SimulIDE_1.0.0-SR1_Lin64/Timer/Timer.c ****         }
 719:/home/student/avr_src/SimulIDE_1.0.0-SR1_Lin64/Timer/Timer.c ****     }
 720:/home/student/avr_src/SimulIDE_1.0.0-SR1_Lin64/Timer/Timer.c **** 
 721:/home/student/avr_src/SimulIDE_1.0.0-SR1_Lin64/Timer/Timer.c **** 	return -1;
 722:/home/student/avr_src/SimulIDE_1.0.0-SR1_Lin64/Timer/Timer.c **** 
 723:/home/student/avr_src/SimulIDE_1.0.0-SR1_Lin64/Timer/Timer.c ****     /* end checking */
 724:/home/student/avr_src/SimulIDE_1.0.0-SR1_Lin64/Timer/Timer.c **** }
 725:/home/student/avr_src/SimulIDE_1.0.0-SR1_Lin64/Timer/Timer.c **** 
 726:/home/student/avr_src/SimulIDE_1.0.0-SR1_Lin64/Timer/Timer.c **** 
 727:/home/student/avr_src/SimulIDE_1.0.0-SR1_Lin64/Timer/Timer.c **** unsigned char key_analysis(unsigned char key, unsigned char Raw){
 364               		.stabn	68,0,727,.LM30-.LFBB7
 365               	.LM30:
 366               	.LFBB7:
 367               	/* prologue: function */
 368               	/* frame size = 0 */
 369               	/* stack size = 0 */
 370               	.L__stack_usage = 0
 728:/home/student/avr_src/SimulIDE_1.0.0-SR1_Lin64/Timer/Timer.c **** 
 729:/home/student/avr_src/SimulIDE_1.0.0-SR1_Lin64/Timer/Timer.c **** 	key_flag = 1;
 371               		.stabn	68,0,729,.LM31-.LFBB7
 372               	.LM31:
 373 00e8 91E0      		ldi r25,lo8(1)
 374 00ea 9093 0000 		sts key_flag,r25
 730:/home/student/avr_src/SimulIDE_1.0.0-SR1_Lin64/Timer/Timer.c **** 	switch(Raw){
 375               		.stabn	68,0,730,.LM32-.LFBB7
 376               	.LM32:
 377 00ee 6130      		cpi r22,lo8(1)
 378 00f0 01F0      		breq .L13
 379 00f2 00F0      		brlo .L14
 380 00f4 6230      		cpi r22,lo8(2)
 381 00f6 01F0      		breq .L15
 382 00f8 00C0      		rjmp .L35
 383               	.L14:
 384               	.LBB102:
 385               	.LBB103:
 731:/home/student/avr_src/SimulIDE_1.0.0-SR1_Lin64/Timer/Timer.c **** 		case 0:
 732:/home/student/avr_src/SimulIDE_1.0.0-SR1_Lin64/Timer/Timer.c **** 		switch(key){
 386               		.stabn	68,0,732,.LM33-.LFBB7
 387               	.LM33:
 388 00fa 8B30      		cpi r24,lo8(11)
 389 00fc 01F0      		breq .L17
 390 00fe 00F4      		brsh .L18
 391 0100 8730      		cpi r24,lo8(7)
 392 0102 01F4      		brne .L35
 733:/home/student/avr_src/SimulIDE_1.0.0-SR1_Lin64/Timer/Timer.c **** 			case 0b00001110:
 734:/home/student/avr_src/SimulIDE_1.0.0-SR1_Lin64/Timer/Timer.c **** 			return 1;
 735:/home/student/avr_src/SimulIDE_1.0.0-SR1_Lin64/Timer/Timer.c **** 			case 0b00001101:
 736:/home/student/avr_src/SimulIDE_1.0.0-SR1_Lin64/Timer/Timer.c **** 			return 4;
 737:/home/student/avr_src/SimulIDE_1.0.0-SR1_Lin64/Timer/Timer.c **** 			case 0b00001011:
 738:/home/student/avr_src/SimulIDE_1.0.0-SR1_Lin64/Timer/Timer.c **** 			return 7;
 739:/home/student/avr_src/SimulIDE_1.0.0-SR1_Lin64/Timer/Timer.c **** 			case 0b00000111:
 740:/home/student/avr_src/SimulIDE_1.0.0-SR1_Lin64/Timer/Timer.c **** 			return 10;
 393               		.stabn	68,0,740,.LM34-.LFBB7
 394               	.LM34:
 395 0104 8AE0      		ldi r24,lo8(10)
 396 0106 0895      		ret
 397               	.L18:
 732:/home/student/avr_src/SimulIDE_1.0.0-SR1_Lin64/Timer/Timer.c **** 			case 0b00001110:
 398               		.stabn	68,0,732,.LM35-.LFBB7
 399               	.LM35:
 400 0108 8D30      		cpi r24,lo8(13)
 401 010a 01F0      		breq .L20
 402 010c 8E30      		cpi r24,lo8(14)
 403 010e 01F0      		breq .L32
 404 0110 00C0      		rjmp .L35
 405               	.L20:
 736:/home/student/avr_src/SimulIDE_1.0.0-SR1_Lin64/Timer/Timer.c **** 			case 0b00001011:
 406               		.stabn	68,0,736,.LM36-.LFBB7
 407               	.LM36:
 408 0112 84E0      		ldi r24,lo8(4)
 409 0114 0895      		ret
 410               	.L17:
 738:/home/student/avr_src/SimulIDE_1.0.0-SR1_Lin64/Timer/Timer.c **** 			case 0b00000111:
 411               		.stabn	68,0,738,.LM37-.LFBB7
 412               	.LM37:
 413 0116 87E0      		ldi r24,lo8(7)
 414 0118 0895      		ret
 415               	.L13:
 416               	.LBE103:
 417               	.LBE102:
 741:/home/student/avr_src/SimulIDE_1.0.0-SR1_Lin64/Timer/Timer.c **** 			default:
 742:/home/student/avr_src/SimulIDE_1.0.0-SR1_Lin64/Timer/Timer.c **** 			key_flag = 0;
 743:/home/student/avr_src/SimulIDE_1.0.0-SR1_Lin64/Timer/Timer.c **** 			return -1;
 744:/home/student/avr_src/SimulIDE_1.0.0-SR1_Lin64/Timer/Timer.c **** 		}
 745:/home/student/avr_src/SimulIDE_1.0.0-SR1_Lin64/Timer/Timer.c **** 
 746:/home/student/avr_src/SimulIDE_1.0.0-SR1_Lin64/Timer/Timer.c **** 		case 1:
 747:/home/student/avr_src/SimulIDE_1.0.0-SR1_Lin64/Timer/Timer.c **** 		switch(key){
 418               		.stabn	68,0,747,.LM38-.LFBB7
 419               	.LM38:
 420 011a 8B30      		cpi r24,lo8(11)
 421 011c 01F0      		breq .L23
 422 011e 00F4      		brsh .L24
 423 0120 8730      		cpi r24,lo8(7)
 424 0122 01F4      		brne .L35
 748:/home/student/avr_src/SimulIDE_1.0.0-SR1_Lin64/Timer/Timer.c **** 			case 0b00001110:
 749:/home/student/avr_src/SimulIDE_1.0.0-SR1_Lin64/Timer/Timer.c **** 			return 2;
 750:/home/student/avr_src/SimulIDE_1.0.0-SR1_Lin64/Timer/Timer.c **** 			case 0b00001101:
 751:/home/student/avr_src/SimulIDE_1.0.0-SR1_Lin64/Timer/Timer.c **** 			return 5;
 752:/home/student/avr_src/SimulIDE_1.0.0-SR1_Lin64/Timer/Timer.c **** 			case 0b00001011:
 753:/home/student/avr_src/SimulIDE_1.0.0-SR1_Lin64/Timer/Timer.c **** 			return 8;
 754:/home/student/avr_src/SimulIDE_1.0.0-SR1_Lin64/Timer/Timer.c **** 			case 0b00000111:
 755:/home/student/avr_src/SimulIDE_1.0.0-SR1_Lin64/Timer/Timer.c **** 			return 0;
 425               		.stabn	68,0,755,.LM39-.LFBB7
 426               	.LM39:
 427 0124 80E0      		ldi r24,0
 428 0126 0895      		ret
 429               	.L24:
 747:/home/student/avr_src/SimulIDE_1.0.0-SR1_Lin64/Timer/Timer.c **** 			case 0b00001110:
 430               		.stabn	68,0,747,.LM40-.LFBB7
 431               	.LM40:
 432 0128 8D30      		cpi r24,lo8(13)
 433 012a 01F0      		breq .L26
 434 012c 8E30      		cpi r24,lo8(14)
 435 012e 01F0      		breq .L33
 436 0130 00C0      		rjmp .L35
 437               	.L26:
 751:/home/student/avr_src/SimulIDE_1.0.0-SR1_Lin64/Timer/Timer.c **** 			case 0b00001011:
 438               		.stabn	68,0,751,.LM41-.LFBB7
 439               	.LM41:
 440 0132 85E0      		ldi r24,lo8(5)
 441 0134 0895      		ret
 442               	.L23:
 753:/home/student/avr_src/SimulIDE_1.0.0-SR1_Lin64/Timer/Timer.c **** 			case 0b00000111:
 443               		.stabn	68,0,753,.LM42-.LFBB7
 444               	.LM42:
 445 0136 88E0      		ldi r24,lo8(8)
 446 0138 0895      		ret
 447               	.L15:
 756:/home/student/avr_src/SimulIDE_1.0.0-SR1_Lin64/Timer/Timer.c **** 			default:
 757:/home/student/avr_src/SimulIDE_1.0.0-SR1_Lin64/Timer/Timer.c **** 			key_flag = 0;
 758:/home/student/avr_src/SimulIDE_1.0.0-SR1_Lin64/Timer/Timer.c **** 			return -1;
 759:/home/student/avr_src/SimulIDE_1.0.0-SR1_Lin64/Timer/Timer.c **** 		}
 760:/home/student/avr_src/SimulIDE_1.0.0-SR1_Lin64/Timer/Timer.c **** 
 761:/home/student/avr_src/SimulIDE_1.0.0-SR1_Lin64/Timer/Timer.c **** 		case 2:
 762:/home/student/avr_src/SimulIDE_1.0.0-SR1_Lin64/Timer/Timer.c **** 		switch(key){
 448               		.stabn	68,0,762,.LM43-.LFBB7
 449               	.LM43:
 450 013a 8B30      		cpi r24,lo8(11)
 451 013c 01F0      		breq .L28
 452 013e 00F4      		brsh .L29
 453 0140 8730      		cpi r24,lo8(7)
 454 0142 01F4      		brne .L35
 763:/home/student/avr_src/SimulIDE_1.0.0-SR1_Lin64/Timer/Timer.c **** 			case 0b00001110:
 764:/home/student/avr_src/SimulIDE_1.0.0-SR1_Lin64/Timer/Timer.c **** 			return 3;
 765:/home/student/avr_src/SimulIDE_1.0.0-SR1_Lin64/Timer/Timer.c **** 			case 0b0001101:
 766:/home/student/avr_src/SimulIDE_1.0.0-SR1_Lin64/Timer/Timer.c **** 			return 6;
 767:/home/student/avr_src/SimulIDE_1.0.0-SR1_Lin64/Timer/Timer.c **** 			case 0b00001011:
 768:/home/student/avr_src/SimulIDE_1.0.0-SR1_Lin64/Timer/Timer.c **** 			return 9;
 769:/home/student/avr_src/SimulIDE_1.0.0-SR1_Lin64/Timer/Timer.c **** 			case 0b00000111:
 770:/home/student/avr_src/SimulIDE_1.0.0-SR1_Lin64/Timer/Timer.c **** 			return 11;
 455               		.stabn	68,0,770,.LM44-.LFBB7
 456               	.LM44:
 457 0144 8BE0      		ldi r24,lo8(11)
 458 0146 0895      		ret
 459               	.L29:
 762:/home/student/avr_src/SimulIDE_1.0.0-SR1_Lin64/Timer/Timer.c **** 			case 0b00001110:
 460               		.stabn	68,0,762,.LM45-.LFBB7
 461               	.LM45:
 462 0148 8D30      		cpi r24,lo8(13)
 463 014a 01F0      		breq .L31
 464 014c 8E30      		cpi r24,lo8(14)
 465 014e 01F0      		breq .L34
 466 0150 00C0      		rjmp .L35
 467               	.L31:
 766:/home/student/avr_src/SimulIDE_1.0.0-SR1_Lin64/Timer/Timer.c **** 			case 0b00001011:
 468               		.stabn	68,0,766,.LM46-.LFBB7
 469               	.LM46:
 470 0152 86E0      		ldi r24,lo8(6)
 471 0154 0895      		ret
 472               	.L28:
 768:/home/student/avr_src/SimulIDE_1.0.0-SR1_Lin64/Timer/Timer.c **** 			case 0b00000111:
 473               		.stabn	68,0,768,.LM47-.LFBB7
 474               	.LM47:
 475 0156 89E0      		ldi r24,lo8(9)
 476 0158 0895      		ret
 477               	.L35:
 771:/home/student/avr_src/SimulIDE_1.0.0-SR1_Lin64/Timer/Timer.c **** 			default:
 772:/home/student/avr_src/SimulIDE_1.0.0-SR1_Lin64/Timer/Timer.c **** 			key_flag = 0;
 773:/home/student/avr_src/SimulIDE_1.0.0-SR1_Lin64/Timer/Timer.c **** 			return -1;
 774:/home/student/avr_src/SimulIDE_1.0.0-SR1_Lin64/Timer/Timer.c **** 		}
 775:/home/student/avr_src/SimulIDE_1.0.0-SR1_Lin64/Timer/Timer.c **** 		default:
 776:/home/student/avr_src/SimulIDE_1.0.0-SR1_Lin64/Timer/Timer.c **** 		key_flag = 0;
 478               		.stabn	68,0,776,.LM48-.LFBB7
 479               	.LM48:
 480 015a 1092 0000 		sts key_flag,__zero_reg__
 777:/home/student/avr_src/SimulIDE_1.0.0-SR1_Lin64/Timer/Timer.c **** 		return -1;
 481               		.stabn	68,0,777,.LM49-.LFBB7
 482               	.LM49:
 483 015e 8FEF      		ldi r24,lo8(-1)
 484 0160 0895      		ret
 485               	.L32:
 486               	.LBB105:
 487               	.LBB104:
 734:/home/student/avr_src/SimulIDE_1.0.0-SR1_Lin64/Timer/Timer.c **** 			case 0b00001101:
 488               		.stabn	68,0,734,.LM50-.LFBB7
 489               	.LM50:
 490 0162 81E0      		ldi r24,lo8(1)
 491 0164 0895      		ret
 492               	.L33:
 493               	.LBE104:
 494               	.LBE105:
 749:/home/student/avr_src/SimulIDE_1.0.0-SR1_Lin64/Timer/Timer.c **** 			case 0b00001101:
 495               		.stabn	68,0,749,.LM51-.LFBB7
 496               	.LM51:
 497 0166 82E0      		ldi r24,lo8(2)
 498 0168 0895      		ret
 499               	.L34:
 764:/home/student/avr_src/SimulIDE_1.0.0-SR1_Lin64/Timer/Timer.c **** 			case 0b0001101:
 500               		.stabn	68,0,764,.LM52-.LFBB7
 501               	.LM52:
 502 016a 83E0      		ldi r24,lo8(3)
 778:/home/student/avr_src/SimulIDE_1.0.0-SR1_Lin64/Timer/Timer.c **** 	}
 779:/home/student/avr_src/SimulIDE_1.0.0-SR1_Lin64/Timer/Timer.c **** }
 503               		.stabn	68,0,779,.LM53-.LFBB7
 504               	.LM53:
 505 016c 0895      		ret
 506               		.size	key_analysis, .-key_analysis
 507               	.Lscope7:
 508               		.stabs	"",36,0,0,.Lscope7-.LFBB7
 509               		.stabd	78,0,0
 510               		.stabs	"key_scan:F(0,13)",36,0,666,key_scan
 511               	.global	key_scan
 512               		.type	key_scan, @function
 513               	key_scan:
 514               		.stabd	46,0,0
 666:/home/student/avr_src/SimulIDE_1.0.0-SR1_Lin64/Timer/Timer.c **** 
 515               		.stabn	68,0,666,.LM54-.LFBB8
 516               	.LM54:
 517               	.LFBB8:
 518               	/* prologue: function */
 519               	/* frame size = 0 */
 520               	/* stack size = 0 */
 521               	.L__stack_usage = 0
 669:/home/student/avr_src/SimulIDE_1.0.0-SR1_Lin64/Timer/Timer.c ****     PORTD &= ~(0x70);
 522               		.stabn	68,0,669,.LM55-.LFBB8
 523               	.LM55:
 524 016e 8091 0000 		lds r24,key_flag
 525 0172 8111      		cpse r24,__zero_reg__
 526 0174 00C0      		rjmp .L38
 670:/home/student/avr_src/SimulIDE_1.0.0-SR1_Lin64/Timer/Timer.c ****     new_key = (PINB) & 0x0f;
 527               		.stabn	68,0,670,.LM56-.LFBB8
 528               	.LM56:
 529 0176 8BB1      		in r24,0xb
 530 0178 8F78      		andi r24,lo8(-113)
 531 017a 8BB9      		out 0xb,r24
 671:/home/student/avr_src/SimulIDE_1.0.0-SR1_Lin64/Timer/Timer.c **** 
 532               		.stabn	68,0,671,.LM57-.LFBB8
 533               	.LM57:
 534 017c 83B1      		in r24,0x3
 535 017e 8F70      		andi r24,lo8(15)
 536 0180 8093 0000 		sts new_key,r24
 674:/home/student/avr_src/SimulIDE_1.0.0-SR1_Lin64/Timer/Timer.c ****         old_key = new_key;
 537               		.stabn	68,0,674,.LM58-.LFBB8
 538               	.LM58:
 539 0184 9091 0000 		lds r25,new_key
 540 0188 8091 0000 		lds r24,old_key
 541 018c 9817      		cp r25,r24
 542 018e 01F0      		breq .L39
 675:/home/student/avr_src/SimulIDE_1.0.0-SR1_Lin64/Timer/Timer.c ****         return -1;
 543               		.stabn	68,0,675,.LM59-.LFBB8
 544               	.LM59:
 545 0190 8091 0000 		lds r24,new_key
 546 0194 8093 0000 		sts old_key,r24
 676:/home/student/avr_src/SimulIDE_1.0.0-SR1_Lin64/Timer/Timer.c ****     }
 547               		.stabn	68,0,676,.LM60-.LFBB8
 548               	.LM60:
 549 0198 00C0      		rjmp .L38
 550               	.L39:
 679:/home/student/avr_src/SimulIDE_1.0.0-SR1_Lin64/Timer/Timer.c ****         //pin 1 ,3, 5 => D4, D5, D6 / pin 2,7,6,4 => D0, D1, D2, D3
 551               		.stabn	68,0,679,.LM61-.LFBB8
 552               	.LM61:
 553 019a 8091 0000 		lds r24,pressing_flag
 554 019e 8823      		tst r24
 555 01a0 01F0      		breq .L40
 681:/home/student/avr_src/SimulIDE_1.0.0-SR1_Lin64/Timer/Timer.c ****                              //because if one of btns is pressed, it can get signals 
 556               		.stabn	68,0,681,.LM62-.LFBB8
 557               	.LM62:
 558 01a2 8091 0000 		lds r24,new_key
 559 01a6 8F30      		cpi r24,lo8(15)
 560 01a8 01F4      		brne .L38
 683:/home/student/avr_src/SimulIDE_1.0.0-SR1_Lin64/Timer/Timer.c ****             return -1;
 561               		.stabn	68,0,683,.LM63-.LFBB8
 562               	.LM63:
 563 01aa 1092 0000 		sts pressing_flag,__zero_reg__
 684:/home/student/avr_src/SimulIDE_1.0.0-SR1_Lin64/Timer/Timer.c ****         }
 564               		.stabn	68,0,684,.LM64-.LFBB8
 565               	.LM64:
 566 01ae 00C0      		rjmp .L38
 567               	.L40:
 690:/home/student/avr_src/SimulIDE_1.0.0-SR1_Lin64/Timer/Timer.c ****             return -1;
 568               		.stabn	68,0,690,.LM65-.LFBB8
 569               	.LM65:
 570 01b0 8091 0000 		lds r24,new_key
 571 01b4 8F30      		cpi r24,lo8(15)
 572 01b6 01F0      		breq .L38
 573 01b8 60E0      		ldi r22,0
 574 01ba 70E0      		ldi r23,0
 575 01bc 90E1      		ldi r25,lo8(16)
 576               	.L43:
 577               	.LBB110:
 578               	.LBB111:
 579               	.LBB112:
 695:/home/student/avr_src/SimulIDE_1.0.0-SR1_Lin64/Timer/Timer.c ****                 PORTD &= ~(bit_shift); //to check specific raw, Ex) raw 1 -> D5, D6 must be HIGH st
 580               		.stabn	68,0,695,.LM66-.LFBB8
 581               	.LM66:
 582 01be 8BB1      		in r24,0xb
 583 01c0 8067      		ori r24,lo8(112)
 584 01c2 8BB9      		out 0xb,r24
 696:/home/student/avr_src/SimulIDE_1.0.0-SR1_Lin64/Timer/Timer.c **** 									   //in addition if pin of PORTD is on, PINB won't be low state
 585               		.stabn	68,0,696,.LM67-.LFBB8
 586               	.LM67:
 587 01c4 2BB1      		in r18,0xb
 588 01c6 892F      		mov r24,r25
 589 01c8 8095      		com r24
 590 01ca 2823      		and r18,r24
 591 01cc 2BB9      		out 0xb,r18
 700:/home/student/avr_src/SimulIDE_1.0.0-SR1_Lin64/Timer/Timer.c **** 				DDRD |= 0x70; 
 592               		.stabn	68,0,700,.LM68-.LFBB8
 593               	.LM68:
 594 01ce 2AB1      		in r18,0xa
 595 01d0 8223      		and r24,r18
 596 01d2 8AB9      		out 0xa,r24
 701:/home/student/avr_src/SimulIDE_1.0.0-SR1_Lin64/Timer/Timer.c **** 				
 597               		.stabn	68,0,701,.LM69-.LFBB8
 598               	.LM69:
 599 01d4 8AB1      		in r24,0xa
 600 01d6 8067      		ori r24,lo8(112)
 601 01d8 8AB9      		out 0xa,r24
 703:/home/student/avr_src/SimulIDE_1.0.0-SR1_Lin64/Timer/Timer.c ****                 if(new_key == 0x0f){ // + when raw is LOW
 602               		.stabn	68,0,703,.LM70-.LFBB8
 603               	.LM70:
 604 01da 83B1      		in r24,0x3
 605 01dc 8F70      		andi r24,lo8(15)
 606 01de 8093 0000 		sts new_key,r24
 704:/home/student/avr_src/SimulIDE_1.0.0-SR1_Lin64/Timer/Timer.c ****                   
 607               		.stabn	68,0,704,.LM71-.LFBB8
 608               	.LM71:
 609 01e2 8091 0000 		lds r24,new_key
 610 01e6 8F30      		cpi r24,lo8(15)
 611 01e8 01F4      		brne .L42
 706:/home/student/avr_src/SimulIDE_1.0.0-SR1_Lin64/Timer/Timer.c ****                     continue;
 612               		.stabn	68,0,706,.LM72-.LFBB8
 613               	.LM72:
 614 01ea 990F      		lsl r25
 694:/home/student/avr_src/SimulIDE_1.0.0-SR1_Lin64/Timer/Timer.c ****                 PORTD |= 0x70; 
 615               		.stabn	68,0,694,.LM73-.LFBB8
 616               	.LM73:
 617 01ec 6F5F      		subi r22,-1
 618 01ee 7F4F      		sbci r23,-1
 619 01f0 6330      		cpi r22,3
 620 01f2 7105      		cpc r23,__zero_reg__
 621 01f4 01F0      		breq .L38
 622 01f6 00C0      		rjmp .L43
 623               	.L42:
 712:/home/student/avr_src/SimulIDE_1.0.0-SR1_Lin64/Timer/Timer.c ****                     key_flag = 1;
 624               		.stabn	68,0,712,.LM74-.LFBB8
 625               	.LM74:
 626 01f8 81E0      		ldi r24,lo8(1)
 627 01fa 8093 0000 		sts pressing_flag,r24
 713:/home/student/avr_src/SimulIDE_1.0.0-SR1_Lin64/Timer/Timer.c ****                     return key_analysis(new_key, Raw);
 628               		.stabn	68,0,713,.LM75-.LFBB8
 629               	.LM75:
 630 01fe 8093 0000 		sts key_flag,r24
 714:/home/student/avr_src/SimulIDE_1.0.0-SR1_Lin64/Timer/Timer.c ****                 }
 631               		.stabn	68,0,714,.LM76-.LFBB8
 632               	.LM76:
 633 0202 8091 0000 		lds r24,new_key
 634 0206 0C94 0000 		jmp key_analysis
 635               	.L38:
 636               	.LBE112:
 637               	.LBE111:
 638               	.LBE110:
 724:/home/student/avr_src/SimulIDE_1.0.0-SR1_Lin64/Timer/Timer.c **** 
 639               		.stabn	68,0,724,.LM77-.LFBB8
 640               	.LM77:
 641 020a 8FEF      		ldi r24,lo8(-1)
 642 020c 0895      		ret
 643               		.size	key_scan, .-key_scan
 644               		.stabs	"bit_shift:r(0,13)",64,0,668,25
 645               		.stabn	192,0,0,.LBB111-.LFBB8
 646               		.stabs	"Raw:r(0,1)",64,0,694,22
 647               		.stabn	192,0,0,.LBB112-.LFBB8
 648               		.stabn	224,0,0,.LBE112-.LFBB8
 649               		.stabn	224,0,0,.LBE111-.LFBB8
 650               	.Lscope8:
 651               		.stabs	"",36,0,0,.Lscope8-.LFBB8
 652               		.stabd	78,0,0
 653               		.stabs	"num2lcdbyte:F(5,4)",36,0,808,num2lcdbyte
 654               		.stabs	"num:P(0,13)",64,0,808,24
 655               	.global	num2lcdbyte
 656               		.type	num2lcdbyte, @function
 657               	num2lcdbyte:
 658               		.stabd	46,0,0
 780:/home/student/avr_src/SimulIDE_1.0.0-SR1_Lin64/Timer/Timer.c **** //====================================================
 781:/home/student/avr_src/SimulIDE_1.0.0-SR1_Lin64/Timer/Timer.c **** 
 782:/home/student/avr_src/SimulIDE_1.0.0-SR1_Lin64/Timer/Timer.c **** void LCD_Write(unsigned char data){ //mainly command
 783:/home/student/avr_src/SimulIDE_1.0.0-SR1_Lin64/Timer/Timer.c **** 	
 784:/home/student/avr_src/SimulIDE_1.0.0-SR1_Lin64/Timer/Timer.c **** 	// D7 D6 D5 D4   X  E  RW RS
 785:/home/student/avr_src/SimulIDE_1.0.0-SR1_Lin64/Timer/Timer.c **** 	// P7 P6 P5 P4   P3 P2 P1 P0
 786:/home/student/avr_src/SimulIDE_1.0.0-SR1_Lin64/Timer/Timer.c **** 	_delay_us(1);
 787:/home/student/avr_src/SimulIDE_1.0.0-SR1_Lin64/Timer/Timer.c **** 	//LCD_NEBIT(data);
 788:/home/student/avr_src/SimulIDE_1.0.0-SR1_Lin64/Timer/Timer.c **** 	write_AT24Cxx_i2c_byte(data); 
 789:/home/student/avr_src/SimulIDE_1.0.0-SR1_Lin64/Timer/Timer.c **** 
 790:/home/student/avr_src/SimulIDE_1.0.0-SR1_Lin64/Timer/Timer.c **** }
 791:/home/student/avr_src/SimulIDE_1.0.0-SR1_Lin64/Timer/Timer.c **** 
 792:/home/student/avr_src/SimulIDE_1.0.0-SR1_Lin64/Timer/Timer.c **** void LCD_CharWrite(uint16_t byte){
 793:/home/student/avr_src/SimulIDE_1.0.0-SR1_Lin64/Timer/Timer.c **** 	
 794:/home/student/avr_src/SimulIDE_1.0.0-SR1_Lin64/Timer/Timer.c **** 	cli();
 795:/home/student/avr_src/SimulIDE_1.0.0-SR1_Lin64/Timer/Timer.c **** 
 796:/home/student/avr_src/SimulIDE_1.0.0-SR1_Lin64/Timer/Timer.c **** 	AT24Cxx_i2c_start();
 797:/home/student/avr_src/SimulIDE_1.0.0-SR1_Lin64/Timer/Timer.c **** 	write_AT24Cxx_i2c_LCDAddressing((I2CLCD_ADDR << 1)); 
 798:/home/student/avr_src/SimulIDE_1.0.0-SR1_Lin64/Timer/Timer.c **** 	unsigned char upperbits = byte>>8 & 0xFF;
 799:/home/student/avr_src/SimulIDE_1.0.0-SR1_Lin64/Timer/Timer.c **** 	unsigned char lowerbits = byte & 0xFF;
 800:/home/student/avr_src/SimulIDE_1.0.0-SR1_Lin64/Timer/Timer.c **** 	LCD_NEBIT(upperbits);
 801:/home/student/avr_src/SimulIDE_1.0.0-SR1_Lin64/Timer/Timer.c **** 	write_AT24Cxx_i2c_byte(upperbits); 
 802:/home/student/avr_src/SimulIDE_1.0.0-SR1_Lin64/Timer/Timer.c **** 	LCD_NEBIT(lowerbits);
 803:/home/student/avr_src/SimulIDE_1.0.0-SR1_Lin64/Timer/Timer.c **** 	write_AT24Cxx_i2c_byte(lowerbits); 
 804:/home/student/avr_src/SimulIDE_1.0.0-SR1_Lin64/Timer/Timer.c **** 	AT24Cxx_i2c_stop();
 805:/home/student/avr_src/SimulIDE_1.0.0-SR1_Lin64/Timer/Timer.c **** 	sei();
 806:/home/student/avr_src/SimulIDE_1.0.0-SR1_Lin64/Timer/Timer.c **** }
 807:/home/student/avr_src/SimulIDE_1.0.0-SR1_Lin64/Timer/Timer.c **** 
 808:/home/student/avr_src/SimulIDE_1.0.0-SR1_Lin64/Timer/Timer.c **** uint16_t num2lcdbyte(unsigned char num){
 659               		.stabn	68,0,808,.LM78-.LFBB9
 660               	.LM78:
 661               	.LFBB9:
 662               	/* prologue: function */
 663               	/* frame size = 0 */
 664               	/* stack size = 0 */
 665               	.L__stack_usage = 0
 809:/home/student/avr_src/SimulIDE_1.0.0-SR1_Lin64/Timer/Timer.c **** 	// D7 D6 D5 D4   X  E  RW RS
 810:/home/student/avr_src/SimulIDE_1.0.0-SR1_Lin64/Timer/Timer.c **** 	// P7 P6 P5 P4   P3 P2 P1 P0
 811:/home/student/avr_src/SimulIDE_1.0.0-SR1_Lin64/Timer/Timer.c **** 
 812:/home/student/avr_src/SimulIDE_1.0.0-SR1_Lin64/Timer/Timer.c **** 	if(num == 0) return 0x3101;
 666               		.stabn	68,0,812,.LM79-.LFBB9
 667               	.LM79:
 668 020e 8823      		tst r24
 669 0210 01F0      		breq .L50
 813:/home/student/avr_src/SimulIDE_1.0.0-SR1_Lin64/Timer/Timer.c **** 	if(num == 1) return 0x3111;
 670               		.stabn	68,0,813,.LM80-.LFBB9
 671               	.LM80:
 672 0212 8130      		cpi r24,lo8(1)
 673 0214 01F0      		breq .L51
 814:/home/student/avr_src/SimulIDE_1.0.0-SR1_Lin64/Timer/Timer.c **** 	if(num == 2) return 0x3121;
 674               		.stabn	68,0,814,.LM81-.LFBB9
 675               	.LM81:
 676 0216 8230      		cpi r24,lo8(2)
 677 0218 01F0      		breq .L52
 815:/home/student/avr_src/SimulIDE_1.0.0-SR1_Lin64/Timer/Timer.c **** 	if(num == 3) return 0x3131;
 678               		.stabn	68,0,815,.LM82-.LFBB9
 679               	.LM82:
 680 021a 8330      		cpi r24,lo8(3)
 681 021c 01F0      		breq .L53
 816:/home/student/avr_src/SimulIDE_1.0.0-SR1_Lin64/Timer/Timer.c **** 	if(num == 4) return 0x3141;
 682               		.stabn	68,0,816,.LM83-.LFBB9
 683               	.LM83:
 684 021e 8430      		cpi r24,lo8(4)
 685 0220 01F0      		breq .L54
 817:/home/student/avr_src/SimulIDE_1.0.0-SR1_Lin64/Timer/Timer.c **** 	if(num == 5) return 0x3151;
 686               		.stabn	68,0,817,.LM84-.LFBB9
 687               	.LM84:
 688 0222 8530      		cpi r24,lo8(5)
 689 0224 01F0      		breq .L55
 818:/home/student/avr_src/SimulIDE_1.0.0-SR1_Lin64/Timer/Timer.c **** 	if(num == 6) return 0x3161;
 690               		.stabn	68,0,818,.LM85-.LFBB9
 691               	.LM85:
 692 0226 8630      		cpi r24,lo8(6)
 693 0228 01F0      		breq .L56
 819:/home/student/avr_src/SimulIDE_1.0.0-SR1_Lin64/Timer/Timer.c **** 	if(num == 7) return 0x3171;
 694               		.stabn	68,0,819,.LM86-.LFBB9
 695               	.LM86:
 696 022a 8730      		cpi r24,lo8(7)
 697 022c 01F0      		breq .L57
 698               	.LBB115:
 699               	.LBB116:
 820:/home/student/avr_src/SimulIDE_1.0.0-SR1_Lin64/Timer/Timer.c **** 	if(num == 8) return 0x3181;
 700               		.stabn	68,0,820,.LM87-.LFBB9
 701               	.LM87:
 702 022e 8830      		cpi r24,lo8(8)
 703 0230 01F0      		breq .L58
 821:/home/student/avr_src/SimulIDE_1.0.0-SR1_Lin64/Timer/Timer.c **** 	if(num == 9) return 0x3191;
 704               		.stabn	68,0,821,.LM88-.LFBB9
 705               	.LM88:
 706 0232 8930      		cpi r24,lo8(9)
 707 0234 01F0      		breq .L59
 822:/home/student/avr_src/SimulIDE_1.0.0-SR1_Lin64/Timer/Timer.c **** 
 823:/home/student/avr_src/SimulIDE_1.0.0-SR1_Lin64/Timer/Timer.c **** 	return -1;
 708               		.stabn	68,0,823,.LM89-.LFBB9
 709               	.LM89:
 710 0236 8FEF      		ldi r24,lo8(-1)
 711 0238 9FEF      		ldi r25,lo8(-1)
 712 023a 0895      		ret
 713               	.L50:
 714               	.LBE116:
 715               	.LBE115:
 812:/home/student/avr_src/SimulIDE_1.0.0-SR1_Lin64/Timer/Timer.c **** 	if(num == 1) return 0x3111;
 716               		.stabn	68,0,812,.LM90-.LFBB9
 717               	.LM90:
 718 023c 81E0      		ldi r24,lo8(1)
 719 023e 91E3      		ldi r25,lo8(49)
 720 0240 0895      		ret
 721               	.L51:
 813:/home/student/avr_src/SimulIDE_1.0.0-SR1_Lin64/Timer/Timer.c **** 	if(num == 2) return 0x3121;
 722               		.stabn	68,0,813,.LM91-.LFBB9
 723               	.LM91:
 724 0242 81E1      		ldi r24,lo8(17)
 725 0244 91E3      		ldi r25,lo8(49)
 726 0246 0895      		ret
 727               	.L52:
 814:/home/student/avr_src/SimulIDE_1.0.0-SR1_Lin64/Timer/Timer.c **** 	if(num == 3) return 0x3131;
 728               		.stabn	68,0,814,.LM92-.LFBB9
 729               	.LM92:
 730 0248 81E2      		ldi r24,lo8(33)
 731 024a 91E3      		ldi r25,lo8(49)
 732 024c 0895      		ret
 733               	.L53:
 815:/home/student/avr_src/SimulIDE_1.0.0-SR1_Lin64/Timer/Timer.c **** 	if(num == 4) return 0x3141;
 734               		.stabn	68,0,815,.LM93-.LFBB9
 735               	.LM93:
 736 024e 81E3      		ldi r24,lo8(49)
 737 0250 91E3      		ldi r25,lo8(49)
 738 0252 0895      		ret
 739               	.L54:
 816:/home/student/avr_src/SimulIDE_1.0.0-SR1_Lin64/Timer/Timer.c **** 	if(num == 5) return 0x3151;
 740               		.stabn	68,0,816,.LM94-.LFBB9
 741               	.LM94:
 742 0254 81E4      		ldi r24,lo8(65)
 743 0256 91E3      		ldi r25,lo8(49)
 744 0258 0895      		ret
 745               	.L55:
 817:/home/student/avr_src/SimulIDE_1.0.0-SR1_Lin64/Timer/Timer.c **** 	if(num == 6) return 0x3161;
 746               		.stabn	68,0,817,.LM95-.LFBB9
 747               	.LM95:
 748 025a 81E5      		ldi r24,lo8(81)
 749 025c 91E3      		ldi r25,lo8(49)
 750 025e 0895      		ret
 751               	.L56:
 818:/home/student/avr_src/SimulIDE_1.0.0-SR1_Lin64/Timer/Timer.c **** 	if(num == 7) return 0x3171;
 752               		.stabn	68,0,818,.LM96-.LFBB9
 753               	.LM96:
 754 0260 81E6      		ldi r24,lo8(97)
 755 0262 91E3      		ldi r25,lo8(49)
 756 0264 0895      		ret
 757               	.L57:
 819:/home/student/avr_src/SimulIDE_1.0.0-SR1_Lin64/Timer/Timer.c **** 	if(num == 8) return 0x3181;
 758               		.stabn	68,0,819,.LM97-.LFBB9
 759               	.LM97:
 760 0266 81E7      		ldi r24,lo8(113)
 761 0268 91E3      		ldi r25,lo8(49)
 762 026a 0895      		ret
 763               	.L58:
 764               	.LBB118:
 765               	.LBB117:
 820:/home/student/avr_src/SimulIDE_1.0.0-SR1_Lin64/Timer/Timer.c **** 	if(num == 9) return 0x3191;
 766               		.stabn	68,0,820,.LM98-.LFBB9
 767               	.LM98:
 768 026c 81E8      		ldi r24,lo8(-127)
 769 026e 91E3      		ldi r25,lo8(49)
 770 0270 0895      		ret
 771               	.L59:
 821:/home/student/avr_src/SimulIDE_1.0.0-SR1_Lin64/Timer/Timer.c **** 
 772               		.stabn	68,0,821,.LM99-.LFBB9
 773               	.LM99:
 774 0272 81E9      		ldi r24,lo8(-111)
 775 0274 91E3      		ldi r25,lo8(49)
 776               	.LBE117:
 777               	.LBE118:
 824:/home/student/avr_src/SimulIDE_1.0.0-SR1_Lin64/Timer/Timer.c **** 
 825:/home/student/avr_src/SimulIDE_1.0.0-SR1_Lin64/Timer/Timer.c **** }
 778               		.stabn	68,0,825,.LM100-.LFBB9
 779               	.LM100:
 780 0276 0895      		ret
 781               		.size	num2lcdbyte, .-num2lcdbyte
 782               	.Lscope9:
 783               		.stabs	"",36,0,0,.Lscope9-.LFBB9
 784               		.stabd	78,0,0
 785               		.stabs	"write_AT24Cxx_i2c_LCDAddressing:F(0,49)",36,0,827,write_AT24Cxx_i2c_LCDAddressing
 786               		.stabs	"byte:P(0,13)",64,0,827,24
 787               	.global	write_AT24Cxx_i2c_LCDAddressing
 788               		.type	write_AT24Cxx_i2c_LCDAddressing, @function
 789               	write_AT24Cxx_i2c_LCDAddressing:
 790               		.stabd	46,0,0
 826:/home/student/avr_src/SimulIDE_1.0.0-SR1_Lin64/Timer/Timer.c **** //====================================================
 827:/home/student/avr_src/SimulIDE_1.0.0-SR1_Lin64/Timer/Timer.c **** void write_AT24Cxx_i2c_LCDAddressing(unsigned char byte){
 791               		.stabn	68,0,827,.LM101-.LFBB10
 792               	.LM101:
 793               	.LFBB10:
 794               	/* prologue: function */
 795               	/* frame size = 0 */
 796               	/* stack size = 0 */
 797               	.L__stack_usage = 0
 798               	.LBB119:
 799               	.LBB120:
 800               		.stabs	"/usr/lib/avr/include/util/delay.h",132,0,0,.Ltext1
 801               	.Ltext1:
   1:/usr/lib/avr/include/util/delay.h **** /* Copyright (c) 2002, Marek Michalkiewicz
   2:/usr/lib/avr/include/util/delay.h ****    Copyright (c) 2004,2005,2007 Joerg Wunsch
   3:/usr/lib/avr/include/util/delay.h ****    Copyright (c) 2007  Florin-Viorel Petrov
   4:/usr/lib/avr/include/util/delay.h ****    All rights reserved.
   5:/usr/lib/avr/include/util/delay.h **** 
   6:/usr/lib/avr/include/util/delay.h ****    Redistribution and use in source and binary forms, with or without
   7:/usr/lib/avr/include/util/delay.h ****    modification, are permitted provided that the following conditions are met:
   8:/usr/lib/avr/include/util/delay.h **** 
   9:/usr/lib/avr/include/util/delay.h ****    * Redistributions of source code must retain the above copyright
  10:/usr/lib/avr/include/util/delay.h ****      notice, this list of conditions and the following disclaimer.
  11:/usr/lib/avr/include/util/delay.h **** 
  12:/usr/lib/avr/include/util/delay.h ****    * Redistributions in binary form must reproduce the above copyright
  13:/usr/lib/avr/include/util/delay.h ****      notice, this list of conditions and the following disclaimer in
  14:/usr/lib/avr/include/util/delay.h ****      the documentation and/or other materials provided with the
  15:/usr/lib/avr/include/util/delay.h ****      distribution.
  16:/usr/lib/avr/include/util/delay.h **** 
  17:/usr/lib/avr/include/util/delay.h ****    * Neither the name of the copyright holders nor the names of
  18:/usr/lib/avr/include/util/delay.h ****      contributors may be used to endorse or promote products derived
  19:/usr/lib/avr/include/util/delay.h ****      from this software without specific prior written permission.
  20:/usr/lib/avr/include/util/delay.h **** 
  21:/usr/lib/avr/include/util/delay.h ****   THIS SOFTWARE IS PROVIDED BY THE COPYRIGHT HOLDERS AND CONTRIBUTORS "AS IS"
  22:/usr/lib/avr/include/util/delay.h ****   AND ANY EXPRESS OR IMPLIED WARRANTIES, INCLUDING, BUT NOT LIMITED TO, THE
  23:/usr/lib/avr/include/util/delay.h ****   IMPLIED WARRANTIES OF MERCHANTABILITY AND FITNESS FOR A PARTICULAR PURPOSE
  24:/usr/lib/avr/include/util/delay.h ****   ARE DISCLAIMED. IN NO EVENT SHALL THE COPYRIGHT OWNER OR CONTRIBUTORS BE
  25:/usr/lib/avr/include/util/delay.h ****   LIABLE FOR ANY DIRECT, INDIRECT, INCIDENTAL, SPECIAL, EXEMPLARY, OR
  26:/usr/lib/avr/include/util/delay.h ****   CONSEQUENTIAL DAMAGES (INCLUDING, BUT NOT LIMITED TO, PROCUREMENT OF
  27:/usr/lib/avr/include/util/delay.h ****   SUBSTITUTE GOODS OR SERVICES; LOSS OF USE, DATA, OR PROFITS; OR BUSINESS
  28:/usr/lib/avr/include/util/delay.h ****   INTERRUPTION) HOWEVER CAUSED AND ON ANY THEORY OF LIABILITY, WHETHER IN
  29:/usr/lib/avr/include/util/delay.h ****   CONTRACT, STRICT LIABILITY, OR TORT (INCLUDING NEGLIGENCE OR OTHERWISE)
  30:/usr/lib/avr/include/util/delay.h ****   ARISING IN ANY WAY OUT OF THE USE OF THIS SOFTWARE, EVEN IF ADVISED OF THE
  31:/usr/lib/avr/include/util/delay.h ****   POSSIBILITY OF SUCH DAMAGE. */
  32:/usr/lib/avr/include/util/delay.h **** 
  33:/usr/lib/avr/include/util/delay.h **** /* $Id$ */
  34:/usr/lib/avr/include/util/delay.h **** 
  35:/usr/lib/avr/include/util/delay.h **** #ifndef _UTIL_DELAY_H_
  36:/usr/lib/avr/include/util/delay.h **** #define _UTIL_DELAY_H_ 1
  37:/usr/lib/avr/include/util/delay.h **** 
  38:/usr/lib/avr/include/util/delay.h **** #ifndef __DOXYGEN__
  39:/usr/lib/avr/include/util/delay.h **** #  ifndef __HAS_DELAY_CYCLES
  40:/usr/lib/avr/include/util/delay.h **** #    define __HAS_DELAY_CYCLES 1
  41:/usr/lib/avr/include/util/delay.h **** #  endif
  42:/usr/lib/avr/include/util/delay.h **** #endif  /* __DOXYGEN__ */
  43:/usr/lib/avr/include/util/delay.h **** 
  44:/usr/lib/avr/include/util/delay.h **** #include <inttypes.h>
  45:/usr/lib/avr/include/util/delay.h **** #include <util/delay_basic.h>
  46:/usr/lib/avr/include/util/delay.h **** #include <math.h>
  47:/usr/lib/avr/include/util/delay.h **** 
  48:/usr/lib/avr/include/util/delay.h **** /** \file */
  49:/usr/lib/avr/include/util/delay.h **** /** \defgroup util_delay <util/delay.h>: Convenience functions for busy-wait delay loops
  50:/usr/lib/avr/include/util/delay.h ****     \code
  51:/usr/lib/avr/include/util/delay.h ****     #define F_CPU 1000000UL  // 1 MHz
  52:/usr/lib/avr/include/util/delay.h ****     //#define F_CPU 14.7456E6
  53:/usr/lib/avr/include/util/delay.h ****     #include <util/delay.h>
  54:/usr/lib/avr/include/util/delay.h ****     \endcode
  55:/usr/lib/avr/include/util/delay.h **** 
  56:/usr/lib/avr/include/util/delay.h ****     \note As an alternative method, it is possible to pass the
  57:/usr/lib/avr/include/util/delay.h ****     F_CPU macro down to the compiler from the Makefile.
  58:/usr/lib/avr/include/util/delay.h ****     Obviously, in that case, no \c \#define statement should be
  59:/usr/lib/avr/include/util/delay.h ****     used.
  60:/usr/lib/avr/include/util/delay.h **** 
  61:/usr/lib/avr/include/util/delay.h ****     The functions in this header file are wrappers around the basic
  62:/usr/lib/avr/include/util/delay.h ****     busy-wait functions from <util/delay_basic.h>.  They are meant as
  63:/usr/lib/avr/include/util/delay.h ****     convenience functions where actual time values can be specified
  64:/usr/lib/avr/include/util/delay.h ****     rather than a number of cycles to wait for.  The idea behind is
  65:/usr/lib/avr/include/util/delay.h ****     that compile-time constant expressions will be eliminated by
  66:/usr/lib/avr/include/util/delay.h ****     compiler optimization so floating-point expressions can be used
  67:/usr/lib/avr/include/util/delay.h ****     to calculate the number of delay cycles needed based on the CPU
  68:/usr/lib/avr/include/util/delay.h ****     frequency passed by the macro F_CPU.
  69:/usr/lib/avr/include/util/delay.h **** 
  70:/usr/lib/avr/include/util/delay.h ****     \note In order for these functions to work as intended, compiler
  71:/usr/lib/avr/include/util/delay.h ****     optimizations <em>must</em> be enabled, and the delay time
  72:/usr/lib/avr/include/util/delay.h ****     <em>must</em> be an expression that is a known constant at
  73:/usr/lib/avr/include/util/delay.h ****     compile-time.  If these requirements are not met, the resulting
  74:/usr/lib/avr/include/util/delay.h ****     delay will be much longer (and basically unpredictable), and
  75:/usr/lib/avr/include/util/delay.h ****     applications that otherwise do not use floating-point calculations
  76:/usr/lib/avr/include/util/delay.h ****     will experience severe code bloat by the floating-point library
  77:/usr/lib/avr/include/util/delay.h ****     routines linked into the application.
  78:/usr/lib/avr/include/util/delay.h **** 
  79:/usr/lib/avr/include/util/delay.h ****     The functions available allow the specification of microsecond, and
  80:/usr/lib/avr/include/util/delay.h ****     millisecond delays directly, using the application-supplied macro
  81:/usr/lib/avr/include/util/delay.h ****     F_CPU as the CPU clock frequency (in Hertz).
  82:/usr/lib/avr/include/util/delay.h **** 
  83:/usr/lib/avr/include/util/delay.h **** */
  84:/usr/lib/avr/include/util/delay.h **** 
  85:/usr/lib/avr/include/util/delay.h **** #if !defined(__DOXYGEN__)
  86:/usr/lib/avr/include/util/delay.h **** static __inline__ void _delay_us(double __us) __attribute__((__always_inline__));
  87:/usr/lib/avr/include/util/delay.h **** static __inline__ void _delay_ms(double __ms) __attribute__((__always_inline__));
  88:/usr/lib/avr/include/util/delay.h **** #endif
  89:/usr/lib/avr/include/util/delay.h **** 
  90:/usr/lib/avr/include/util/delay.h **** #ifndef F_CPU
  91:/usr/lib/avr/include/util/delay.h **** /* prevent compiler error by supplying a default */
  92:/usr/lib/avr/include/util/delay.h **** # warning "F_CPU not defined for <util/delay.h>"
  93:/usr/lib/avr/include/util/delay.h **** /** \ingroup util_delay
  94:/usr/lib/avr/include/util/delay.h ****     \def F_CPU
  95:/usr/lib/avr/include/util/delay.h ****     \brief CPU frequency in Hz
  96:/usr/lib/avr/include/util/delay.h **** 
  97:/usr/lib/avr/include/util/delay.h ****     The macro F_CPU specifies the CPU frequency to be considered by
  98:/usr/lib/avr/include/util/delay.h ****     the delay macros.  This macro is normally supplied by the
  99:/usr/lib/avr/include/util/delay.h ****     environment (e.g. from within a project header, or the project's
 100:/usr/lib/avr/include/util/delay.h ****     Makefile).  The value 1 MHz here is only provided as a "vanilla"
 101:/usr/lib/avr/include/util/delay.h ****     fallback if no such user-provided definition could be found.
 102:/usr/lib/avr/include/util/delay.h **** 
 103:/usr/lib/avr/include/util/delay.h ****     In terms of the delay functions, the CPU frequency can be given as
 104:/usr/lib/avr/include/util/delay.h ****     a floating-point constant (e.g. 3.6864E6 for 3.6864 MHz).
 105:/usr/lib/avr/include/util/delay.h ****     However, the macros in <util/setbaud.h> require it to be an
 106:/usr/lib/avr/include/util/delay.h ****     integer value.
 107:/usr/lib/avr/include/util/delay.h ****  */
 108:/usr/lib/avr/include/util/delay.h **** # define F_CPU 1000000UL
 109:/usr/lib/avr/include/util/delay.h **** #endif
 110:/usr/lib/avr/include/util/delay.h **** 
 111:/usr/lib/avr/include/util/delay.h **** #ifndef __OPTIMIZE__
 112:/usr/lib/avr/include/util/delay.h **** # warning "Compiler optimizations disabled; functions from <util/delay.h> won't work as designed"
 113:/usr/lib/avr/include/util/delay.h **** #endif
 114:/usr/lib/avr/include/util/delay.h **** 
 115:/usr/lib/avr/include/util/delay.h **** #if __HAS_DELAY_CYCLES && defined(__OPTIMIZE__) && \
 116:/usr/lib/avr/include/util/delay.h ****   !defined(__DELAY_BACKWARD_COMPATIBLE__) &&	   \
 117:/usr/lib/avr/include/util/delay.h ****   __STDC_HOSTED__
 118:/usr/lib/avr/include/util/delay.h **** #  include <math.h>
 119:/usr/lib/avr/include/util/delay.h **** #endif
 120:/usr/lib/avr/include/util/delay.h **** 
 121:/usr/lib/avr/include/util/delay.h **** /**
 122:/usr/lib/avr/include/util/delay.h ****    \ingroup util_delay
 123:/usr/lib/avr/include/util/delay.h **** 
 124:/usr/lib/avr/include/util/delay.h ****    Perform a delay of \c __ms milliseconds, using _delay_loop_2().
 125:/usr/lib/avr/include/util/delay.h **** 
 126:/usr/lib/avr/include/util/delay.h ****    The macro F_CPU is supposed to be defined to a
 127:/usr/lib/avr/include/util/delay.h ****    constant defining the CPU clock frequency (in Hertz).
 128:/usr/lib/avr/include/util/delay.h **** 
 129:/usr/lib/avr/include/util/delay.h ****    The maximal possible delay is 262.14 ms / F_CPU in MHz.
 130:/usr/lib/avr/include/util/delay.h **** 
 131:/usr/lib/avr/include/util/delay.h ****    When the user request delay which exceed the maximum possible one,
 132:/usr/lib/avr/include/util/delay.h ****    _delay_ms() provides a decreased resolution functionality. In this
 133:/usr/lib/avr/include/util/delay.h ****    mode _delay_ms() will work with a resolution of 1/10 ms, providing
 134:/usr/lib/avr/include/util/delay.h ****    delays up to 6.5535 seconds (independent from CPU frequency).  The
 135:/usr/lib/avr/include/util/delay.h ****    user will not be informed about decreased resolution.
 136:/usr/lib/avr/include/util/delay.h **** 
 137:/usr/lib/avr/include/util/delay.h ****    If the avr-gcc toolchain has __builtin_avr_delay_cycles()
 138:/usr/lib/avr/include/util/delay.h ****    support, maximal possible delay is 4294967.295 ms/ F_CPU in MHz. For
 139:/usr/lib/avr/include/util/delay.h ****    values greater than the maximal possible delay, overflows results in
 140:/usr/lib/avr/include/util/delay.h ****    no delay i.e., 0ms.
 141:/usr/lib/avr/include/util/delay.h **** 
 142:/usr/lib/avr/include/util/delay.h ****    Conversion of \c __ms into clock cycles may not always result in
 143:/usr/lib/avr/include/util/delay.h ****    integer.  By default, the clock cycles rounded up to next
 144:/usr/lib/avr/include/util/delay.h ****    integer. This ensures that the user gets at least \c __ms
 145:/usr/lib/avr/include/util/delay.h ****    microseconds of delay.
 146:/usr/lib/avr/include/util/delay.h **** 
 147:/usr/lib/avr/include/util/delay.h ****    Alternatively, by defining the macro \c __DELAY_ROUND_DOWN__, or
 148:/usr/lib/avr/include/util/delay.h ****    \c __DELAY_ROUND_CLOSEST__, before including this header file, the
 149:/usr/lib/avr/include/util/delay.h ****    algorithm can be made to round down, or round to closest integer,
 150:/usr/lib/avr/include/util/delay.h ****    respectively.
 151:/usr/lib/avr/include/util/delay.h **** 
 152:/usr/lib/avr/include/util/delay.h ****    \note
 153:/usr/lib/avr/include/util/delay.h **** 
 154:/usr/lib/avr/include/util/delay.h ****    The implementation of _delay_ms() based on
 155:/usr/lib/avr/include/util/delay.h ****    __builtin_avr_delay_cycles() is not backward compatible with older
 156:/usr/lib/avr/include/util/delay.h ****    implementations.  In order to get functionality backward compatible
 157:/usr/lib/avr/include/util/delay.h ****    with previous versions, the macro \c "__DELAY_BACKWARD_COMPATIBLE__"
 158:/usr/lib/avr/include/util/delay.h ****    must be defined before including this header file. Also, the
 159:/usr/lib/avr/include/util/delay.h ****    backward compatible algorithm will be chosen if the code is
 160:/usr/lib/avr/include/util/delay.h ****    compiled in a <em>freestanding environment</em> (GCC option
 161:/usr/lib/avr/include/util/delay.h ****    \c -ffreestanding), as the math functions required for rounding are
 162:/usr/lib/avr/include/util/delay.h ****    not available to the compiler then.
 163:/usr/lib/avr/include/util/delay.h **** 
 164:/usr/lib/avr/include/util/delay.h ****  */
 165:/usr/lib/avr/include/util/delay.h **** void
 166:/usr/lib/avr/include/util/delay.h **** _delay_ms(double __ms)
 167:/usr/lib/avr/include/util/delay.h **** {
 168:/usr/lib/avr/include/util/delay.h **** 	double __tmp ;
 169:/usr/lib/avr/include/util/delay.h **** #if __HAS_DELAY_CYCLES && defined(__OPTIMIZE__) && \
 170:/usr/lib/avr/include/util/delay.h ****   !defined(__DELAY_BACKWARD_COMPATIBLE__) &&	   \
 171:/usr/lib/avr/include/util/delay.h ****   __STDC_HOSTED__
 172:/usr/lib/avr/include/util/delay.h **** 	uint32_t __ticks_dc;
 173:/usr/lib/avr/include/util/delay.h **** 	extern void __builtin_avr_delay_cycles(unsigned long);
 174:/usr/lib/avr/include/util/delay.h **** 	__tmp = ((F_CPU) / 1e3) * __ms;
 175:/usr/lib/avr/include/util/delay.h **** 
 176:/usr/lib/avr/include/util/delay.h **** 	#if defined(__DELAY_ROUND_DOWN__)
 177:/usr/lib/avr/include/util/delay.h **** 		__ticks_dc = (uint32_t)fabs(__tmp);
 178:/usr/lib/avr/include/util/delay.h **** 
 179:/usr/lib/avr/include/util/delay.h **** 	#elif defined(__DELAY_ROUND_CLOSEST__)
 180:/usr/lib/avr/include/util/delay.h **** 		__ticks_dc = (uint32_t)(fabs(__tmp)+0.5);
 181:/usr/lib/avr/include/util/delay.h **** 
 182:/usr/lib/avr/include/util/delay.h **** 	#else
 183:/usr/lib/avr/include/util/delay.h **** 		//round up by default
 184:/usr/lib/avr/include/util/delay.h **** 		__ticks_dc = (uint32_t)(ceil(fabs(__tmp)));
 185:/usr/lib/avr/include/util/delay.h **** 	#endif
 186:/usr/lib/avr/include/util/delay.h **** 
 187:/usr/lib/avr/include/util/delay.h **** 	__builtin_avr_delay_cycles(__ticks_dc);
 188:/usr/lib/avr/include/util/delay.h **** 
 189:/usr/lib/avr/include/util/delay.h **** #else
 190:/usr/lib/avr/include/util/delay.h **** 	uint16_t __ticks;
 191:/usr/lib/avr/include/util/delay.h **** 	__tmp = ((F_CPU) / 4e3) * __ms;
 192:/usr/lib/avr/include/util/delay.h **** 	if (__tmp < 1.0)
 193:/usr/lib/avr/include/util/delay.h **** 		__ticks = 1;
 194:/usr/lib/avr/include/util/delay.h **** 	else if (__tmp > 65535)
 195:/usr/lib/avr/include/util/delay.h **** 	{
 196:/usr/lib/avr/include/util/delay.h **** 		//	__ticks = requested delay in 1/10 ms
 197:/usr/lib/avr/include/util/delay.h **** 		__ticks = (uint16_t) (__ms * 10.0);
 198:/usr/lib/avr/include/util/delay.h **** 		while(__ticks)
 199:/usr/lib/avr/include/util/delay.h **** 		{
 200:/usr/lib/avr/include/util/delay.h **** 			// wait 1/10 ms
 201:/usr/lib/avr/include/util/delay.h **** 			_delay_loop_2(((F_CPU) / 4e3) / 10);
 202:/usr/lib/avr/include/util/delay.h **** 			__ticks --;
 203:/usr/lib/avr/include/util/delay.h **** 		}
 204:/usr/lib/avr/include/util/delay.h **** 		return;
 205:/usr/lib/avr/include/util/delay.h **** 	}
 206:/usr/lib/avr/include/util/delay.h **** 	else
 207:/usr/lib/avr/include/util/delay.h **** 		__ticks = (uint16_t)__tmp;
 208:/usr/lib/avr/include/util/delay.h **** 	_delay_loop_2(__ticks);
 209:/usr/lib/avr/include/util/delay.h **** #endif
 210:/usr/lib/avr/include/util/delay.h **** }
 211:/usr/lib/avr/include/util/delay.h **** 
 212:/usr/lib/avr/include/util/delay.h **** /**
 213:/usr/lib/avr/include/util/delay.h ****    \ingroup util_delay
 214:/usr/lib/avr/include/util/delay.h **** 
 215:/usr/lib/avr/include/util/delay.h ****    Perform a delay of \c __us microseconds, using _delay_loop_1().
 216:/usr/lib/avr/include/util/delay.h **** 
 217:/usr/lib/avr/include/util/delay.h ****    The macro F_CPU is supposed to be defined to a
 218:/usr/lib/avr/include/util/delay.h ****    constant defining the CPU clock frequency (in Hertz).
 219:/usr/lib/avr/include/util/delay.h **** 
 220:/usr/lib/avr/include/util/delay.h ****    The maximal possible delay is 768 us / F_CPU in MHz.
 221:/usr/lib/avr/include/util/delay.h **** 
 222:/usr/lib/avr/include/util/delay.h ****    If the user requests a delay greater than the maximal possible one,
 223:/usr/lib/avr/include/util/delay.h ****    _delay_us() will automatically call _delay_ms() instead.  The user
 224:/usr/lib/avr/include/util/delay.h ****    will not be informed about this case.
 225:/usr/lib/avr/include/util/delay.h **** 
 226:/usr/lib/avr/include/util/delay.h ****    If the avr-gcc toolchain has __builtin_avr_delay_cycles()
 227:/usr/lib/avr/include/util/delay.h ****    support, maximal possible delay is 4294967.295 us/ F_CPU in MHz. For
 228:/usr/lib/avr/include/util/delay.h ****    values greater than the maximal possible delay, overflow results in
 229:/usr/lib/avr/include/util/delay.h ****    no delay i.e., 0us.
 230:/usr/lib/avr/include/util/delay.h **** 
 231:/usr/lib/avr/include/util/delay.h ****    Conversion of \c __us into clock cycles may not always result in
 232:/usr/lib/avr/include/util/delay.h ****    integer.  By default, the clock cycles rounded up to next
 233:/usr/lib/avr/include/util/delay.h ****    integer. This ensures that the user gets at least \c __us
 234:/usr/lib/avr/include/util/delay.h ****    microseconds of delay.
 235:/usr/lib/avr/include/util/delay.h **** 
 236:/usr/lib/avr/include/util/delay.h ****    Alternatively, by defining the macro \c __DELAY_ROUND_DOWN__, or
 237:/usr/lib/avr/include/util/delay.h ****    \c __DELAY_ROUND_CLOSEST__, before including this header file, the
 238:/usr/lib/avr/include/util/delay.h ****    algorithm can be made to round down, or round to closest integer,
 239:/usr/lib/avr/include/util/delay.h ****    respectively.
 240:/usr/lib/avr/include/util/delay.h **** 
 241:/usr/lib/avr/include/util/delay.h ****    \note
 242:/usr/lib/avr/include/util/delay.h **** 
 243:/usr/lib/avr/include/util/delay.h ****    The implementation of _delay_ms() based on
 244:/usr/lib/avr/include/util/delay.h ****    __builtin_avr_delay_cycles() is not backward compatible with older
 245:/usr/lib/avr/include/util/delay.h ****    implementations.  In order to get functionality backward compatible
 246:/usr/lib/avr/include/util/delay.h ****    with previous versions, the macro \c __DELAY_BACKWARD_COMPATIBLE__
 247:/usr/lib/avr/include/util/delay.h ****    must be defined before including this header file. Also, the
 248:/usr/lib/avr/include/util/delay.h ****    backward compatible algorithm will be chosen if the code is
 249:/usr/lib/avr/include/util/delay.h ****    compiled in a <em>freestanding environment</em> (GCC option
 250:/usr/lib/avr/include/util/delay.h ****    \c -ffreestanding), as the math functions required for rounding are
 251:/usr/lib/avr/include/util/delay.h ****    not available to the compiler then.
 252:/usr/lib/avr/include/util/delay.h **** 
 253:/usr/lib/avr/include/util/delay.h ****  */
 254:/usr/lib/avr/include/util/delay.h **** void
 255:/usr/lib/avr/include/util/delay.h **** _delay_us(double __us)
 256:/usr/lib/avr/include/util/delay.h **** {
 257:/usr/lib/avr/include/util/delay.h **** 	double __tmp ;
 258:/usr/lib/avr/include/util/delay.h **** #if __HAS_DELAY_CYCLES && defined(__OPTIMIZE__) && \
 259:/usr/lib/avr/include/util/delay.h ****   !defined(__DELAY_BACKWARD_COMPATIBLE__) &&	   \
 260:/usr/lib/avr/include/util/delay.h ****   __STDC_HOSTED__
 261:/usr/lib/avr/include/util/delay.h **** 	uint32_t __ticks_dc;
 262:/usr/lib/avr/include/util/delay.h **** 	extern void __builtin_avr_delay_cycles(unsigned long);
 263:/usr/lib/avr/include/util/delay.h **** 	__tmp = ((F_CPU) / 1e6) * __us;
 264:/usr/lib/avr/include/util/delay.h **** 
 265:/usr/lib/avr/include/util/delay.h **** 	#if defined(__DELAY_ROUND_DOWN__)
 266:/usr/lib/avr/include/util/delay.h **** 		__ticks_dc = (uint32_t)fabs(__tmp);
 267:/usr/lib/avr/include/util/delay.h **** 
 268:/usr/lib/avr/include/util/delay.h **** 	#elif defined(__DELAY_ROUND_CLOSEST__)
 269:/usr/lib/avr/include/util/delay.h **** 		__ticks_dc = (uint32_t)(fabs(__tmp)+0.5);
 270:/usr/lib/avr/include/util/delay.h **** 
 271:/usr/lib/avr/include/util/delay.h **** 	#else
 272:/usr/lib/avr/include/util/delay.h **** 		//round up by default
 273:/usr/lib/avr/include/util/delay.h **** 		__ticks_dc = (uint32_t)(ceil(fabs(__tmp)));
 274:/usr/lib/avr/include/util/delay.h **** 	#endif
 275:/usr/lib/avr/include/util/delay.h **** 
 276:/usr/lib/avr/include/util/delay.h **** 	__builtin_avr_delay_cycles(__ticks_dc);
 802               		.stabn	68,0,276,.LM102-.LFBB10
 803               	.LM102:
 804 0278 95E0      		ldi r25,lo8(5)
 805 027a 9A95      	1:	dec r25
 806 027c 01F4      		brne 1b
 807 027e 0000      		nop
 808 0280 28E0      		ldi r18,lo8(8)
 809 0282 30E0      		ldi r19,0
 810               	.L63:
 811               	.LBE120:
 812               	.LBE119:
 813               	.LBB121:
 814               		.stabs	"/home/student/avr_src/SimulIDE_1.0.0-SR1_Lin64/Timer/Timer.c",132,0,0,.Ltext2
 815               	.Ltext2:
 828:/home/student/avr_src/SimulIDE_1.0.0-SR1_Lin64/Timer/Timer.c **** 
 829:/home/student/avr_src/SimulIDE_1.0.0-SR1_Lin64/Timer/Timer.c **** 	_delay_us(1);
 830:/home/student/avr_src/SimulIDE_1.0.0-SR1_Lin64/Timer/Timer.c **** 	for(int i = 0; i <8; i++){
 831:/home/student/avr_src/SimulIDE_1.0.0-SR1_Lin64/Timer/Timer.c **** 		
 832:/home/student/avr_src/SimulIDE_1.0.0-SR1_Lin64/Timer/Timer.c **** 		if(byte & 0x80) AT24Cxx_SDA_HIGH(); //MSB
 816               		.stabn	68,0,832,.LM103-.LFBB10
 817               	.LM103:
 818 0284 87FF      		sbrs r24,7
 819 0286 00C0      		rjmp .L61
 820               		.stabn	68,0,832,.LM104-.LFBB10
 821               	.LM104:
 822 0288 2C9A      		sbi 0x5,4
 823 028a 00C0      		rjmp .L62
 824               	.L61:
 833:/home/student/avr_src/SimulIDE_1.0.0-SR1_Lin64/Timer/Timer.c **** 		else AT24Cxx_SDA_LOW(); //Clear
 825               		.stabn	68,0,833,.LM105-.LFBB10
 826               	.LM105:
 827 028c 2C98      		cbi 0x5,4
 828               	.L62:
 834:/home/student/avr_src/SimulIDE_1.0.0-SR1_Lin64/Timer/Timer.c **** 		
 835:/home/student/avr_src/SimulIDE_1.0.0-SR1_Lin64/Timer/Timer.c **** 		AT24Cxx_SCL_HIGH(); //clock data
 829               		.stabn	68,0,835,.LM106-.LFBB10
 830               	.LM106:
 831 028e 2D9A      		sbi 0x5,5
 836:/home/student/avr_src/SimulIDE_1.0.0-SR1_Lin64/Timer/Timer.c **** 		byte = byte << 1;
 832               		.stabn	68,0,836,.LM107-.LFBB10
 833               	.LM107:
 834 0290 880F      		lsl r24
 835               	.LBB122:
 836               	.LBB123:
 837               		.stabs	"/usr/lib/avr/include/util/delay.h",132,0,0,.Ltext3
 838               	.Ltext3:
 839               		.stabn	68,0,276,.LM108-.LFBB10
 840               	.LM108:
 841 0292 95E0      		ldi r25,lo8(5)
 842 0294 9A95      	1:	dec r25
 843 0296 01F4      		brne 1b
 844 0298 0000      		nop
 845               	.LBE123:
 846               	.LBE122:
 847               		.stabs	"/home/student/avr_src/SimulIDE_1.0.0-SR1_Lin64/Timer/Timer.c",132,0,0,.Ltext4
 848               	.Ltext4:
 837:/home/student/avr_src/SimulIDE_1.0.0-SR1_Lin64/Timer/Timer.c **** 		_delay_us(1);
 838:/home/student/avr_src/SimulIDE_1.0.0-SR1_Lin64/Timer/Timer.c **** 		AT24Cxx_SCL_LOW();
 849               		.stabn	68,0,838,.LM109-.LFBB10
 850               	.LM109:
 851 029a 2D98      		cbi 0x5,5
 852               	.LBB124:
 853               	.LBB125:
 854               		.stabs	"/usr/lib/avr/include/util/delay.h",132,0,0,.Ltext5
 855               	.Ltext5:
 856               		.stabn	68,0,276,.LM110-.LFBB10
 857               	.LM110:
 858 029c 95E0      		ldi r25,lo8(5)
 859 029e 9A95      	1:	dec r25
 860 02a0 01F4      		brne 1b
 861 02a2 0000      		nop
 862 02a4 2150      		subi r18,1
 863 02a6 3109      		sbc r19,__zero_reg__
 864               	.LBE125:
 865               	.LBE124:
 866               		.stabs	"/home/student/avr_src/SimulIDE_1.0.0-SR1_Lin64/Timer/Timer.c",132,0,0,.Ltext6
 867               	.Ltext6:
 830:/home/student/avr_src/SimulIDE_1.0.0-SR1_Lin64/Timer/Timer.c **** 		
 868               		.stabn	68,0,830,.LM111-.LFBB10
 869               	.LM111:
 870 02a8 01F4      		brne .L63
 871               	.LBE121:
 839:/home/student/avr_src/SimulIDE_1.0.0-SR1_Lin64/Timer/Timer.c **** 		_delay_us(1);
 840:/home/student/avr_src/SimulIDE_1.0.0-SR1_Lin64/Timer/Timer.c **** 		
 841:/home/student/avr_src/SimulIDE_1.0.0-SR1_Lin64/Timer/Timer.c **** 	}
 842:/home/student/avr_src/SimulIDE_1.0.0-SR1_Lin64/Timer/Timer.c **** 	AT24Cxx_SDA_LOW();
 872               		.stabn	68,0,842,.LM112-.LFBB10
 873               	.LM112:
 874 02aa 2C98      		cbi 0x5,4
 875               	.LBB126:
 876               	.LBB127:
 877               		.stabs	"/usr/lib/avr/include/util/delay.h",132,0,0,.Ltext7
 878               	.Ltext7:
 879               		.stabn	68,0,276,.LM113-.LFBB10
 880               	.LM113:
 881 02ac 85E0      		ldi r24,lo8(5)
 882 02ae 8A95      	1:	dec r24
 883 02b0 01F4      		brne 1b
 884 02b2 0000      		nop
 885               	.LBE127:
 886               	.LBE126:
 887               		.stabs	"/home/student/avr_src/SimulIDE_1.0.0-SR1_Lin64/Timer/Timer.c",132,0,0,.Ltext8
 888               	.Ltext8:
 843:/home/student/avr_src/SimulIDE_1.0.0-SR1_Lin64/Timer/Timer.c **** 	_delay_us(1);
 844:/home/student/avr_src/SimulIDE_1.0.0-SR1_Lin64/Timer/Timer.c **** 	AT24Cxx_SCL_HIGH();
 889               		.stabn	68,0,844,.LM114-.LFBB10
 890               	.LM114:
 891 02b4 2D9A      		sbi 0x5,5
 892               	.LBB128:
 893               	.LBB129:
 894               		.stabs	"/usr/lib/avr/include/util/delay.h",132,0,0,.Ltext9
 895               	.Ltext9:
 896               		.stabn	68,0,276,.LM115-.LFBB10
 897               	.LM115:
 898 02b6 95E0      		ldi r25,lo8(5)
 899 02b8 9A95      	1:	dec r25
 900 02ba 01F4      		brne 1b
 901 02bc 0000      		nop
 902               	.LBE129:
 903               	.LBE128:
 904               		.stabs	"/home/student/avr_src/SimulIDE_1.0.0-SR1_Lin64/Timer/Timer.c",132,0,0,.Ltext10
 905               	.Ltext10:
 845:/home/student/avr_src/SimulIDE_1.0.0-SR1_Lin64/Timer/Timer.c **** 	_delay_us(1);
 846:/home/student/avr_src/SimulIDE_1.0.0-SR1_Lin64/Timer/Timer.c **** 	AT24Cxx_SCL_LOW();
 906               		.stabn	68,0,846,.LM116-.LFBB10
 907               	.LM116:
 908 02be 2D98      		cbi 0x5,5
 909 02c0 0895      		ret
 910               		.size	write_AT24Cxx_i2c_LCDAddressing, .-write_AT24Cxx_i2c_LCDAddressing
 911               	.Lscope10:
 912               		.stabs	"",36,0,0,.Lscope10-.LFBB10
 913               		.stabd	78,0,0
 914               		.stabs	"AT24Cxx_i2c_start:F(0,49)",36,0,848,AT24Cxx_i2c_start
 915               	.global	AT24Cxx_i2c_start
 916               		.type	AT24Cxx_i2c_start, @function
 917               	AT24Cxx_i2c_start:
 918               		.stabd	46,0,0
 847:/home/student/avr_src/SimulIDE_1.0.0-SR1_Lin64/Timer/Timer.c **** }
 848:/home/student/avr_src/SimulIDE_1.0.0-SR1_Lin64/Timer/Timer.c **** void AT24Cxx_i2c_start(void) { //start condition
 919               		.stabn	68,0,848,.LM117-.LFBB11
 920               	.LM117:
 921               	.LFBB11:
 922               	/* prologue: function */
 923               	/* frame size = 0 */
 924               	/* stack size = 0 */
 925               	.L__stack_usage = 0
 849:/home/student/avr_src/SimulIDE_1.0.0-SR1_Lin64/Timer/Timer.c **** 
 850:/home/student/avr_src/SimulIDE_1.0.0-SR1_Lin64/Timer/Timer.c **** 	AT24Cxx_SDA_LOW(); //clear SDA
 926               		.stabn	68,0,850,.LM118-.LFBB11
 927               	.LM118:
 928 02c2 2C98      		cbi 0x5,4
 929               	.LBB130:
 930               	.LBB131:
 931               		.stabs	"/usr/lib/avr/include/util/delay.h",132,0,0,.Ltext11
 932               	.Ltext11:
 933               		.stabn	68,0,276,.LM119-.LFBB11
 934               	.LM119:
 935 02c4 85E0      		ldi r24,lo8(5)
 936 02c6 8A95      	1:	dec r24
 937 02c8 01F4      		brne 1b
 938 02ca 0000      		nop
 939               	.LBE131:
 940               	.LBE130:
 941               		.stabs	"/home/student/avr_src/SimulIDE_1.0.0-SR1_Lin64/Timer/Timer.c",132,0,0,.Ltext12
 942               	.Ltext12:
 851:/home/student/avr_src/SimulIDE_1.0.0-SR1_Lin64/Timer/Timer.c **** 	_delay_us(1);
 852:/home/student/avr_src/SimulIDE_1.0.0-SR1_Lin64/Timer/Timer.c **** 	AT24Cxx_SCL_LOW();
 943               		.stabn	68,0,852,.LM120-.LFBB11
 944               	.LM120:
 945 02cc 2D98      		cbi 0x5,5
 946               	.LBB132:
 947               	.LBB133:
 948               		.stabs	"/usr/lib/avr/include/util/delay.h",132,0,0,.Ltext13
 949               	.Ltext13:
 950               		.stabn	68,0,276,.LM121-.LFBB11
 951               	.LM121:
 952 02ce 85E0      		ldi r24,lo8(5)
 953 02d0 8A95      	1:	dec r24
 954 02d2 01F4      		brne 1b
 955 02d4 0000      		nop
 956 02d6 0895      		ret
 957               	.LBE133:
 958               	.LBE132:
 959               		.size	AT24Cxx_i2c_start, .-AT24Cxx_i2c_start
 960               	.Lscope11:
 961               		.stabs	"",36,0,0,.Lscope11-.LFBB11
 962               		.stabd	78,0,0
 963               		.stabs	"AT24Cxx_ACK_send:F(0,49)",36,0,856,AT24Cxx_ACK_send
 964               		.stabs	"ack_data:P(0,13)",64,0,856,24
 965               	.global	AT24Cxx_ACK_send
 966               		.type	AT24Cxx_ACK_send, @function
 967               	AT24Cxx_ACK_send:
 968               		.stabd	46,0,0
 969               		.stabs	"/home/student/avr_src/SimulIDE_1.0.0-SR1_Lin64/Timer/Timer.c",132,0,0,.Ltext14
 970               	.Ltext14:
 853:/home/student/avr_src/SimulIDE_1.0.0-SR1_Lin64/Timer/Timer.c **** 	_delay_us(1);
 854:/home/student/avr_src/SimulIDE_1.0.0-SR1_Lin64/Timer/Timer.c **** }
 855:/home/student/avr_src/SimulIDE_1.0.0-SR1_Lin64/Timer/Timer.c **** 
 856:/home/student/avr_src/SimulIDE_1.0.0-SR1_Lin64/Timer/Timer.c **** void AT24Cxx_ACK_send(unsigned char ack_data){
 971               		.stabn	68,0,856,.LM122-.LFBB12
 972               	.LM122:
 973               	.LFBB12:
 974               	/* prologue: function */
 975               	/* frame size = 0 */
 976               	/* stack size = 0 */
 977               	.L__stack_usage = 0
 978               	.LBB134:
 979               	.LBB135:
 980               		.stabs	"/usr/lib/avr/include/util/delay.h",132,0,0,.Ltext15
 981               	.Ltext15:
 982               		.stabn	68,0,276,.LM123-.LFBB12
 983               	.LM123:
 984 02d8 95E0      		ldi r25,lo8(5)
 985 02da 9A95      	1:	dec r25
 986 02dc 01F4      		brne 1b
 987 02de 0000      		nop
 988               	.LBE135:
 989               	.LBE134:
 990               		.stabs	"/home/student/avr_src/SimulIDE_1.0.0-SR1_Lin64/Timer/Timer.c",132,0,0,.Ltext16
 991               	.Ltext16:
 857:/home/student/avr_src/SimulIDE_1.0.0-SR1_Lin64/Timer/Timer.c **** 	_delay_us(1);
 858:/home/student/avr_src/SimulIDE_1.0.0-SR1_Lin64/Timer/Timer.c **** 	if(ack_data) AT24Cxx_SDA_HIGH(); //NACK
 992               		.stabn	68,0,858,.LM124-.LFBB12
 993               	.LM124:
 994 02e0 8823      		tst r24
 995 02e2 01F0      		breq .L67
 996               		.stabn	68,0,858,.LM125-.LFBB12
 997               	.LM125:
 998 02e4 2C9A      		sbi 0x5,4
 999 02e6 00C0      		rjmp .L68
 1000               	.L67:
 859:/home/student/avr_src/SimulIDE_1.0.0-SR1_Lin64/Timer/Timer.c **** 	else AT24Cxx_SDA_LOW(); //ACK
 1001               		.stabn	68,0,859,.LM126-.LFBB12
 1002               	.LM126:
 1003 02e8 2C98      		cbi 0x5,4
 1004               	.L68:
 1005               	.LBB136:
 1006               	.LBB137:
 1007               		.stabs	"/usr/lib/avr/include/util/delay.h",132,0,0,.Ltext17
 1008               	.Ltext17:
 1009               		.stabn	68,0,276,.LM127-.LFBB12
 1010               	.LM127:
 1011 02ea 85E0      		ldi r24,lo8(5)
 1012 02ec 8A95      	1:	dec r24
 1013 02ee 01F4      		brne 1b
 1014 02f0 0000      		nop
 1015               	.LBE137:
 1016               	.LBE136:
 1017               		.stabs	"/home/student/avr_src/SimulIDE_1.0.0-SR1_Lin64/Timer/Timer.c",132,0,0,.Ltext18
 1018               	.Ltext18:
 860:/home/student/avr_src/SimulIDE_1.0.0-SR1_Lin64/Timer/Timer.c **** 	_delay_us(1);
 861:/home/student/avr_src/SimulIDE_1.0.0-SR1_Lin64/Timer/Timer.c **** 	AT24Cxx_SDA_OUT(); //set SDA to Output
 1019               		.stabn	68,0,861,.LM128-.LFBB12
 1020               	.LM128:
 1021 02f2 249A      		sbi 0x4,4
 1022               	.LBB138:
 1023               	.LBB139:
 1024               		.stabs	"/usr/lib/avr/include/util/delay.h",132,0,0,.Ltext19
 1025               	.Ltext19:
 1026               		.stabn	68,0,276,.LM129-.LFBB12
 1027               	.LM129:
 1028 02f4 95E0      		ldi r25,lo8(5)
 1029 02f6 9A95      	1:	dec r25
 1030 02f8 01F4      		brne 1b
 1031 02fa 0000      		nop
 1032               	.LBE139:
 1033               	.LBE138:
 1034               		.stabs	"/home/student/avr_src/SimulIDE_1.0.0-SR1_Lin64/Timer/Timer.c",132,0,0,.Ltext20
 1035               	.Ltext20:
 862:/home/student/avr_src/SimulIDE_1.0.0-SR1_Lin64/Timer/Timer.c **** 	_delay_us(1);
 863:/home/student/avr_src/SimulIDE_1.0.0-SR1_Lin64/Timer/Timer.c **** 	AT24Cxx_SCL_HIGH(); //9th clk rising edge
 1036               		.stabn	68,0,863,.LM130-.LFBB12
 1037               	.LM130:
 1038 02fc 2D9A      		sbi 0x5,5
 1039               	.LBB140:
 1040               	.LBB141:
 1041               		.stabs	"/usr/lib/avr/include/util/delay.h",132,0,0,.Ltext21
 1042               	.Ltext21:
 1043               		.stabn	68,0,276,.LM131-.LFBB12
 1044               	.LM131:
 1045 02fe 85E0      		ldi r24,lo8(5)
 1046 0300 8A95      	1:	dec r24
 1047 0302 01F4      		brne 1b
 1048 0304 0000      		nop
 1049               	.LBE141:
 1050               	.LBE140:
 1051               		.stabs	"/home/student/avr_src/SimulIDE_1.0.0-SR1_Lin64/Timer/Timer.c",132,0,0,.Ltext22
 1052               	.Ltext22:
 864:/home/student/avr_src/SimulIDE_1.0.0-SR1_Lin64/Timer/Timer.c **** 	_delay_us(1);
 865:/home/student/avr_src/SimulIDE_1.0.0-SR1_Lin64/Timer/Timer.c **** 	AT24Cxx_SCL_LOW();
 1053               		.stabn	68,0,865,.LM132-.LFBB12
 1054               	.LM132:
 1055 0306 2D98      		cbi 0x5,5
 1056 0308 0895      		ret
 1057               		.size	AT24Cxx_ACK_send, .-AT24Cxx_ACK_send
 1058               	.Lscope12:
 1059               		.stabs	"",36,0,0,.Lscope12-.LFBB12
 1060               		.stabd	78,0,0
 1061               		.stabs	"AT24Cxx_i2c_stop:F(0,49)",36,0,867,AT24Cxx_i2c_stop
 1062               	.global	AT24Cxx_i2c_stop
 1063               		.type	AT24Cxx_i2c_stop, @function
 1064               	AT24Cxx_i2c_stop:
 1065               		.stabd	46,0,0
 866:/home/student/avr_src/SimulIDE_1.0.0-SR1_Lin64/Timer/Timer.c **** }
 867:/home/student/avr_src/SimulIDE_1.0.0-SR1_Lin64/Timer/Timer.c **** void AT24Cxx_i2c_stop(void){
 1066               		.stabn	68,0,867,.LM133-.LFBB13
 1067               	.LM133:
 1068               	.LFBB13:
 1069               	/* prologue: function */
 1070               	/* frame size = 0 */
 1071               	/* stack size = 0 */
 1072               	.L__stack_usage = 0
 868:/home/student/avr_src/SimulIDE_1.0.0-SR1_Lin64/Timer/Timer.c **** 	//AT24Cxx_SDA_OUT(); //set SDA to output
 869:/home/student/avr_src/SimulIDE_1.0.0-SR1_Lin64/Timer/Timer.c **** 	AT24Cxx_SDA_LOW(); //clear SDA
 1073               		.stabn	68,0,869,.LM134-.LFBB13
 1074               	.LM134:
 1075 030a 2C98      		cbi 0x5,4
 1076               	.LBB142:
 1077               	.LBB143:
 1078               		.stabs	"/usr/lib/avr/include/util/delay.h",132,0,0,.Ltext23
 1079               	.Ltext23:
 1080               		.stabn	68,0,276,.LM135-.LFBB13
 1081               	.LM135:
 1082 030c 85E0      		ldi r24,lo8(5)
 1083 030e 8A95      	1:	dec r24
 1084 0310 01F4      		brne 1b
 1085 0312 0000      		nop
 1086               	.LBE143:
 1087               	.LBE142:
 1088               		.stabs	"/home/student/avr_src/SimulIDE_1.0.0-SR1_Lin64/Timer/Timer.c",132,0,0,.Ltext24
 1089               	.Ltext24:
 870:/home/student/avr_src/SimulIDE_1.0.0-SR1_Lin64/Timer/Timer.c **** 	
 871:/home/student/avr_src/SimulIDE_1.0.0-SR1_Lin64/Timer/Timer.c **** 	_delay_us(1);
 872:/home/student/avr_src/SimulIDE_1.0.0-SR1_Lin64/Timer/Timer.c **** 	AT24Cxx_SCL_HIGH(); // set SCL High
 1090               		.stabn	68,0,872,.LM136-.LFBB13
 1091               	.LM136:
 1092 0314 2D9A      		sbi 0x5,5
 1093               	.LBB144:
 1094               	.LBB145:
 1095               		.stabs	"/usr/lib/avr/include/util/delay.h",132,0,0,.Ltext25
 1096               	.Ltext25:
 1097               		.stabn	68,0,276,.LM137-.LFBB13
 1098               	.LM137:
 1099 0316 85E0      		ldi r24,lo8(5)
 1100 0318 8A95      	1:	dec r24
 1101 031a 01F4      		brne 1b
 1102 031c 0000      		nop
 1103               	.LBE145:
 1104               	.LBE144:
 1105               		.stabs	"/home/student/avr_src/SimulIDE_1.0.0-SR1_Lin64/Timer/Timer.c",132,0,0,.Ltext26
 1106               	.Ltext26:
 873:/home/student/avr_src/SimulIDE_1.0.0-SR1_Lin64/Timer/Timer.c **** 	_delay_us(1);
 874:/home/student/avr_src/SimulIDE_1.0.0-SR1_Lin64/Timer/Timer.c **** 	AT24Cxx_SDA_HIGH(); // set SDA High
 1107               		.stabn	68,0,874,.LM138-.LFBB13
 1108               	.LM138:
 1109 031e 2C9A      		sbi 0x5,4
 1110 0320 0895      		ret
 1111               		.size	AT24Cxx_i2c_stop, .-AT24Cxx_i2c_stop
 1112               	.Lscope13:
 1113               		.stabs	"",36,0,0,.Lscope13-.LFBB13
 1114               		.stabd	78,0,0
 1115               		.stabs	"write_AT24Cxx_i2c_byte:F(0,49)",36,0,876,write_AT24Cxx_i2c_byte
 1116               		.stabs	"byte:P(0,13)",64,0,876,24
 1117               	.global	write_AT24Cxx_i2c_byte
 1118               		.type	write_AT24Cxx_i2c_byte, @function
 1119               	write_AT24Cxx_i2c_byte:
 1120               		.stabd	46,0,0
 875:/home/student/avr_src/SimulIDE_1.0.0-SR1_Lin64/Timer/Timer.c **** }
 876:/home/student/avr_src/SimulIDE_1.0.0-SR1_Lin64/Timer/Timer.c **** void write_AT24Cxx_i2c_byte(unsigned char byte){
 1121               		.stabn	68,0,876,.LM139-.LFBB14
 1122               	.LM139:
 1123               	.LFBB14:
 1124               	/* prologue: function */
 1125               	/* frame size = 0 */
 1126               	/* stack size = 0 */
 1127               	.L__stack_usage = 0
 1128               	.LBB146:
 1129               	.LBB147:
 1130               		.stabs	"/usr/lib/avr/include/util/delay.h",132,0,0,.Ltext27
 1131               	.Ltext27:
 1132               		.stabn	68,0,276,.LM140-.LFBB14
 1133               	.LM140:
 1134 0322 95E0      		ldi r25,lo8(5)
 1135 0324 9A95      	1:	dec r25
 1136 0326 01F4      		brne 1b
 1137 0328 0000      		nop
 1138               	.LBE147:
 1139               	.LBE146:
 1140               		.stabs	"/home/student/avr_src/SimulIDE_1.0.0-SR1_Lin64/Timer/Timer.c",132,0,0,.Ltext28
 1141               	.Ltext28:
 877:/home/student/avr_src/SimulIDE_1.0.0-SR1_Lin64/Timer/Timer.c **** 	_delay_us(1);
 878:/home/student/avr_src/SimulIDE_1.0.0-SR1_Lin64/Timer/Timer.c **** 	if(!(byte & E_BIT)) byte |= E_BIT;
 1142               		.stabn	68,0,878,.LM141-.LFBB14
 1143               	.LM141:
 1144 032a 8460      		ori r24,lo8(4)
 879:/home/student/avr_src/SimulIDE_1.0.0-SR1_Lin64/Timer/Timer.c **** 	if(!(byte & B_BIT)) byte |= B_BIT;
 1145               		.stabn	68,0,879,.LM142-.LFBB14
 1146               	.LM142:
 1147 032c 8860      		ori r24,lo8(8)
 880:/home/student/avr_src/SimulIDE_1.0.0-SR1_Lin64/Timer/Timer.c **** 	write_AT24Cxx_i2c_LCDAddressing(byte);
 1148               		.stabn	68,0,880,.LM143-.LFBB14
 1149               	.LM143:
 1150 032e 0C94 0000 		jmp write_AT24Cxx_i2c_LCDAddressing
 1151               		.size	write_AT24Cxx_i2c_byte, .-write_AT24Cxx_i2c_byte
 1152               	.Lscope14:
 1153               		.stabs	"",36,0,0,.Lscope14-.LFBB14
 1154               		.stabd	78,0,0
 1155               		.stabs	"LCD_Write:F(0,49)",36,0,782,LCD_Write
 1156               		.stabs	"data:P(0,13)",64,0,782,24
 1157               	.global	LCD_Write
 1158               		.type	LCD_Write, @function
 1159               	LCD_Write:
 1160               		.stabd	46,0,0
 782:/home/student/avr_src/SimulIDE_1.0.0-SR1_Lin64/Timer/Timer.c **** 	
 1161               		.stabn	68,0,782,.LM144-.LFBB15
 1162               	.LM144:
 1163               	.LFBB15:
 1164               	/* prologue: function */
 1165               	/* frame size = 0 */
 1166               	/* stack size = 0 */
 1167               	.L__stack_usage = 0
 1168               	.LBB148:
 1169               	.LBB149:
 1170               		.stabs	"/usr/lib/avr/include/util/delay.h",132,0,0,.Ltext29
 1171               	.Ltext29:
 1172               		.stabn	68,0,276,.LM145-.LFBB15
 1173               	.LM145:
 1174 0332 95E0      		ldi r25,lo8(5)
 1175 0334 9A95      	1:	dec r25
 1176 0336 01F4      		brne 1b
 1177 0338 0000      		nop
 1178               	.LBE149:
 1179               	.LBE148:
 1180               		.stabs	"/home/student/avr_src/SimulIDE_1.0.0-SR1_Lin64/Timer/Timer.c",132,0,0,.Ltext30
 1181               	.Ltext30:
 788:/home/student/avr_src/SimulIDE_1.0.0-SR1_Lin64/Timer/Timer.c **** 
 1182               		.stabn	68,0,788,.LM146-.LFBB15
 1183               	.LM146:
 1184 033a 0C94 0000 		jmp write_AT24Cxx_i2c_byte
 1185               		.size	LCD_Write, .-LCD_Write
 1186               	.Lscope15:
 1187               		.stabs	"",36,0,0,.Lscope15-.LFBB15
 1188               		.stabd	78,0,0
 1189               		.stabs	"I2C_LCD_init:F(0,49)",36,0,270,I2C_LCD_init
 1190               		.stabs	"address:P(0,13)",64,0,270,28
 1191               	.global	I2C_LCD_init
 1192               		.type	I2C_LCD_init, @function
 1193               	I2C_LCD_init:
 1194               		.stabd	46,0,0
 270:/home/student/avr_src/SimulIDE_1.0.0-SR1_Lin64/Timer/Timer.c **** 	cli();
 1195               		.stabn	68,0,270,.LM147-.LFBB16
 1196               	.LM147:
 1197               	.LFBB16:
 1198 033e CF93      		push r28
 1199               	/* prologue: function */
 1200               	/* frame size = 0 */
 1201               	/* stack size = 1 */
 1202               	.L__stack_usage = 1
 1203 0340 C82F      		mov r28,r24
 271:/home/student/avr_src/SimulIDE_1.0.0-SR1_Lin64/Timer/Timer.c **** 
 1204               		.stabn	68,0,271,.LM148-.LFBB16
 1205               	.LM148:
 1206               	/* #APP */
 1207               	 ;  271 "/home/student/avr_src/SimulIDE_1.0.0-SR1_Lin64/Timer/Timer.c" 1
 1208 0342 F894      		cli
 1209               	 ;  0 "" 2
 1210               	/* #NOAPP */
 1211               	.LBB150:
 1212               	.LBB151:
 1213               		.stabs	"/usr/lib/avr/include/util/delay.h",132,0,0,.Ltext31
 1214               	.Ltext31:
 187:/usr/lib/avr/include/util/delay.h **** 
 1215               		.stabn	68,0,187,.LM149-.LFBB16
 1216               	.LM149:
 1217 0344 2FEF      		ldi r18,lo8(57599)
 1218 0346 80EE      		ldi r24,hi8(57599)
 1219 0348 90E0      		ldi r25,hlo8(57599)
 1220 034a 2150      	1:	subi r18,1
 1221 034c 8040      		sbci r24,0
 1222 034e 9040      		sbci r25,0
 1223 0350 01F4      		brne 1b
 1224 0352 00C0      		rjmp .
 1225 0354 0000      		nop
 1226               	.LBE151:
 1227               	.LBE150:
 1228               		.stabs	"/home/student/avr_src/SimulIDE_1.0.0-SR1_Lin64/Timer/Timer.c",132,0,0,.Ltext32
 1229               	.Ltext32:
 274:/home/student/avr_src/SimulIDE_1.0.0-SR1_Lin64/Timer/Timer.c **** 	write_AT24Cxx_i2c_LCDAddressing(address  << 1); //write mode
 1230               		.stabn	68,0,274,.LM150-.LFBB16
 1231               	.LM150:
 1232 0356 0E94 0000 		call AT24Cxx_i2c_start
 275:/home/student/avr_src/SimulIDE_1.0.0-SR1_Lin64/Timer/Timer.c **** 	LCD_Write(0x20);
 1233               		.stabn	68,0,275,.LM151-.LFBB16
 1234               	.LM151:
 1235 035a 8C2F      		mov r24,r28
 1236 035c 880F      		lsl r24
 1237 035e 0E94 0000 		call write_AT24Cxx_i2c_LCDAddressing
 276:/home/student/avr_src/SimulIDE_1.0.0-SR1_Lin64/Timer/Timer.c **** 
 1238               		.stabn	68,0,276,.LM152-.LFBB16
 1239               	.LM152:
 1240 0362 80E2      		ldi r24,lo8(32)
 1241 0364 0E94 0000 		call LCD_Write
 1242               	.LBB152:
 1243               	.LBB153:
 1244               		.stabs	"/usr/lib/avr/include/util/delay.h",132,0,0,.Ltext33
 1245               	.Ltext33:
 187:/usr/lib/avr/include/util/delay.h **** 
 1246               		.stabn	68,0,187,.LM153-.LFBB16
 1247               	.LM153:
 1248 0368 8FE3      		ldi r24,lo8(7999)
 1249 036a 9FE1      		ldi r25,hi8(7999)
 1250 036c 0197      	1:	sbiw r24,1
 1251 036e 01F4      		brne 1b
 1252 0370 00C0      		rjmp .
 1253 0372 0000      		nop
 1254               	.LBE153:
 1255               	.LBE152:
 1256               		.stabs	"/home/student/avr_src/SimulIDE_1.0.0-SR1_Lin64/Timer/Timer.c",132,0,0,.Ltext34
 1257               	.Ltext34:
 280:/home/student/avr_src/SimulIDE_1.0.0-SR1_Lin64/Timer/Timer.c **** 	_delay_ms(2);
 1258               		.stabn	68,0,280,.LM154-.LFBB16
 1259               	.LM154:
 1260 0374 80E2      		ldi r24,lo8(32)
 1261 0376 0E94 0000 		call write_AT24Cxx_i2c_LCDAddressing
 1262               	.LBB154:
 1263               	.LBB155:
 1264               		.stabs	"/usr/lib/avr/include/util/delay.h",132,0,0,.Ltext35
 1265               	.Ltext35:
 187:/usr/lib/avr/include/util/delay.h **** 
 1266               		.stabn	68,0,187,.LM155-.LFBB16
 1267               	.LM155:
 1268 037a 8FE3      		ldi r24,lo8(7999)
 1269 037c 9FE1      		ldi r25,hi8(7999)
 1270 037e 0197      	1:	sbiw r24,1
 1271 0380 01F4      		brne 1b
 1272 0382 00C0      		rjmp .
 1273 0384 0000      		nop
 1274               	.LBE155:
 1275               	.LBE154:
 1276               		.stabs	"/home/student/avr_src/SimulIDE_1.0.0-SR1_Lin64/Timer/Timer.c",132,0,0,.Ltext36
 1277               	.Ltext36:
 283:/home/student/avr_src/SimulIDE_1.0.0-SR1_Lin64/Timer/Timer.c **** 	LCD_Write(0x00);
 1278               		.stabn	68,0,283,.LM156-.LFBB16
 1279               	.LM156:
 1280 0386 80E3      		ldi r24,lo8(48)
 1281 0388 0E94 0000 		call write_AT24Cxx_i2c_LCDAddressing
 284:/home/student/avr_src/SimulIDE_1.0.0-SR1_Lin64/Timer/Timer.c **** 	_delay_us(38);
 1282               		.stabn	68,0,284,.LM157-.LFBB16
 1283               	.LM157:
 1284 038c 80E0      		ldi r24,0
 1285 038e 0E94 0000 		call LCD_Write
 1286               	.LBB156:
 1287               	.LBB157:
 1288               		.stabs	"/usr/lib/avr/include/util/delay.h",132,0,0,.Ltext37
 1289               	.Ltext37:
 1290               		.stabn	68,0,276,.LM158-.LFBB16
 1291               	.LM158:
 1292 0392 9AEC      		ldi r25,lo8(-54)
 1293 0394 9A95      	1:	dec r25
 1294 0396 01F4      		brne 1b
 1295 0398 00C0      		rjmp .
 1296               	.LBE157:
 1297               	.LBE156:
 1298               		.stabs	"/home/student/avr_src/SimulIDE_1.0.0-SR1_Lin64/Timer/Timer.c",132,0,0,.Ltext38
 1299               	.Ltext38:
 287:/home/student/avr_src/SimulIDE_1.0.0-SR1_Lin64/Timer/Timer.c **** 	write_AT24Cxx_i2c_LCDAddressing(0x00);
 1300               		.stabn	68,0,287,.LM159-.LFBB16
 1301               	.LM159:
 1302 039a 80E0      		ldi r24,0
 1303 039c 0E94 0000 		call LCD_Write
 288:/home/student/avr_src/SimulIDE_1.0.0-SR1_Lin64/Timer/Timer.c ****     _delay_us(38);
 1304               		.stabn	68,0,288,.LM160-.LFBB16
 1305               	.LM160:
 1306 03a0 80E0      		ldi r24,0
 1307 03a2 0E94 0000 		call write_AT24Cxx_i2c_LCDAddressing
 1308               	.LBB158:
 1309               	.LBB159:
 1310               		.stabs	"/usr/lib/avr/include/util/delay.h",132,0,0,.Ltext39
 1311               	.Ltext39:
 1312               		.stabn	68,0,276,.LM161-.LFBB16
 1313               	.LM161:
 1314 03a6 2AEC      		ldi r18,lo8(-54)
 1315 03a8 2A95      	1:	dec r18
 1316 03aa 01F4      		brne 1b
 1317 03ac 00C0      		rjmp .
 1318               	.LBE159:
 1319               	.LBE158:
 1320               		.stabs	"/home/student/avr_src/SimulIDE_1.0.0-SR1_Lin64/Timer/Timer.c",132,0,0,.Ltext40
 1321               	.Ltext40:
 291:/home/student/avr_src/SimulIDE_1.0.0-SR1_Lin64/Timer/Timer.c **** 	write_AT24Cxx_i2c_LCDAddressing(0xE0);
 1322               		.stabn	68,0,291,.LM162-.LFBB16
 1323               	.LM162:
 1324 03ae 80EE      		ldi r24,lo8(-32)
 1325 03b0 0E94 0000 		call LCD_Write
 292:/home/student/avr_src/SimulIDE_1.0.0-SR1_Lin64/Timer/Timer.c **** 	_delay_us(38);
 1326               		.stabn	68,0,292,.LM163-.LFBB16
 1327               	.LM163:
 1328 03b4 80EE      		ldi r24,lo8(-32)
 1329 03b6 0E94 0000 		call write_AT24Cxx_i2c_LCDAddressing
 1330               	.LBB160:
 1331               	.LBB161:
 1332               		.stabs	"/usr/lib/avr/include/util/delay.h",132,0,0,.Ltext41
 1333               	.Ltext41:
 1334               		.stabn	68,0,276,.LM164-.LFBB16
 1335               	.LM164:
 1336 03ba 8AEC      		ldi r24,lo8(-54)
 1337 03bc 8A95      	1:	dec r24
 1338 03be 01F4      		brne 1b
 1339 03c0 00C0      		rjmp .
 1340               	.LBE161:
 1341               	.LBE160:
 1342               		.stabs	"/home/student/avr_src/SimulIDE_1.0.0-SR1_Lin64/Timer/Timer.c",132,0,0,.Ltext42
 1343               	.Ltext42:
 295:/home/student/avr_src/SimulIDE_1.0.0-SR1_Lin64/Timer/Timer.c **** 	write_AT24Cxx_i2c_LCDAddressing(0x00);
 1344               		.stabn	68,0,295,.LM165-.LFBB16
 1345               	.LM165:
 1346 03c2 80E0      		ldi r24,0
 1347 03c4 0E94 0000 		call LCD_Write
 296:/home/student/avr_src/SimulIDE_1.0.0-SR1_Lin64/Timer/Timer.c **** 	_delay_us(38);
 1348               		.stabn	68,0,296,.LM166-.LFBB16
 1349               	.LM166:
 1350 03c8 80E0      		ldi r24,0
 1351 03ca 0E94 0000 		call write_AT24Cxx_i2c_LCDAddressing
 1352               	.LBB162:
 1353               	.LBB163:
 1354               		.stabs	"/usr/lib/avr/include/util/delay.h",132,0,0,.Ltext43
 1355               	.Ltext43:
 1356               		.stabn	68,0,276,.LM167-.LFBB16
 1357               	.LM167:
 1358 03ce 9AEC      		ldi r25,lo8(-54)
 1359 03d0 9A95      	1:	dec r25
 1360 03d2 01F4      		brne 1b
 1361 03d4 00C0      		rjmp .
 1362               	.LBE163:
 1363               	.LBE162:
 1364               		.stabs	"/home/student/avr_src/SimulIDE_1.0.0-SR1_Lin64/Timer/Timer.c",132,0,0,.Ltext44
 1365               	.Ltext44:
 299:/home/student/avr_src/SimulIDE_1.0.0-SR1_Lin64/Timer/Timer.c **** 	write_AT24Cxx_i2c_LCDAddressing(0x60);
 1366               		.stabn	68,0,299,.LM168-.LFBB16
 1367               	.LM168:
 1368 03d6 80E6      		ldi r24,lo8(96)
 1369 03d8 0E94 0000 		call LCD_Write
 300:/home/student/avr_src/SimulIDE_1.0.0-SR1_Lin64/Timer/Timer.c **** 	_delay_us(38);
 1370               		.stabn	68,0,300,.LM169-.LFBB16
 1371               	.LM169:
 1372 03dc 80E6      		ldi r24,lo8(96)
 1373 03de 0E94 0000 		call write_AT24Cxx_i2c_LCDAddressing
 1374               	.LBB164:
 1375               	.LBB165:
 1376               		.stabs	"/usr/lib/avr/include/util/delay.h",132,0,0,.Ltext45
 1377               	.Ltext45:
 1378               		.stabn	68,0,276,.LM170-.LFBB16
 1379               	.LM170:
 1380 03e2 2AEC      		ldi r18,lo8(-54)
 1381 03e4 2A95      	1:	dec r18
 1382 03e6 01F4      		brne 1b
 1383 03e8 00C0      		rjmp .
 1384               	.LBE165:
 1385               	.LBE164:
 1386               		.stabs	"/home/student/avr_src/SimulIDE_1.0.0-SR1_Lin64/Timer/Timer.c",132,0,0,.Ltext46
 1387               	.Ltext46:
 303:/home/student/avr_src/SimulIDE_1.0.0-SR1_Lin64/Timer/Timer.c ****     _delay_us(40);
 1388               		.stabn	68,0,303,.LM171-.LFBB16
 1389               	.LM171:
 1390 03ea 0E94 0000 		call AT24Cxx_i2c_stop
 1391               	.LBB166:
 1392               	.LBB167:
 1393               		.stabs	"/usr/lib/avr/include/util/delay.h",132,0,0,.Ltext47
 1394               	.Ltext47:
 1395               		.stabn	68,0,276,.LM172-.LFBB16
 1396               	.LM172:
 1397 03ee 85ED      		ldi r24,lo8(-43)
 1398 03f0 8A95      	1:	dec r24
 1399 03f2 01F4      		brne 1b
 1400 03f4 0000      		nop
 1401               	.LBE167:
 1402               	.LBE166:
 1403               		.stabs	"/home/student/avr_src/SimulIDE_1.0.0-SR1_Lin64/Timer/Timer.c",132,0,0,.Ltext48
 1404               	.Ltext48:
 305:/home/student/avr_src/SimulIDE_1.0.0-SR1_Lin64/Timer/Timer.c **** 	
 1405               		.stabn	68,0,305,.LM173-.LFBB16
 1406               	.LM173:
 1407               	/* #APP */
 1408               	 ;  305 "/home/student/avr_src/SimulIDE_1.0.0-SR1_Lin64/Timer/Timer.c" 1
 1409 03f6 7894      		sei
 1410               	 ;  0 "" 2
 1411               	/* epilogue start */
 307:/home/student/avr_src/SimulIDE_1.0.0-SR1_Lin64/Timer/Timer.c **** //====================================================
 1412               		.stabn	68,0,307,.LM174-.LFBB16
 1413               	.LM174:
 1414               	/* #NOAPP */
 1415 03f8 CF91      		pop r28
 1416 03fa 0895      		ret
 1417               		.size	I2C_LCD_init, .-I2C_LCD_init
 1418               	.Lscope16:
 1419               		.stabs	"",36,0,0,.Lscope16-.LFBB16
 1420               		.stabd	78,0,0
 1421               		.stabs	"LCD_CharWrite:F(0,49)",36,0,792,LCD_CharWrite
 1422               	.global	LCD_CharWrite
 1423               		.type	LCD_CharWrite, @function
 1424               	LCD_CharWrite:
 1425               		.stabd	46,0,0
 792:/home/student/avr_src/SimulIDE_1.0.0-SR1_Lin64/Timer/Timer.c **** 	
 1426               		.stabn	68,0,792,.LM175-.LFBB17
 1427               	.LM175:
 1428               	.LFBB17:
 1429 03fc CF93      		push r28
 1430 03fe DF93      		push r29
 1431               	/* prologue: function */
 1432               	/* frame size = 0 */
 1433               	/* stack size = 2 */
 1434               	.L__stack_usage = 2
 1435 0400 EC01      		movw r28,r24
 794:/home/student/avr_src/SimulIDE_1.0.0-SR1_Lin64/Timer/Timer.c **** 
 1436               		.stabn	68,0,794,.LM176-.LFBB17
 1437               	.LM176:
 1438               	/* #APP */
 1439               	 ;  794 "/home/student/avr_src/SimulIDE_1.0.0-SR1_Lin64/Timer/Timer.c" 1
 1440 0402 F894      		cli
 1441               	 ;  0 "" 2
 796:/home/student/avr_src/SimulIDE_1.0.0-SR1_Lin64/Timer/Timer.c **** 	write_AT24Cxx_i2c_LCDAddressing((I2CLCD_ADDR << 1)); 
 1442               		.stabn	68,0,796,.LM177-.LFBB17
 1443               	.LM177:
 1444               	/* #NOAPP */
 1445 0404 0E94 0000 		call AT24Cxx_i2c_start
 797:/home/student/avr_src/SimulIDE_1.0.0-SR1_Lin64/Timer/Timer.c **** 	unsigned char upperbits = byte>>8 & 0xFF;
 1446               		.stabn	68,0,797,.LM178-.LFBB17
 1447               	.LM178:
 1448 0408 8EE4      		ldi r24,lo8(78)
 1449 040a 0E94 0000 		call write_AT24Cxx_i2c_LCDAddressing
 1450               	.LBB168:
 1451               	.LBB169:
 881:/home/student/avr_src/SimulIDE_1.0.0-SR1_Lin64/Timer/Timer.c **** 
 882:/home/student/avr_src/SimulIDE_1.0.0-SR1_Lin64/Timer/Timer.c **** }
 883:/home/student/avr_src/SimulIDE_1.0.0-SR1_Lin64/Timer/Timer.c **** void LCD_NEBIT(unsigned char byte){
 884:/home/student/avr_src/SimulIDE_1.0.0-SR1_Lin64/Timer/Timer.c **** 	write_AT24Cxx_i2c_LCDAddressing(byte);
 1452               		.stabn	68,0,884,.LM179-.LFBB17
 1453               	.LM179:
 1454 040e 8D2F      		mov r24,r29
 1455 0410 0E94 0000 		call write_AT24Cxx_i2c_LCDAddressing
 1456               	.LBE169:
 1457               	.LBE168:
 801:/home/student/avr_src/SimulIDE_1.0.0-SR1_Lin64/Timer/Timer.c **** 	LCD_NEBIT(lowerbits);
 1458               		.stabn	68,0,801,.LM180-.LFBB17
 1459               	.LM180:
 1460 0414 8D2F      		mov r24,r29
 1461 0416 0E94 0000 		call write_AT24Cxx_i2c_byte
 1462               	.LBB170:
 1463               	.LBB171:
 1464               		.stabn	68,0,884,.LM181-.LFBB17
 1465               	.LM181:
 1466 041a 8C2F      		mov r24,r28
 1467 041c 0E94 0000 		call write_AT24Cxx_i2c_LCDAddressing
 1468               	.LBE171:
 1469               	.LBE170:
 803:/home/student/avr_src/SimulIDE_1.0.0-SR1_Lin64/Timer/Timer.c **** 	AT24Cxx_i2c_stop();
 1470               		.stabn	68,0,803,.LM182-.LFBB17
 1471               	.LM182:
 1472 0420 8C2F      		mov r24,r28
 1473 0422 0E94 0000 		call write_AT24Cxx_i2c_byte
 804:/home/student/avr_src/SimulIDE_1.0.0-SR1_Lin64/Timer/Timer.c **** 	sei();
 1474               		.stabn	68,0,804,.LM183-.LFBB17
 1475               	.LM183:
 1476 0426 0E94 0000 		call AT24Cxx_i2c_stop
 805:/home/student/avr_src/SimulIDE_1.0.0-SR1_Lin64/Timer/Timer.c **** }
 1477               		.stabn	68,0,805,.LM184-.LFBB17
 1478               	.LM184:
 1479               	/* #APP */
 1480               	 ;  805 "/home/student/avr_src/SimulIDE_1.0.0-SR1_Lin64/Timer/Timer.c" 1
 1481 042a 7894      		sei
 1482               	 ;  0 "" 2
 1483               	/* epilogue start */
 806:/home/student/avr_src/SimulIDE_1.0.0-SR1_Lin64/Timer/Timer.c **** 
 1484               		.stabn	68,0,806,.LM185-.LFBB17
 1485               	.LM185:
 1486               	/* #NOAPP */
 1487 042c DF91      		pop r29
 1488 042e CF91      		pop r28
 1489 0430 0895      		ret
 1490               		.size	LCD_CharWrite, .-LCD_CharWrite
 1491               	.Lscope17:
 1492               		.stabs	"",36,0,0,.Lscope17-.LFBB17
 1493               		.stabd	78,0,0
 1494               		.stabs	"I2C_LCD_Erase:F(0,49)",36,0,234,I2C_LCD_Erase
 1495               	.global	I2C_LCD_Erase
 1496               		.type	I2C_LCD_Erase, @function
 1497               	I2C_LCD_Erase:
 1498               		.stabd	46,0,0
 234:/home/student/avr_src/SimulIDE_1.0.0-SR1_Lin64/Timer/Timer.c **** 	LCD_CharWrite(0x0040);
 1499               		.stabn	68,0,234,.LM186-.LFBB18
 1500               	.LM186:
 1501               	.LFBB18:
 1502               	/* prologue: function */
 1503               	/* frame size = 0 */
 1504               	/* stack size = 0 */
 1505               	.L__stack_usage = 0
 235:/home/student/avr_src/SimulIDE_1.0.0-SR1_Lin64/Timer/Timer.c **** 	LCD_CharWrite(0xA101);
 1506               		.stabn	68,0,235,.LM187-.LFBB18
 1507               	.LM187:
 1508 0432 80E4      		ldi r24,lo8(64)
 1509 0434 90E0      		ldi r25,0
 1510 0436 0E94 0000 		call LCD_CharWrite
 236:/home/student/avr_src/SimulIDE_1.0.0-SR1_Lin64/Timer/Timer.c ****     LCD_CharWrite(0x0040);
 1511               		.stabn	68,0,236,.LM188-.LFBB18
 1512               	.LM188:
 1513 043a 81E0      		ldi r24,lo8(1)
 1514 043c 91EA      		ldi r25,lo8(-95)
 1515 043e 0E94 0000 		call LCD_CharWrite
 237:/home/student/avr_src/SimulIDE_1.0.0-SR1_Lin64/Timer/Timer.c ****     LCD_CharWrite(0xA101);
 1516               		.stabn	68,0,237,.LM189-.LFBB18
 1517               	.LM189:
 1518 0442 80E4      		ldi r24,lo8(64)
 1519 0444 90E0      		ldi r25,0
 1520 0446 0E94 0000 		call LCD_CharWrite
 238:/home/student/avr_src/SimulIDE_1.0.0-SR1_Lin64/Timer/Timer.c ****     LCD_CharWrite(0x0060);
 1521               		.stabn	68,0,238,.LM190-.LFBB18
 1522               	.LM190:
 1523 044a 81E0      		ldi r24,lo8(1)
 1524 044c 91EA      		ldi r25,lo8(-95)
 1525 044e 0E94 0000 		call LCD_CharWrite
 239:/home/student/avr_src/SimulIDE_1.0.0-SR1_Lin64/Timer/Timer.c **** }
 1526               		.stabn	68,0,239,.LM191-.LFBB18
 1527               	.LM191:
 1528 0452 80E6      		ldi r24,lo8(96)
 1529 0454 90E0      		ldi r25,0
 1530 0456 0C94 0000 		jmp LCD_CharWrite
 1531               		.size	I2C_LCD_Erase, .-I2C_LCD_Erase
 1532               	.Lscope18:
 1533               		.stabs	"",36,0,0,.Lscope18-.LFBB18
 1534               		.stabd	78,0,0
 1535               		.stabs	"I2C_LCD_Reset:F(0,49)",36,0,242,I2C_LCD_Reset
 1536               	.global	I2C_LCD_Reset
 1537               		.type	I2C_LCD_Reset, @function
 1538               	I2C_LCD_Reset:
 1539               		.stabd	46,0,0
 242:/home/student/avr_src/SimulIDE_1.0.0-SR1_Lin64/Timer/Timer.c **** 	cli();
 1540               		.stabn	68,0,242,.LM192-.LFBB19
 1541               	.LM192:
 1542               	.LFBB19:
 1543               	/* prologue: function */
 1544               	/* frame size = 0 */
 1545               	/* stack size = 0 */
 1546               	.L__stack_usage = 0
 243:/home/student/avr_src/SimulIDE_1.0.0-SR1_Lin64/Timer/Timer.c ****     LCD_CharWrite(0x0010);
 1547               		.stabn	68,0,243,.LM193-.LFBB19
 1548               	.LM193:
 1549               	/* #APP */
 1550               	 ;  243 "/home/student/avr_src/SimulIDE_1.0.0-SR1_Lin64/Timer/Timer.c" 1
 1551 045a F894      		cli
 1552               	 ;  0 "" 2
 244:/home/student/avr_src/SimulIDE_1.0.0-SR1_Lin64/Timer/Timer.c **** 	_delay_us(38);
 1553               		.stabn	68,0,244,.LM194-.LFBB19
 1554               	.LM194:
 1555               	/* #NOAPP */
 1556 045c 80E1      		ldi r24,lo8(16)
 1557 045e 90E0      		ldi r25,0
 1558 0460 0E94 0000 		call LCD_CharWrite
 1559               	.LBB172:
 1560               	.LBB173:
 1561               		.stabs	"/usr/lib/avr/include/util/delay.h",132,0,0,.Ltext49
 1562               	.Ltext49:
 1563               		.stabn	68,0,276,.LM195-.LFBB19
 1564               	.LM195:
 1565 0464 8AEC      		ldi r24,lo8(-54)
 1566 0466 8A95      	1:	dec r24
 1567 0468 01F4      		brne 1b
 1568 046a 00C0      		rjmp .
 1569               	.LBE173:
 1570               	.LBE172:
 1571               		.stabs	"/home/student/avr_src/SimulIDE_1.0.0-SR1_Lin64/Timer/Timer.c",132,0,0,.Ltext50
 1572               	.Ltext50:
 246:/home/student/avr_src/SimulIDE_1.0.0-SR1_Lin64/Timer/Timer.c **** 	_delay_us(38);
 1573               		.stabn	68,0,246,.LM196-.LFBB19
 1574               	.LM196:
 1575 046c 80E1      		ldi r24,lo8(16)
 1576 046e 90E0      		ldi r25,0
 1577 0470 0E94 0000 		call LCD_CharWrite
 1578               	.LBB174:
 1579               	.LBB175:
 1580               		.stabs	"/usr/lib/avr/include/util/delay.h",132,0,0,.Ltext51
 1581               	.Ltext51:
 1582               		.stabn	68,0,276,.LM197-.LFBB19
 1583               	.LM197:
 1584 0474 8AEC      		ldi r24,lo8(-54)
 1585 0476 8A95      	1:	dec r24
 1586 0478 01F4      		brne 1b
 1587 047a 00C0      		rjmp .
 1588               	.LBE175:
 1589               	.LBE174:
 1590               		.stabs	"/home/student/avr_src/SimulIDE_1.0.0-SR1_Lin64/Timer/Timer.c",132,0,0,.Ltext52
 1591               	.Ltext52:
 248:/home/student/avr_src/SimulIDE_1.0.0-SR1_Lin64/Timer/Timer.c **** 	_delay_us(38);
 1592               		.stabn	68,0,248,.LM198-.LFBB19
 1593               	.LM198:
 1594 047c 80E3      		ldi r24,lo8(48)
 1595 047e 90E0      		ldi r25,0
 1596 0480 0E94 0000 		call LCD_CharWrite
 1597               	.LBB176:
 1598               	.LBB177:
 1599               		.stabs	"/usr/lib/avr/include/util/delay.h",132,0,0,.Ltext53
 1600               	.Ltext53:
 1601               		.stabn	68,0,276,.LM199-.LFBB19
 1602               	.LM199:
 1603 0484 8AEC      		ldi r24,lo8(-54)
 1604 0486 8A95      	1:	dec r24
 1605 0488 01F4      		brne 1b
 1606 048a 00C0      		rjmp .
 1607               	.LBE177:
 1608               	.LBE176:
 1609               		.stabs	"/home/student/avr_src/SimulIDE_1.0.0-SR1_Lin64/Timer/Timer.c",132,0,0,.Ltext54
 1610               	.Ltext54:
 251:/home/student/avr_src/SimulIDE_1.0.0-SR1_Lin64/Timer/Timer.c **** 	_delay_us(38);
 1611               		.stabn	68,0,251,.LM200-.LFBB19
 1612               	.LM200:
 1613 048c 87E2      		ldi r24,lo8(39)
 1614 048e 0E94 0000 		call I2C_LCD_init
 1615               	.LBB178:
 1616               	.LBB179:
 1617               		.stabs	"/usr/lib/avr/include/util/delay.h",132,0,0,.Ltext55
 1618               	.Ltext55:
 1619               		.stabn	68,0,276,.LM201-.LFBB19
 1620               	.LM201:
 1621 0492 8AEC      		ldi r24,lo8(-54)
 1622 0494 8A95      	1:	dec r24
 1623 0496 01F4      		brne 1b
 1624 0498 00C0      		rjmp .
 1625               	.LBE179:
 1626               	.LBE178:
 1627               		.stabs	"/home/student/avr_src/SimulIDE_1.0.0-SR1_Lin64/Timer/Timer.c",132,0,0,.Ltext56
 1628               	.Ltext56:
 254:/home/student/avr_src/SimulIDE_1.0.0-SR1_Lin64/Timer/Timer.c **** 	_delay_us(38);
 1629               		.stabn	68,0,254,.LM202-.LFBB19
 1630               	.LM202:
 1631 049a 80E1      		ldi r24,lo8(16)
 1632 049c 90E0      		ldi r25,0
 1633 049e 0E94 0000 		call LCD_CharWrite
 1634               	.LBB180:
 1635               	.LBB181:
 1636               		.stabs	"/usr/lib/avr/include/util/delay.h",132,0,0,.Ltext57
 1637               	.Ltext57:
 1638               		.stabn	68,0,276,.LM203-.LFBB19
 1639               	.LM203:
 1640 04a2 8AEC      		ldi r24,lo8(-54)
 1641 04a4 8A95      	1:	dec r24
 1642 04a6 01F4      		brne 1b
 1643 04a8 00C0      		rjmp .
 1644               	.LBE181:
 1645               	.LBE180:
 1646               		.stabs	"/home/student/avr_src/SimulIDE_1.0.0-SR1_Lin64/Timer/Timer.c",132,0,0,.Ltext58
 1647               	.Ltext58:
 256:/home/student/avr_src/SimulIDE_1.0.0-SR1_Lin64/Timer/Timer.c **** 
 1648               		.stabn	68,0,256,.LM204-.LFBB19
 1649               	.LM204:
 1650 04aa 80E3      		ldi r24,lo8(48)
 1651 04ac 90E0      		ldi r25,0
 1652 04ae 0E94 0000 		call LCD_CharWrite
 1653               	.LBB182:
 1654               	.LBB183:
 1655               		.stabs	"/usr/lib/avr/include/util/delay.h",132,0,0,.Ltext59
 1656               	.Ltext59:
 1657               		.stabn	68,0,276,.LM205-.LFBB19
 1658               	.LM205:
 1659 04b2 8AEC      		ldi r24,lo8(-54)
 1660 04b4 8A95      	1:	dec r24
 1661 04b6 01F4      		brne 1b
 1662 04b8 00C0      		rjmp .
 1663               	.LBE183:
 1664               	.LBE182:
 1665               		.stabs	"/home/student/avr_src/SimulIDE_1.0.0-SR1_Lin64/Timer/Timer.c",132,0,0,.Ltext60
 1666               	.Ltext60:
 260:/home/student/avr_src/SimulIDE_1.0.0-SR1_Lin64/Timer/Timer.c **** 	_delay_us(38);
 1667               		.stabn	68,0,260,.LM206-.LFBB19
 1668               	.LM206:
 1669 04ba 87E2      		ldi r24,lo8(39)
 1670 04bc 0E94 0000 		call I2C_LCD_init
 1671               	.LBB184:
 1672               	.LBB185:
 1673               		.stabs	"/usr/lib/avr/include/util/delay.h",132,0,0,.Ltext61
 1674               	.Ltext61:
 1675               		.stabn	68,0,276,.LM207-.LFBB19
 1676               	.LM207:
 1677 04c0 8AEC      		ldi r24,lo8(-54)
 1678 04c2 8A95      	1:	dec r24
 1679 04c4 01F4      		brne 1b
 1680 04c6 00C0      		rjmp .
 1681               	.LBE185:
 1682               	.LBE184:
 1683               		.stabs	"/home/student/avr_src/SimulIDE_1.0.0-SR1_Lin64/Timer/Timer.c",132,0,0,.Ltext62
 1684               	.Ltext62:
 262:/home/student/avr_src/SimulIDE_1.0.0-SR1_Lin64/Timer/Timer.c **** 	LCD_CharWrite(0x20C0);
 1685               		.stabn	68,0,262,.LM208-.LFBB19
 1686               	.LM208:
 1687 04c8 87E2      		ldi r24,lo8(39)
 1688 04ca 0E94 0000 		call I2C_LCD_init
 263:/home/student/avr_src/SimulIDE_1.0.0-SR1_Lin64/Timer/Timer.c **** 	LCD_CharWrite(0x0020);
 1689               		.stabn	68,0,263,.LM209-.LFBB19
 1690               	.LM209:
 1691 04ce 80EC      		ldi r24,lo8(-64)
 1692 04d0 90E2      		ldi r25,lo8(32)
 1693 04d2 0E94 0000 		call LCD_CharWrite
 264:/home/student/avr_src/SimulIDE_1.0.0-SR1_Lin64/Timer/Timer.c **** 	I2C_LCD_init(0x27);
 1694               		.stabn	68,0,264,.LM210-.LFBB19
 1695               	.LM210:
 1696 04d6 80E2      		ldi r24,lo8(32)
 1697 04d8 90E0      		ldi r25,0
 1698 04da 0E94 0000 		call LCD_CharWrite
 265:/home/student/avr_src/SimulIDE_1.0.0-SR1_Lin64/Timer/Timer.c ****     
 1699               		.stabn	68,0,265,.LM211-.LFBB19
 1700               	.LM211:
 1701 04de 87E2      		ldi r24,lo8(39)
 1702 04e0 0E94 0000 		call I2C_LCD_init
 267:/home/student/avr_src/SimulIDE_1.0.0-SR1_Lin64/Timer/Timer.c ****     LCD_CharWrite(0x00C0);
 1703               		.stabn	68,0,267,.LM212-.LFBB19
 1704               	.LM212:
 1705               	/* #APP */
 1706               	 ;  267 "/home/student/avr_src/SimulIDE_1.0.0-SR1_Lin64/Timer/Timer.c" 1
 1707 04e4 7894      		sei
 1708               	 ;  0 "" 2
 268:/home/student/avr_src/SimulIDE_1.0.0-SR1_Lin64/Timer/Timer.c **** }
 1709               		.stabn	68,0,268,.LM213-.LFBB19
 1710               	.LM213:
 1711               	/* #NOAPP */
 1712 04e6 80EC      		ldi r24,lo8(-64)
 1713 04e8 90E0      		ldi r25,0
 1714 04ea 0C94 0000 		jmp LCD_CharWrite
 1715               		.size	I2C_LCD_Reset, .-I2C_LCD_Reset
 1716               	.Lscope19:
 1717               		.stabs	"",36,0,0,.Lscope19-.LFBB19
 1718               		.stabd	78,0,0
 1719               		.stabs	"I2C_LCD_MoveLeft:F(0,49)",36,0,431,I2C_LCD_MoveLeft
 1720               		.stabs	"cnt:P(0,13)",64,0,431,28
 1721               	.global	I2C_LCD_MoveLeft
 1722               		.type	I2C_LCD_MoveLeft, @function
 1723               	I2C_LCD_MoveLeft:
 1724               		.stabd	46,0,0
 431:/home/student/avr_src/SimulIDE_1.0.0-SR1_Lin64/Timer/Timer.c **** 	
 1725               		.stabn	68,0,431,.LM214-.LFBB20
 1726               	.LM214:
 1727               	.LFBB20:
 1728 04ee CF93      		push r28
 1729               	/* prologue: function */
 1730               	/* frame size = 0 */
 1731               	/* stack size = 1 */
 1732               	.L__stack_usage = 1
 1733 04f0 C82F      		mov r28,r24
 1734               	.L79:
 433:/home/student/avr_src/SimulIDE_1.0.0-SR1_Lin64/Timer/Timer.c **** 		LCD_CharWrite(0x1000);
 1735               		.stabn	68,0,433,.LM215-.LFBB20
 1736               	.LM215:
 1737 04f2 CC23      		tst r28
 1738 04f4 01F0      		breq .L81
 434:/home/student/avr_src/SimulIDE_1.0.0-SR1_Lin64/Timer/Timer.c **** 		cnt--;
 1739               		.stabn	68,0,434,.LM216-.LFBB20
 1740               	.LM216:
 1741 04f6 80E0      		ldi r24,0
 1742 04f8 90E1      		ldi r25,lo8(16)
 1743 04fa 0E94 0000 		call LCD_CharWrite
 435:/home/student/avr_src/SimulIDE_1.0.0-SR1_Lin64/Timer/Timer.c **** 	}
 1744               		.stabn	68,0,435,.LM217-.LFBB20
 1745               	.LM217:
 1746 04fe C150      		subi r28,lo8(-(-1))
 1747 0500 00C0      		rjmp .L79
 1748               	.L81:
 437:/home/student/avr_src/SimulIDE_1.0.0-SR1_Lin64/Timer/Timer.c ****     LCD_CharWrite(0x00E0); //must add current state
 1749               		.stabn	68,0,437,.LM218-.LFBB20
 1750               	.LM218:
 1751 0502 80E6      		ldi r24,lo8(96)
 1752 0504 90E0      		ldi r25,0
 1753 0506 0E94 0000 		call LCD_CharWrite
 438:/home/student/avr_src/SimulIDE_1.0.0-SR1_Lin64/Timer/Timer.c **** }
 1754               		.stabn	68,0,438,.LM219-.LFBB20
 1755               	.LM219:
 1756 050a 80EE      		ldi r24,lo8(-32)
 1757 050c 90E0      		ldi r25,0
 1758               	/* epilogue start */
 439:/home/student/avr_src/SimulIDE_1.0.0-SR1_Lin64/Timer/Timer.c **** 
 1759               		.stabn	68,0,439,.LM220-.LFBB20
 1760               	.LM220:
 1761 050e CF91      		pop r28
 438:/home/student/avr_src/SimulIDE_1.0.0-SR1_Lin64/Timer/Timer.c **** }
 1762               		.stabn	68,0,438,.LM221-.LFBB20
 1763               	.LM221:
 1764 0510 0C94 0000 		jmp LCD_CharWrite
 1765               		.size	I2C_LCD_MoveLeft, .-I2C_LCD_MoveLeft
 1766               	.Lscope20:
 1767               		.stabs	"",36,0,0,.Lscope20-.LFBB20
 1768               		.stabd	78,0,0
 1769               		.stabs	"TIME_SETTING:F(0,49)",36,0,164,TIME_SETTING
 1770               		.stabs	"m:P(0,13)",64,0,164,24
 1771               		.stabs	"s:P(0,13)",64,0,164,22
 1772               	.global	TIME_SETTING
 1773               		.type	TIME_SETTING, @function
 1774               	TIME_SETTING:
 1775               		.stabd	46,0,0
 164:/home/student/avr_src/SimulIDE_1.0.0-SR1_Lin64/Timer/Timer.c **** 
 1776               		.stabn	68,0,164,.LM222-.LFBB21
 1777               	.LM222:
 1778               	.LFBB21:
 1779 0514 0F93      		push r16
 1780 0516 1F93      		push r17
 1781 0518 CF93      		push r28
 1782 051a DF93      		push r29
 1783               	/* prologue: function */
 1784               	/* frame size = 0 */
 1785               	/* stack size = 4 */
 1786               	.L__stack_usage = 4
 170:/home/student/avr_src/SimulIDE_1.0.0-SR1_Lin64/Timer/Timer.c **** 	sec = s;
 1787               		.stabn	68,0,170,.LM223-.LFBB21
 1788               	.LM223:
 1789 051c 8093 0000 		sts min,r24
 171:/home/student/avr_src/SimulIDE_1.0.0-SR1_Lin64/Timer/Timer.c **** 
 1790               		.stabn	68,0,171,.LM224-.LFBB21
 1791               	.LM224:
 1792 0520 6093 0000 		sts sec,r22
 174:/home/student/avr_src/SimulIDE_1.0.0-SR1_Lin64/Timer/Timer.c **** 		min_tmp[0] = min / 10;
 1793               		.stabn	68,0,174,.LM225-.LFBB21
 1794               	.LM225:
 1795 0524 8091 0000 		lds r24,min
 1796 0528 8A30      		cpi r24,lo8(10)
 1797 052a 00F0      		brlo .L83
 175:/home/student/avr_src/SimulIDE_1.0.0-SR1_Lin64/Timer/Timer.c **** 		min_tmp[1] = min % 10;
 1798               		.stabn	68,0,175,.LM226-.LFBB21
 1799               	.LM226:
 1800 052c 8091 0000 		lds r24,min
 1801 0530 2AE0      		ldi r18,lo8(10)
 1802 0532 622F      		mov r22,r18
 1803 0534 0E94 0000 		call __udivmodqi4
 1804 0538 082F      		mov r16,r24
 176:/home/student/avr_src/SimulIDE_1.0.0-SR1_Lin64/Timer/Timer.c **** 	}
 1805               		.stabn	68,0,176,.LM227-.LFBB21
 1806               	.LM227:
 1807 053a 8091 0000 		lds r24,min
 1808 053e 0E94 0000 		call __udivmodqi4
 1809 0542 192F      		mov r17,r25
 1810 0544 00C0      		rjmp .L84
 1811               	.L83:
 180:/home/student/avr_src/SimulIDE_1.0.0-SR1_Lin64/Timer/Timer.c **** 	}
 1812               		.stabn	68,0,180,.LM228-.LFBB21
 1813               	.LM228:
 1814 0546 8091 0000 		lds r24,min
 1815 054a 6AE0      		ldi r22,lo8(10)
 1816 054c 0E94 0000 		call __udivmodqi4
 1817 0550 192F      		mov r17,r25
 179:/home/student/avr_src/SimulIDE_1.0.0-SR1_Lin64/Timer/Timer.c **** 		min_tmp[1] = min % 10;
 1818               		.stabn	68,0,179,.LM229-.LFBB21
 1819               	.LM229:
 1820 0552 00E0      		ldi r16,0
 1821               	.L84:
 183:/home/student/avr_src/SimulIDE_1.0.0-SR1_Lin64/Timer/Timer.c **** 		sec_tmp[0] = sec / 10;
 1822               		.stabn	68,0,183,.LM230-.LFBB21
 1823               	.LM230:
 1824 0554 8091 0000 		lds r24,sec
 1825 0558 8A30      		cpi r24,lo8(10)
 1826 055a 00F0      		brlo .L85
 184:/home/student/avr_src/SimulIDE_1.0.0-SR1_Lin64/Timer/Timer.c **** 		sec_tmp[1] = sec % 10;
 1827               		.stabn	68,0,184,.LM231-.LFBB21
 1828               	.LM231:
 1829 055c 8091 0000 		lds r24,sec
 1830 0560 2AE0      		ldi r18,lo8(10)
 1831 0562 622F      		mov r22,r18
 1832 0564 0E94 0000 		call __udivmodqi4
 1833 0568 D82F      		mov r29,r24
 185:/home/student/avr_src/SimulIDE_1.0.0-SR1_Lin64/Timer/Timer.c **** 	}
 1834               		.stabn	68,0,185,.LM232-.LFBB21
 1835               	.LM232:
 1836 056a 8091 0000 		lds r24,sec
 1837 056e 0E94 0000 		call __udivmodqi4
 1838 0572 C92F      		mov r28,r25
 1839 0574 00C0      		rjmp .L86
 1840               	.L85:
 189:/home/student/avr_src/SimulIDE_1.0.0-SR1_Lin64/Timer/Timer.c **** 	}
 1841               		.stabn	68,0,189,.LM233-.LFBB21
 1842               	.LM233:
 1843 0576 8091 0000 		lds r24,sec
 1844 057a 6AE0      		ldi r22,lo8(10)
 1845 057c 0E94 0000 		call __udivmodqi4
 1846 0580 C92F      		mov r28,r25
 188:/home/student/avr_src/SimulIDE_1.0.0-SR1_Lin64/Timer/Timer.c **** 		sec_tmp[1] = sec % 10;
 1847               		.stabn	68,0,188,.LM234-.LFBB21
 1848               	.LM234:
 1849 0582 D0E0      		ldi r29,0
 1850               	.L86:
 192:/home/student/avr_src/SimulIDE_1.0.0-SR1_Lin64/Timer/Timer.c ****     LCD_CharWrite(0x2101);
 1851               		.stabn	68,0,192,.LM235-.LFBB21
 1852               	.LM235:
 1853 0584 0E94 0000 		call I2C_LCD_Reset
 193:/home/student/avr_src/SimulIDE_1.0.0-SR1_Lin64/Timer/Timer.c ****     LCD_CharWrite(0x2101);
 1854               		.stabn	68,0,193,.LM236-.LFBB21
 1855               	.LM236:
 1856 0588 81E0      		ldi r24,lo8(1)
 1857 058a 91E2      		ldi r25,lo8(33)
 1858 058c 0E94 0000 		call LCD_CharWrite
 194:/home/student/avr_src/SimulIDE_1.0.0-SR1_Lin64/Timer/Timer.c ****     LCD_CharWrite(0x2101);
 1859               		.stabn	68,0,194,.LM237-.LFBB21
 1860               	.LM237:
 1861 0590 81E0      		ldi r24,lo8(1)
 1862 0592 91E2      		ldi r25,lo8(33)
 1863 0594 0E94 0000 		call LCD_CharWrite
 195:/home/student/avr_src/SimulIDE_1.0.0-SR1_Lin64/Timer/Timer.c ****     LCD_CharWrite(0x2101);
 1864               		.stabn	68,0,195,.LM238-.LFBB21
 1865               	.LM238:
 1866 0598 81E0      		ldi r24,lo8(1)
 1867 059a 91E2      		ldi r25,lo8(33)
 1868 059c 0E94 0000 		call LCD_CharWrite
 196:/home/student/avr_src/SimulIDE_1.0.0-SR1_Lin64/Timer/Timer.c ****     LCD_CharWrite(num2lcdbyte(min_tmp[0]));
 1869               		.stabn	68,0,196,.LM239-.LFBB21
 1870               	.LM239:
 1871 05a0 81E0      		ldi r24,lo8(1)
 1872 05a2 91E2      		ldi r25,lo8(33)
 1873 05a4 0E94 0000 		call LCD_CharWrite
 197:/home/student/avr_src/SimulIDE_1.0.0-SR1_Lin64/Timer/Timer.c ****     LCD_CharWrite(num2lcdbyte(min_tmp[1]));
 1874               		.stabn	68,0,197,.LM240-.LFBB21
 1875               	.LM240:
 1876 05a8 802F      		mov r24,r16
 1877 05aa 0E94 0000 		call num2lcdbyte
 1878 05ae 0E94 0000 		call LCD_CharWrite
 198:/home/student/avr_src/SimulIDE_1.0.0-SR1_Lin64/Timer/Timer.c **** 	LCD_CharWrite(0x31A1);
 1879               		.stabn	68,0,198,.LM241-.LFBB21
 1880               	.LM241:
 1881 05b2 812F      		mov r24,r17
 1882 05b4 0E94 0000 		call num2lcdbyte
 1883 05b8 0E94 0000 		call LCD_CharWrite
 199:/home/student/avr_src/SimulIDE_1.0.0-SR1_Lin64/Timer/Timer.c ****     LCD_CharWrite(num2lcdbyte(sec_tmp[0]));
 1884               		.stabn	68,0,199,.LM242-.LFBB21
 1885               	.LM242:
 1886 05bc 81EA      		ldi r24,lo8(-95)
 1887 05be 91E3      		ldi r25,lo8(49)
 1888 05c0 0E94 0000 		call LCD_CharWrite
 200:/home/student/avr_src/SimulIDE_1.0.0-SR1_Lin64/Timer/Timer.c ****     LCD_CharWrite(num2lcdbyte(sec_tmp[1]));
 1889               		.stabn	68,0,200,.LM243-.LFBB21
 1890               	.LM243:
 1891 05c4 8D2F      		mov r24,r29
 1892 05c6 0E94 0000 		call num2lcdbyte
 1893 05ca 0E94 0000 		call LCD_CharWrite
 201:/home/student/avr_src/SimulIDE_1.0.0-SR1_Lin64/Timer/Timer.c ****     LCD_CharWrite(0x31A1);
 1894               		.stabn	68,0,201,.LM244-.LFBB21
 1895               	.LM244:
 1896 05ce 8C2F      		mov r24,r28
 1897 05d0 0E94 0000 		call num2lcdbyte
 1898 05d4 0E94 0000 		call LCD_CharWrite
 202:/home/student/avr_src/SimulIDE_1.0.0-SR1_Lin64/Timer/Timer.c ****     LCD_CharWrite(num2lcdbyte(0));
 1899               		.stabn	68,0,202,.LM245-.LFBB21
 1900               	.LM245:
 1901 05d8 81EA      		ldi r24,lo8(-95)
 1902 05da 91E3      		ldi r25,lo8(49)
 1903 05dc 0E94 0000 		call LCD_CharWrite
 203:/home/student/avr_src/SimulIDE_1.0.0-SR1_Lin64/Timer/Timer.c ****     LCD_CharWrite(num2lcdbyte(0));
 1904               		.stabn	68,0,203,.LM246-.LFBB21
 1905               	.LM246:
 1906 05e0 81E0      		ldi r24,lo8(1)
 1907 05e2 91E3      		ldi r25,lo8(49)
 1908 05e4 0E94 0000 		call LCD_CharWrite
 204:/home/student/avr_src/SimulIDE_1.0.0-SR1_Lin64/Timer/Timer.c **** 	LCD_CharWrite(0x00C0);
 1909               		.stabn	68,0,204,.LM247-.LFBB21
 1910               	.LM247:
 1911 05e8 81E0      		ldi r24,lo8(1)
 1912 05ea 91E3      		ldi r25,lo8(49)
 1913 05ec 0E94 0000 		call LCD_CharWrite
 205:/home/student/avr_src/SimulIDE_1.0.0-SR1_Lin64/Timer/Timer.c **** 	I2C_LCD_MoveLeft(4);
 1914               		.stabn	68,0,205,.LM248-.LFBB21
 1915               	.LM248:
 1916 05f0 80EC      		ldi r24,lo8(-64)
 1917 05f2 90E0      		ldi r25,0
 1918 05f4 0E94 0000 		call LCD_CharWrite
 206:/home/student/avr_src/SimulIDE_1.0.0-SR1_Lin64/Timer/Timer.c **** 	cp.x = 9;
 1919               		.stabn	68,0,206,.LM249-.LFBB21
 1920               	.LM249:
 1921 05f8 84E0      		ldi r24,lo8(4)
 1922 05fa 0E94 0000 		call I2C_LCD_MoveLeft
 207:/home/student/avr_src/SimulIDE_1.0.0-SR1_Lin64/Timer/Timer.c **** }
 1923               		.stabn	68,0,207,.LM250-.LFBB21
 1924               	.LM250:
 1925 05fe 89E0      		ldi r24,lo8(9)
 1926 0600 90E0      		ldi r25,0
 1927 0602 9093 0000 		sts cp+1,r25
 1928 0606 8093 0000 		sts cp,r24
 1929               	/* epilogue start */
 208:/home/student/avr_src/SimulIDE_1.0.0-SR1_Lin64/Timer/Timer.c **** //===================================================
 1930               		.stabn	68,0,208,.LM251-.LFBB21
 1931               	.LM251:
 1932 060a DF91      		pop r29
 1933 060c CF91      		pop r28
 1934 060e 1F91      		pop r17
 1935 0610 0F91      		pop r16
 1936 0612 0895      		ret
 1937               		.size	TIME_SETTING, .-TIME_SETTING
 1938               	.Lscope21:
 1939               		.stabs	"",36,0,0,.Lscope21-.LFBB21
 1940               		.stabd	78,0,0
 1941               		.stabs	"I2C_Timer_Default:F(0,49)",36,0,309,I2C_Timer_Default
 1942               	.global	I2C_Timer_Default
 1943               		.type	I2C_Timer_Default, @function
 1944               	I2C_Timer_Default:
 1945               		.stabd	46,0,0
 309:/home/student/avr_src/SimulIDE_1.0.0-SR1_Lin64/Timer/Timer.c **** 	I2C_LCD_Reset();
 1946               		.stabn	68,0,309,.LM252-.LFBB22
 1947               	.LM252:
 1948               	.LFBB22:
 1949               	/* prologue: function */
 1950               	/* frame size = 0 */
 1951               	/* stack size = 0 */
 1952               	.L__stack_usage = 0
 310:/home/student/avr_src/SimulIDE_1.0.0-SR1_Lin64/Timer/Timer.c ****     LCD_CharWrite(0x2101);
 1953               		.stabn	68,0,310,.LM253-.LFBB22
 1954               	.LM253:
 1955 0614 0E94 0000 		call I2C_LCD_Reset
 311:/home/student/avr_src/SimulIDE_1.0.0-SR1_Lin64/Timer/Timer.c ****     LCD_CharWrite(0x2101);
 1956               		.stabn	68,0,311,.LM254-.LFBB22
 1957               	.LM254:
 1958 0618 81E0      		ldi r24,lo8(1)
 1959 061a 91E2      		ldi r25,lo8(33)
 1960 061c 0E94 0000 		call LCD_CharWrite
 312:/home/student/avr_src/SimulIDE_1.0.0-SR1_Lin64/Timer/Timer.c ****     LCD_CharWrite(0x2101);
 1961               		.stabn	68,0,312,.LM255-.LFBB22
 1962               	.LM255:
 1963 0620 81E0      		ldi r24,lo8(1)
 1964 0622 91E2      		ldi r25,lo8(33)
 1965 0624 0E94 0000 		call LCD_CharWrite
 313:/home/student/avr_src/SimulIDE_1.0.0-SR1_Lin64/Timer/Timer.c ****     LCD_CharWrite(0x2101);
 1966               		.stabn	68,0,313,.LM256-.LFBB22
 1967               	.LM256:
 1968 0628 81E0      		ldi r24,lo8(1)
 1969 062a 91E2      		ldi r25,lo8(33)
 1970 062c 0E94 0000 		call LCD_CharWrite
 314:/home/student/avr_src/SimulIDE_1.0.0-SR1_Lin64/Timer/Timer.c ****     LCD_CharWrite(num2lcdbyte(0));
 1971               		.stabn	68,0,314,.LM257-.LFBB22
 1972               	.LM257:
 1973 0630 81E0      		ldi r24,lo8(1)
 1974 0632 91E2      		ldi r25,lo8(33)
 1975 0634 0E94 0000 		call LCD_CharWrite
 315:/home/student/avr_src/SimulIDE_1.0.0-SR1_Lin64/Timer/Timer.c ****     LCD_CharWrite(num2lcdbyte(0));
 1976               		.stabn	68,0,315,.LM258-.LFBB22
 1977               	.LM258:
 1978 0638 81E0      		ldi r24,lo8(1)
 1979 063a 91E3      		ldi r25,lo8(49)
 1980 063c 0E94 0000 		call LCD_CharWrite
 316:/home/student/avr_src/SimulIDE_1.0.0-SR1_Lin64/Timer/Timer.c **** 	LCD_CharWrite(0x31A1);
 1981               		.stabn	68,0,316,.LM259-.LFBB22
 1982               	.LM259:
 1983 0640 81E0      		ldi r24,lo8(1)
 1984 0642 91E3      		ldi r25,lo8(49)
 1985 0644 0E94 0000 		call LCD_CharWrite
 317:/home/student/avr_src/SimulIDE_1.0.0-SR1_Lin64/Timer/Timer.c ****     LCD_CharWrite(num2lcdbyte(0));
 1986               		.stabn	68,0,317,.LM260-.LFBB22
 1987               	.LM260:
 1988 0648 81EA      		ldi r24,lo8(-95)
 1989 064a 91E3      		ldi r25,lo8(49)
 1990 064c 0E94 0000 		call LCD_CharWrite
 318:/home/student/avr_src/SimulIDE_1.0.0-SR1_Lin64/Timer/Timer.c ****     LCD_CharWrite(num2lcdbyte(0));
 1991               		.stabn	68,0,318,.LM261-.LFBB22
 1992               	.LM261:
 1993 0650 81E0      		ldi r24,lo8(1)
 1994 0652 91E3      		ldi r25,lo8(49)
 1995 0654 0E94 0000 		call LCD_CharWrite
 319:/home/student/avr_src/SimulIDE_1.0.0-SR1_Lin64/Timer/Timer.c ****     LCD_CharWrite(0x31A1);
 1996               		.stabn	68,0,319,.LM262-.LFBB22
 1997               	.LM262:
 1998 0658 81E0      		ldi r24,lo8(1)
 1999 065a 91E3      		ldi r25,lo8(49)
 2000 065c 0E94 0000 		call LCD_CharWrite
 320:/home/student/avr_src/SimulIDE_1.0.0-SR1_Lin64/Timer/Timer.c ****     LCD_CharWrite(num2lcdbyte(0));
 2001               		.stabn	68,0,320,.LM263-.LFBB22
 2002               	.LM263:
 2003 0660 81EA      		ldi r24,lo8(-95)
 2004 0662 91E3      		ldi r25,lo8(49)
 2005 0664 0E94 0000 		call LCD_CharWrite
 321:/home/student/avr_src/SimulIDE_1.0.0-SR1_Lin64/Timer/Timer.c ****     LCD_CharWrite(num2lcdbyte(0));
 2006               		.stabn	68,0,321,.LM264-.LFBB22
 2007               	.LM264:
 2008 0668 81E0      		ldi r24,lo8(1)
 2009 066a 91E3      		ldi r25,lo8(49)
 2010 066c 0E94 0000 		call LCD_CharWrite
 322:/home/student/avr_src/SimulIDE_1.0.0-SR1_Lin64/Timer/Timer.c **** 	LCD_CharWrite(0x00C0);
 2011               		.stabn	68,0,322,.LM265-.LFBB22
 2012               	.LM265:
 2013 0670 81E0      		ldi r24,lo8(1)
 2014 0672 91E3      		ldi r25,lo8(49)
 2015 0674 0E94 0000 		call LCD_CharWrite
 323:/home/student/avr_src/SimulIDE_1.0.0-SR1_Lin64/Timer/Timer.c **** 	I2C_LCD_MoveLeft(4);
 2016               		.stabn	68,0,323,.LM266-.LFBB22
 2017               	.LM266:
 2018 0678 80EC      		ldi r24,lo8(-64)
 2019 067a 90E0      		ldi r25,0
 2020 067c 0E94 0000 		call LCD_CharWrite
 324:/home/student/avr_src/SimulIDE_1.0.0-SR1_Lin64/Timer/Timer.c **** 	cp.x = 9;
 2021               		.stabn	68,0,324,.LM267-.LFBB22
 2022               	.LM267:
 2023 0680 84E0      		ldi r24,lo8(4)
 2024 0682 0E94 0000 		call I2C_LCD_MoveLeft
 325:/home/student/avr_src/SimulIDE_1.0.0-SR1_Lin64/Timer/Timer.c **** }
 2025               		.stabn	68,0,325,.LM268-.LFBB22
 2026               	.LM268:
 2027 0686 89E0      		ldi r24,lo8(9)
 2028 0688 90E0      		ldi r25,0
 2029 068a 9093 0000 		sts cp+1,r25
 2030 068e 8093 0000 		sts cp,r24
 2031 0692 0895      		ret
 2032               		.size	I2C_Timer_Default, .-I2C_Timer_Default
 2033               	.Lscope22:
 2034               		.stabs	"",36,0,0,.Lscope22-.LFBB22
 2035               		.stabd	78,0,0
 2036               		.stabs	"I2C_LCD_MoveRight:F(0,49)",36,0,441,I2C_LCD_MoveRight
 2037               		.stabs	"cnt:P(0,13)",64,0,441,28
 2038               	.global	I2C_LCD_MoveRight
 2039               		.type	I2C_LCD_MoveRight, @function
 2040               	I2C_LCD_MoveRight:
 2041               		.stabd	46,0,0
 441:/home/student/avr_src/SimulIDE_1.0.0-SR1_Lin64/Timer/Timer.c **** 	while(cnt){
 2042               		.stabn	68,0,441,.LM269-.LFBB23
 2043               	.LM269:
 2044               	.LFBB23:
 2045 0694 CF93      		push r28
 2046               	/* prologue: function */
 2047               	/* frame size = 0 */
 2048               	/* stack size = 1 */
 2049               	.L__stack_usage = 1
 2050 0696 C82F      		mov r28,r24
 2051               	.L89:
 442:/home/student/avr_src/SimulIDE_1.0.0-SR1_Lin64/Timer/Timer.c **** 		LCD_CharWrite(0x1040);
 2052               		.stabn	68,0,442,.LM270-.LFBB23
 2053               	.LM270:
 2054 0698 CC23      		tst r28
 2055 069a 01F0      		breq .L91
 443:/home/student/avr_src/SimulIDE_1.0.0-SR1_Lin64/Timer/Timer.c **** 		cnt--;
 2056               		.stabn	68,0,443,.LM271-.LFBB23
 2057               	.LM271:
 2058 069c 80E4      		ldi r24,lo8(64)
 2059 069e 90E1      		ldi r25,lo8(16)
 2060 06a0 0E94 0000 		call LCD_CharWrite
 444:/home/student/avr_src/SimulIDE_1.0.0-SR1_Lin64/Timer/Timer.c **** 	}
 2061               		.stabn	68,0,444,.LM272-.LFBB23
 2062               	.LM272:
 2063 06a4 C150      		subi r28,lo8(-(-1))
 2064 06a6 00C0      		rjmp .L89
 2065               	.L91:
 446:/home/student/avr_src/SimulIDE_1.0.0-SR1_Lin64/Timer/Timer.c **** }
 2066               		.stabn	68,0,446,.LM273-.LFBB23
 2067               	.LM273:
 2068 06a8 80EE      		ldi r24,lo8(-32)
 2069 06aa 90E0      		ldi r25,0
 2070               	/* epilogue start */
 447:/home/student/avr_src/SimulIDE_1.0.0-SR1_Lin64/Timer/Timer.c **** 
 2071               		.stabn	68,0,447,.LM274-.LFBB23
 2072               	.LM274:
 2073 06ac CF91      		pop r28
 446:/home/student/avr_src/SimulIDE_1.0.0-SR1_Lin64/Timer/Timer.c **** }
 2074               		.stabn	68,0,446,.LM275-.LFBB23
 2075               	.LM275:
 2076 06ae 0C94 0000 		jmp LCD_CharWrite
 2077               		.size	I2C_LCD_MoveRight, .-I2C_LCD_MoveRight
 2078               	.Lscope23:
 2079               		.stabs	"",36,0,0,.Lscope23-.LFBB23
 2080               		.stabd	78,0,0
 2081               		.stabs	"I2C_Timer_act:F(0,49)",36,0,328,I2C_Timer_act
 2082               	.global	I2C_Timer_act
 2083               		.type	I2C_Timer_act, @function
 2084               	I2C_Timer_act:
 2085               		.stabd	46,0,0
 328:/home/student/avr_src/SimulIDE_1.0.0-SR1_Lin64/Timer/Timer.c **** 		
 2086               		.stabn	68,0,328,.LM276-.LFBB24
 2087               	.LM276:
 2088               	.LFBB24:
 2089 06b2 CF93      		push r28
 2090               	/* prologue: function */
 2091               	/* frame size = 0 */
 2092               	/* stack size = 1 */
 2093               	.L__stack_usage = 1
 330:/home/student/avr_src/SimulIDE_1.0.0-SR1_Lin64/Timer/Timer.c **** 			min--;
 2094               		.stabn	68,0,330,.LM277-.LFBB24
 2095               	.LM277:
 2096 06b4 8091 0000 		lds r24,min
 2097 06b8 8823      		tst r24
 2098 06ba 01F0      		breq .L93
 330:/home/student/avr_src/SimulIDE_1.0.0-SR1_Lin64/Timer/Timer.c **** 			min--;
 2099               		.stabn	68,0,330,.LM278-.LFBB24
 2100               	.LM278:
 2101 06bc 8091 0000 		lds r24,sec
 2102 06c0 8111      		cpse r24,__zero_reg__
 2103 06c2 00C0      		rjmp .L93
 331:/home/student/avr_src/SimulIDE_1.0.0-SR1_Lin64/Timer/Timer.c **** 			sec = 60;
 2104               		.stabn	68,0,331,.LM279-.LFBB24
 2105               	.LM279:
 2106 06c4 8091 0000 		lds r24,min
 2107 06c8 8150      		subi r24,lo8(-(-1))
 2108 06ca 8093 0000 		sts min,r24
 332:/home/student/avr_src/SimulIDE_1.0.0-SR1_Lin64/Timer/Timer.c **** 		}
 2109               		.stabn	68,0,332,.LM280-.LFBB24
 2110               	.LM280:
 2111 06ce 8CE3      		ldi r24,lo8(60)
 2112 06d0 8093 0000 		sts sec,r24
 2113               	.L93:
 335:/home/student/avr_src/SimulIDE_1.0.0-SR1_Lin64/Timer/Timer.c **** 			I2C_LCD_MoveLeft(3);
 2114               		.stabn	68,0,335,.LM281-.LFBB24
 2115               	.LM281:
 2116 06d4 8091 0000 		lds r24,min
 2117 06d8 8A30      		cpi r24,lo8(10)
 2118 06da 00F4      		brsh .L94
 336:/home/student/avr_src/SimulIDE_1.0.0-SR1_Lin64/Timer/Timer.c **** 			LCD_CharWrite(num2lcdbyte(min));
 2119               		.stabn	68,0,336,.LM282-.LFBB24
 2120               	.LM282:
 2121 06dc 83E0      		ldi r24,lo8(3)
 2122 06de 0E94 0000 		call I2C_LCD_MoveLeft
 337:/home/student/avr_src/SimulIDE_1.0.0-SR1_Lin64/Timer/Timer.c **** 			I2C_LCD_MoveRight(2);
 2123               		.stabn	68,0,337,.LM283-.LFBB24
 2124               	.LM283:
 2125 06e2 8091 0000 		lds r24,min
 2126 06e6 0E94 0000 		call num2lcdbyte
 2127 06ea 0E94 0000 		call LCD_CharWrite
 338:/home/student/avr_src/SimulIDE_1.0.0-SR1_Lin64/Timer/Timer.c **** 			LCD_CharWrite(0x00C0);
 2128               		.stabn	68,0,338,.LM284-.LFBB24
 2129               	.LM284:
 2130 06ee 82E0      		ldi r24,lo8(2)
 2131 06f0 0E94 0000 		call I2C_LCD_MoveRight
 339:/home/student/avr_src/SimulIDE_1.0.0-SR1_Lin64/Timer/Timer.c **** 			LCD_CharWrite(0x00C0);
 2132               		.stabn	68,0,339,.LM285-.LFBB24
 2133               	.LM285:
 2134 06f4 80EC      		ldi r24,lo8(-64)
 2135 06f6 90E0      		ldi r25,0
 2136 06f8 0E94 0000 		call LCD_CharWrite
 340:/home/student/avr_src/SimulIDE_1.0.0-SR1_Lin64/Timer/Timer.c **** 		}
 2137               		.stabn	68,0,340,.LM286-.LFBB24
 2138               	.LM286:
 2139 06fc 80EC      		ldi r24,lo8(-64)
 2140 06fe 90E0      		ldi r25,0
 2141 0700 0E94 0000 		call LCD_CharWrite
 2142               	.L94:
 342:/home/student/avr_src/SimulIDE_1.0.0-SR1_Lin64/Timer/Timer.c **** 			I2C_LCD_MoveLeft(4);
 2143               		.stabn	68,0,342,.LM287-.LFBB24
 2144               	.LM287:
 2145 0704 8091 0000 		lds r24,min
 2146 0708 8B30      		cpi r24,lo8(11)
 2147 070a 00F0      		brlo .L95
 343:/home/student/avr_src/SimulIDE_1.0.0-SR1_Lin64/Timer/Timer.c **** 			LCD_CharWrite(num2lcdbyte(min/10));
 2148               		.stabn	68,0,343,.LM288-.LFBB24
 2149               	.LM288:
 2150 070c 84E0      		ldi r24,lo8(4)
 2151 070e 0E94 0000 		call I2C_LCD_MoveLeft
 344:/home/student/avr_src/SimulIDE_1.0.0-SR1_Lin64/Timer/Timer.c **** 			LCD_CharWrite(num2lcdbyte(min%10));
 2152               		.stabn	68,0,344,.LM289-.LFBB24
 2153               	.LM289:
 2154 0712 8091 0000 		lds r24,min
 2155 0716 CAE0      		ldi r28,lo8(10)
 2156 0718 6C2F      		mov r22,r28
 2157 071a 0E94 0000 		call __udivmodqi4
 2158 071e 0E94 0000 		call num2lcdbyte
 2159 0722 00C0      		rjmp .L112
 2160               	.L95:
 350:/home/student/avr_src/SimulIDE_1.0.0-SR1_Lin64/Timer/Timer.c **** 			I2C_LCD_MoveLeft(4);
 2161               		.stabn	68,0,350,.LM290-.LFBB24
 2162               	.LM290:
 2163 0724 C091 0000 		lds r28,min
 2164 0728 CA30      		cpi r28,lo8(10)
 2165 072a 01F4      		brne .L96
 351:/home/student/avr_src/SimulIDE_1.0.0-SR1_Lin64/Timer/Timer.c **** 			LCD_CharWrite(num2lcdbyte(0));
 2166               		.stabn	68,0,351,.LM291-.LFBB24
 2167               	.LM291:
 2168 072c 84E0      		ldi r24,lo8(4)
 2169 072e 0E94 0000 		call I2C_LCD_MoveLeft
 352:/home/student/avr_src/SimulIDE_1.0.0-SR1_Lin64/Timer/Timer.c **** 			LCD_CharWrite(num2lcdbyte(min%10));
 2170               		.stabn	68,0,352,.LM292-.LFBB24
 2171               	.LM292:
 2172 0732 81E0      		ldi r24,lo8(1)
 2173 0734 91E3      		ldi r25,lo8(49)
 2174               	.L112:
 2175 0736 0E94 0000 		call LCD_CharWrite
 353:/home/student/avr_src/SimulIDE_1.0.0-SR1_Lin64/Timer/Timer.c **** 			I2C_LCD_MoveRight(2);
 2176               		.stabn	68,0,353,.LM293-.LFBB24
 2177               	.LM293:
 2178 073a 8091 0000 		lds r24,min
 2179 073e 6C2F      		mov r22,r28
 2180 0740 0E94 0000 		call __udivmodqi4
 2181 0744 892F      		mov r24,r25
 2182 0746 0E94 0000 		call num2lcdbyte
 2183 074a 0E94 0000 		call LCD_CharWrite
 354:/home/student/avr_src/SimulIDE_1.0.0-SR1_Lin64/Timer/Timer.c **** 			LCD_CharWrite(0x00C0);
 2184               		.stabn	68,0,354,.LM294-.LFBB24
 2185               	.LM294:
 2186 074e 82E0      		ldi r24,lo8(2)
 2187 0750 0E94 0000 		call I2C_LCD_MoveRight
 355:/home/student/avr_src/SimulIDE_1.0.0-SR1_Lin64/Timer/Timer.c **** 			LCD_CharWrite(0x00C0);
 2188               		.stabn	68,0,355,.LM295-.LFBB24
 2189               	.LM295:
 2190 0754 80EC      		ldi r24,lo8(-64)
 2191 0756 90E0      		ldi r25,0
 2192 0758 0E94 0000 		call LCD_CharWrite
 356:/home/student/avr_src/SimulIDE_1.0.0-SR1_Lin64/Timer/Timer.c **** 		}
 2193               		.stabn	68,0,356,.LM296-.LFBB24
 2194               	.LM296:
 2195 075c 80EC      		ldi r24,lo8(-64)
 2196 075e 90E0      		ldi r25,0
 2197 0760 0E94 0000 		call LCD_CharWrite
 2198               	.L96:
 361:/home/student/avr_src/SimulIDE_1.0.0-SR1_Lin64/Timer/Timer.c **** 			if(min){
 2199               		.stabn	68,0,361,.LM297-.LFBB24
 2200               	.LM297:
 2201 0764 8091 0000 		lds r24,sec
 2202 0768 8130      		cpi r24,lo8(1)
 2203 076a 01F4      		brne .L97
 361:/home/student/avr_src/SimulIDE_1.0.0-SR1_Lin64/Timer/Timer.c **** 			if(min){
 2204               		.stabn	68,0,361,.LM298-.LFBB24
 2205               	.LM298:
 2206 076c 9091 0000 		lds r25,end_flag
 2207 0770 9111      		cpse r25,__zero_reg__
 2208 0772 00C0      		rjmp .L97
 362:/home/student/avr_src/SimulIDE_1.0.0-SR1_Lin64/Timer/Timer.c **** 				LCD_CharWrite(num2lcdbyte(0));
 2209               		.stabn	68,0,362,.LM299-.LFBB24
 2210               	.LM299:
 2211 0774 9091 0000 		lds r25,min
 2212 0778 9923      		tst r25
 2213 077a 01F0      		breq .L98
 363:/home/student/avr_src/SimulIDE_1.0.0-SR1_Lin64/Timer/Timer.c **** 				I2C_LCD_MoveLeft(1);
 2214               		.stabn	68,0,363,.LM300-.LFBB24
 2215               	.LM300:
 2216 077c 81E0      		ldi r24,lo8(1)
 2217 077e 91E3      		ldi r25,lo8(49)
 2218 0780 0E94 0000 		call LCD_CharWrite
 364:/home/student/avr_src/SimulIDE_1.0.0-SR1_Lin64/Timer/Timer.c **** 				time_10ms = 99;
 2219               		.stabn	68,0,364,.LM301-.LFBB24
 2220               	.LM301:
 2221 0784 81E0      		ldi r24,lo8(1)
 2222 0786 0E94 0000 		call I2C_LCD_MoveLeft
 365:/home/student/avr_src/SimulIDE_1.0.0-SR1_Lin64/Timer/Timer.c **** 				sec = 60;
 2223               		.stabn	68,0,365,.LM302-.LFBB24
 2224               	.LM302:
 2225 078a 83E6      		ldi r24,lo8(99)
 2226 078c 90E0      		ldi r25,0
 2227 078e 9093 0000 		sts time_10ms+1,r25
 2228 0792 8093 0000 		sts time_10ms,r24
 366:/home/student/avr_src/SimulIDE_1.0.0-SR1_Lin64/Timer/Timer.c **** 				min--;
 2229               		.stabn	68,0,366,.LM303-.LFBB24
 2230               	.LM303:
 2231 0796 8CE3      		ldi r24,lo8(60)
 2232 0798 8093 0000 		sts sec,r24
 367:/home/student/avr_src/SimulIDE_1.0.0-SR1_Lin64/Timer/Timer.c **** 			}
 2233               		.stabn	68,0,367,.LM304-.LFBB24
 2234               	.LM304:
 2235 079c 8091 0000 		lds r24,min
 2236 07a0 8150      		subi r24,lo8(-(-1))
 2237 07a2 8093 0000 		sts min,r24
 2238 07a6 00C0      		rjmp .L92
 2239               	.L98:
 370:/home/student/avr_src/SimulIDE_1.0.0-SR1_Lin64/Timer/Timer.c **** 			}
 2240               		.stabn	68,0,370,.LM305-.LFBB24
 2241               	.LM305:
 2242 07a8 8093 0000 		sts end_flag,r24
 2243 07ac 00C0      		rjmp .L92
 2244               	.L97:
 373:/home/student/avr_src/SimulIDE_1.0.0-SR1_Lin64/Timer/Timer.c **** 			if (min == 0){
 2245               		.stabn	68,0,373,.LM306-.LFBB24
 2246               	.LM306:
 2247 07ae 8091 0000 		lds r24,sec
 2248 07b2 8C33      		cpi r24,lo8(60)
 2249 07b4 01F4      		brne .L100
 374:/home/student/avr_src/SimulIDE_1.0.0-SR1_Lin64/Timer/Timer.c **** 				I2C_LCD_MoveLeft(3);
 2250               		.stabn	68,0,374,.LM307-.LFBB24
 2251               	.LM307:
 2252 07b6 8091 0000 		lds r24,min
 2253 07ba 8111      		cpse r24,__zero_reg__
 2254 07bc 00C0      		rjmp .L101
 375:/home/student/avr_src/SimulIDE_1.0.0-SR1_Lin64/Timer/Timer.c **** 				LCD_CharWrite(num2lcdbyte(0));
 2255               		.stabn	68,0,375,.LM308-.LFBB24
 2256               	.LM308:
 2257 07be 83E0      		ldi r24,lo8(3)
 2258 07c0 0E94 0000 		call I2C_LCD_MoveLeft
 376:/home/student/avr_src/SimulIDE_1.0.0-SR1_Lin64/Timer/Timer.c **** 				I2C_LCD_MoveRight(2);
 2259               		.stabn	68,0,376,.LM309-.LFBB24
 2260               	.LM309:
 2261 07c4 81E0      		ldi r24,lo8(1)
 2262 07c6 91E3      		ldi r25,lo8(49)
 2263 07c8 00C0      		rjmp .L113
 2264               	.L101:
 381:/home/student/avr_src/SimulIDE_1.0.0-SR1_Lin64/Timer/Timer.c **** 				I2C_LCD_MoveLeft(3);
 2265               		.stabn	68,0,381,.LM310-.LFBB24
 2266               	.LM310:
 2267 07ca 8091 0000 		lds r24,min
 2268 07ce 8823      		tst r24
 2269 07d0 01F0      		breq .L102
 382:/home/student/avr_src/SimulIDE_1.0.0-SR1_Lin64/Timer/Timer.c **** 				LCD_CharWrite(num2lcdbyte(min));
 2270               		.stabn	68,0,382,.LM311-.LFBB24
 2271               	.LM311:
 2272 07d2 83E0      		ldi r24,lo8(3)
 2273 07d4 0E94 0000 		call I2C_LCD_MoveLeft
 383:/home/student/avr_src/SimulIDE_1.0.0-SR1_Lin64/Timer/Timer.c **** 				I2C_LCD_MoveRight(2);
 2274               		.stabn	68,0,383,.LM312-.LFBB24
 2275               	.LM312:
 2276 07d8 8091 0000 		lds r24,min
 2277 07dc 0E94 0000 		call num2lcdbyte
 2278               	.L113:
 2279 07e0 0E94 0000 		call LCD_CharWrite
 384:/home/student/avr_src/SimulIDE_1.0.0-SR1_Lin64/Timer/Timer.c **** 				LCD_CharWrite(0x00C0);
 2280               		.stabn	68,0,384,.LM313-.LFBB24
 2281               	.LM313:
 2282 07e4 82E0      		ldi r24,lo8(2)
 2283 07e6 0E94 0000 		call I2C_LCD_MoveRight
 385:/home/student/avr_src/SimulIDE_1.0.0-SR1_Lin64/Timer/Timer.c **** 				LCD_CharWrite(0x00C0);
 2284               		.stabn	68,0,385,.LM314-.LFBB24
 2285               	.LM314:
 2286 07ea 80EC      		ldi r24,lo8(-64)
 2287 07ec 90E0      		ldi r25,0
 2288 07ee 0E94 0000 		call LCD_CharWrite
 386:/home/student/avr_src/SimulIDE_1.0.0-SR1_Lin64/Timer/Timer.c **** 			}
 2289               		.stabn	68,0,386,.LM315-.LFBB24
 2290               	.LM315:
 2291 07f2 80EC      		ldi r24,lo8(-64)
 2292 07f4 90E0      		ldi r25,0
 2293 07f6 0E94 0000 		call LCD_CharWrite
 2294               	.L102:
 388:/home/student/avr_src/SimulIDE_1.0.0-SR1_Lin64/Timer/Timer.c **** 			LCD_CharWrite(num2lcdbyte((5)));
 2295               		.stabn	68,0,388,.LM316-.LFBB24
 2296               	.LM316:
 2297 07fa 81E0      		ldi r24,lo8(1)
 2298 07fc 0E94 0000 		call I2C_LCD_MoveLeft
 389:/home/student/avr_src/SimulIDE_1.0.0-SR1_Lin64/Timer/Timer.c **** 			LCD_CharWrite(num2lcdbyte((sec-1)%10));
 2299               		.stabn	68,0,389,.LM317-.LFBB24
 2300               	.LM317:
 2301 0800 81E5      		ldi r24,lo8(81)
 2302 0802 91E3      		ldi r25,lo8(49)
 2303 0804 00C0      		rjmp .L115
 2304               	.L100:
 397:/home/student/avr_src/SimulIDE_1.0.0-SR1_Lin64/Timer/Timer.c **** 			if(sec % 10 == 0){
 2305               		.stabn	68,0,397,.LM318-.LFBB24
 2306               	.LM318:
 2307 0806 8091 0000 		lds r24,sec
 2308 080a 8A30      		cpi r24,lo8(10)
 2309 080c 01F0      		breq .L103
 398:/home/student/avr_src/SimulIDE_1.0.0-SR1_Lin64/Timer/Timer.c **** 				I2C_LCD_MoveLeft(1);
 2310               		.stabn	68,0,398,.LM319-.LFBB24
 2311               	.LM319:
 2312 080e 8091 0000 		lds r24,sec
 2313 0812 CAE0      		ldi r28,lo8(10)
 2314 0814 6C2F      		mov r22,r28
 2315 0816 0E94 0000 		call __udivmodqi4
 399:/home/student/avr_src/SimulIDE_1.0.0-SR1_Lin64/Timer/Timer.c **** 				LCD_CharWrite(num2lcdbyte((sec/10 -1)));
 2316               		.stabn	68,0,399,.LM320-.LFBB24
 2317               	.LM320:
 2318 081a 81E0      		ldi r24,lo8(1)
 398:/home/student/avr_src/SimulIDE_1.0.0-SR1_Lin64/Timer/Timer.c **** 				I2C_LCD_MoveLeft(1);
 2319               		.stabn	68,0,398,.LM321-.LFBB24
 2320               	.LM321:
 2321 081c 9111      		cpse r25,__zero_reg__
 2322 081e 00C0      		rjmp .L104
 399:/home/student/avr_src/SimulIDE_1.0.0-SR1_Lin64/Timer/Timer.c **** 				LCD_CharWrite(num2lcdbyte((sec/10 -1)));
 2323               		.stabn	68,0,399,.LM322-.LFBB24
 2324               	.LM322:
 2325 0820 0E94 0000 		call I2C_LCD_MoveLeft
 400:/home/student/avr_src/SimulIDE_1.0.0-SR1_Lin64/Timer/Timer.c **** 			}
 2326               		.stabn	68,0,400,.LM323-.LFBB24
 2327               	.LM323:
 2328 0824 8091 0000 		lds r24,sec
 2329 0828 6C2F      		mov r22,r28
 2330 082a 0E94 0000 		call __udivmodqi4
 2331 082e 8150      		subi r24,lo8(-(-1))
 2332 0830 00C0      		rjmp .L114
 2333               	.L104:
 403:/home/student/avr_src/SimulIDE_1.0.0-SR1_Lin64/Timer/Timer.c **** 				LCD_CharWrite(num2lcdbyte((sec/10)));
 2334               		.stabn	68,0,403,.LM324-.LFBB24
 2335               	.LM324:
 2336 0832 0E94 0000 		call I2C_LCD_MoveLeft
 404:/home/student/avr_src/SimulIDE_1.0.0-SR1_Lin64/Timer/Timer.c **** 			}
 2337               		.stabn	68,0,404,.LM325-.LFBB24
 2338               	.LM325:
 2339 0836 8091 0000 		lds r24,sec
 2340 083a 6C2F      		mov r22,r28
 2341 083c 0E94 0000 		call __udivmodqi4
 2342               	.L114:
 2343 0840 0E94 0000 		call num2lcdbyte
 2344 0844 00C0      		rjmp .L115
 2345               	.L103:
 413:/home/student/avr_src/SimulIDE_1.0.0-SR1_Lin64/Timer/Timer.c **** 			I2C_LCD_MoveLeft(1);
 2346               		.stabn	68,0,413,.LM326-.LFBB24
 2347               	.LM326:
 2348 0846 8091 0000 		lds r24,sec
 2349 084a 8A30      		cpi r24,lo8(10)
 2350 084c 01F4      		brne .L92
 414:/home/student/avr_src/SimulIDE_1.0.0-SR1_Lin64/Timer/Timer.c **** 			LCD_CharWrite(num2lcdbyte((0)));
 2351               		.stabn	68,0,414,.LM327-.LFBB24
 2352               	.LM327:
 2353 084e 81E0      		ldi r24,lo8(1)
 2354 0850 0E94 0000 		call I2C_LCD_MoveLeft
 415:/home/student/avr_src/SimulIDE_1.0.0-SR1_Lin64/Timer/Timer.c **** 			LCD_CharWrite(num2lcdbyte((sec-1)%10));
 2355               		.stabn	68,0,415,.LM328-.LFBB24
 2356               	.LM328:
 2357 0854 81E0      		ldi r24,lo8(1)
 2358 0856 91E3      		ldi r25,lo8(49)
 2359               	.L115:
 2360 0858 0E94 0000 		call LCD_CharWrite
 416:/home/student/avr_src/SimulIDE_1.0.0-SR1_Lin64/Timer/Timer.c **** 			I2C_LCD_MoveLeft(1);
 2361               		.stabn	68,0,416,.LM329-.LFBB24
 2362               	.LM329:
 2363 085c 8091 0000 		lds r24,sec
 2364 0860 90E0      		ldi r25,0
 2365 0862 0197      		sbiw r24,1
 2366 0864 6AE0      		ldi r22,lo8(10)
 2367 0866 70E0      		ldi r23,0
 2368 0868 0E94 0000 		call __divmodhi4
 2369 086c 0E94 0000 		call num2lcdbyte
 2370 0870 0E94 0000 		call LCD_CharWrite
 417:/home/student/avr_src/SimulIDE_1.0.0-SR1_Lin64/Timer/Timer.c **** 			LCD_CharWrite(0x00C0);
 2371               		.stabn	68,0,417,.LM330-.LFBB24
 2372               	.LM330:
 2373 0874 81E0      		ldi r24,lo8(1)
 2374 0876 0E94 0000 		call I2C_LCD_MoveLeft
 418:/home/student/avr_src/SimulIDE_1.0.0-SR1_Lin64/Timer/Timer.c **** 			LCD_CharWrite(0x00C0);
 2375               		.stabn	68,0,418,.LM331-.LFBB24
 2376               	.LM331:
 2377 087a 80EC      		ldi r24,lo8(-64)
 2378 087c 90E0      		ldi r25,0
 2379 087e 0E94 0000 		call LCD_CharWrite
 419:/home/student/avr_src/SimulIDE_1.0.0-SR1_Lin64/Timer/Timer.c **** 			time_10ms = 99;
 2380               		.stabn	68,0,419,.LM332-.LFBB24
 2381               	.LM332:
 2382 0882 80EC      		ldi r24,lo8(-64)
 2383 0884 90E0      		ldi r25,0
 2384 0886 0E94 0000 		call LCD_CharWrite
 420:/home/student/avr_src/SimulIDE_1.0.0-SR1_Lin64/Timer/Timer.c **** 			--sec;
 2385               		.stabn	68,0,420,.LM333-.LFBB24
 2386               	.LM333:
 2387 088a 83E6      		ldi r24,lo8(99)
 2388 088c 90E0      		ldi r25,0
 2389 088e 9093 0000 		sts time_10ms+1,r25
 2390 0892 8093 0000 		sts time_10ms,r24
 421:/home/student/avr_src/SimulIDE_1.0.0-SR1_Lin64/Timer/Timer.c **** 		}
 2391               		.stabn	68,0,421,.LM334-.LFBB24
 2392               	.LM334:
 2393 0896 8091 0000 		lds r24,sec
 2394 089a 8150      		subi r24,lo8(-(-1))
 2395 089c 8093 0000 		sts sec,r24
 2396               	.L92:
 2397               	/* epilogue start */
 429:/home/student/avr_src/SimulIDE_1.0.0-SR1_Lin64/Timer/Timer.c **** //====================================================
 2398               		.stabn	68,0,429,.LM335-.LFBB24
 2399               	.LM335:
 2400 08a0 CF91      		pop r28
 2401 08a2 0895      		ret
 2402               		.size	I2C_Timer_act, .-I2C_Timer_act
 2403               	.Lscope24:
 2404               		.stabs	"",36,0,0,.Lscope24-.LFBB24
 2405               		.stabd	78,0,0
 2406               		.section	.text.startup,"ax",@progbits
 2407               		.stabs	"main:F(0,1)",36,0,120,main
 2408               	.global	main
 2409               		.type	main, @function
 2410               	main:
 2411               		.stabd	46,0,0
 120:/home/student/avr_src/SimulIDE_1.0.0-SR1_Lin64/Timer/Timer.c **** 	
 2412               		.stabn	68,0,120,.LM336-.LFBB25
 2413               	.LM336:
 2414               	.LFBB25:
 2415               	/* prologue: function */
 2416               	/* frame size = 0 */
 2417               	/* stack size = 0 */
 2418               	.L__stack_usage = 0
 122:/home/student/avr_src/SimulIDE_1.0.0-SR1_Lin64/Timer/Timer.c **** 	Value_init();
 2419               		.stabn	68,0,122,.LM337-.LFBB25
 2420               	.LM337:
 2421               	/* #APP */
 2422               	 ;  122 "/home/student/avr_src/SimulIDE_1.0.0-SR1_Lin64/Timer/Timer.c" 1
 2423 0000 7894      		sei
 2424               	 ;  0 "" 2
 123:/home/student/avr_src/SimulIDE_1.0.0-SR1_Lin64/Timer/Timer.c ****     Port_init();
 2425               		.stabn	68,0,123,.LM338-.LFBB25
 2426               	.LM338:
 2427               	/* #NOAPP */
 2428 0002 0E94 0000 		call Value_init
 124:/home/student/avr_src/SimulIDE_1.0.0-SR1_Lin64/Timer/Timer.c **** 	I2C_LCD_init(0x27);
 2429               		.stabn	68,0,124,.LM339-.LFBB25
 2430               	.LM339:
 2431 0006 0E94 0000 		call Port_init
 125:/home/student/avr_src/SimulIDE_1.0.0-SR1_Lin64/Timer/Timer.c **** 	I2C_LCD_Reset();
 2432               		.stabn	68,0,125,.LM340-.LFBB25
 2433               	.LM340:
 2434 000a 87E2      		ldi r24,lo8(39)
 2435 000c 0E94 0000 		call I2C_LCD_init
 126:/home/student/avr_src/SimulIDE_1.0.0-SR1_Lin64/Timer/Timer.c **** 	I2C_Timer_Default();
 2436               		.stabn	68,0,126,.LM341-.LFBB25
 2437               	.LM341:
 2438 0010 0E94 0000 		call I2C_LCD_Reset
 127:/home/student/avr_src/SimulIDE_1.0.0-SR1_Lin64/Timer/Timer.c ****     USART_init();
 2439               		.stabn	68,0,127,.LM342-.LFBB25
 2440               	.LM342:
 2441 0014 0E94 0000 		call I2C_Timer_Default
 128:/home/student/avr_src/SimulIDE_1.0.0-SR1_Lin64/Timer/Timer.c **** 	Timer1_init();
 2442               		.stabn	68,0,128,.LM343-.LFBB25
 2443               	.LM343:
 2444 0018 0E94 0000 		call USART_init
 129:/home/student/avr_src/SimulIDE_1.0.0-SR1_Lin64/Timer/Timer.c **** 	//TIME_SETTING(1,2);
 2445               		.stabn	68,0,129,.LM344-.LFBB25
 2446               	.LM344:
 2447 001c 0E94 0000 		call Timer1_init
 132:/home/student/avr_src/SimulIDE_1.0.0-SR1_Lin64/Timer/Timer.c **** 		if(end_flag) {
 2448               		.stabn	68,0,132,.LM345-.LFBB25
 2449               	.LM345:
 2450 0020 11E0      		ldi r17,lo8(1)
 145:/home/student/avr_src/SimulIDE_1.0.0-SR1_Lin64/Timer/Timer.c **** 				job++;
 2451               		.stabn	68,0,145,.LM346-.LFBB25
 2452               	.LM346:
 2453 0022 C4E6      		ldi r28,lo8(100)
 2454 0024 D0E0      		ldi r29,0
 2455               	.L118:
 132:/home/student/avr_src/SimulIDE_1.0.0-SR1_Lin64/Timer/Timer.c **** 		if(end_flag) {
 2456               		.stabn	68,0,132,.LM347-.LFBB25
 2457               	.LM347:
 2458 0026 88B1      		in r24,0x8
 2459 0028 8127      		eor r24,r17
 2460 002a 88B9      		out 0x8,r24
 133:/home/student/avr_src/SimulIDE_1.0.0-SR1_Lin64/Timer/Timer.c **** 			end_flag = 0;
 2461               		.stabn	68,0,133,.LM348-.LFBB25
 2462               	.LM348:
 2463 002c 8091 0000 		lds r24,end_flag
 2464 0030 8823      		tst r24
 2465 0032 01F0      		breq .L120
 134:/home/student/avr_src/SimulIDE_1.0.0-SR1_Lin64/Timer/Timer.c **** 			timer_start_flag = 0;
 2466               		.stabn	68,0,134,.LM349-.LFBB25
 2467               	.LM349:
 2468 0034 1092 0000 		sts end_flag,__zero_reg__
 135:/home/student/avr_src/SimulIDE_1.0.0-SR1_Lin64/Timer/Timer.c **** 			//TIME_SETTING(1,2);
 2469               		.stabn	68,0,135,.LM350-.LFBB25
 2470               	.LM350:
 2471 0038 1092 0000 		sts timer_start_flag,__zero_reg__
 137:/home/student/avr_src/SimulIDE_1.0.0-SR1_Lin64/Timer/Timer.c **** 			job = 0;
 2472               		.stabn	68,0,137,.LM351-.LFBB25
 2473               	.LM351:
 2474 003c 0E94 0000 		call I2C_Timer_Default
 138:/home/student/avr_src/SimulIDE_1.0.0-SR1_Lin64/Timer/Timer.c **** 			Value_init();
 2475               		.stabn	68,0,138,.LM352-.LFBB25
 2476               	.LM352:
 2477 0040 1092 0000 		sts job,__zero_reg__
 139:/home/student/avr_src/SimulIDE_1.0.0-SR1_Lin64/Timer/Timer.c **** 		}
 2478               		.stabn	68,0,139,.LM353-.LFBB25
 2479               	.LM353:
 2480 0044 0E94 0000 		call Value_init
 2481               	.L120:
 141:/home/student/avr_src/SimulIDE_1.0.0-SR1_Lin64/Timer/Timer.c **** 		{
 2482               		.stabn	68,0,141,.LM354-.LFBB25
 2483               	.LM354:
 2484 0048 8091 0000 		lds r24,job
 2485 004c 8130      		cpi r24,lo8(1)
 2486 004e 01F0      		breq .L121
 2487 0050 00F0      		brlo .L122
 2488 0052 8230      		cpi r24,lo8(2)
 2489 0054 01F0      		breq .L123
 2490 0056 8330      		cpi r24,lo8(3)
 2491 0058 01F0      		breq .L124
 2492 005a 00C0      		rjmp .L118
 2493               	.L122:
 144:/home/student/avr_src/SimulIDE_1.0.0-SR1_Lin64/Timer/Timer.c **** 				time_1s = 100;
 2494               		.stabn	68,0,144,.LM355-.LFBB25
 2495               	.LM355:
 2496 005c 8091 0000 		lds r24,timer_start_flag
 2497 0060 8823      		tst r24
 2498 0062 01F0      		breq .L118
 145:/home/student/avr_src/SimulIDE_1.0.0-SR1_Lin64/Timer/Timer.c **** 				job++;
 2499               		.stabn	68,0,145,.LM356-.LFBB25
 2500               	.LM356:
 2501 0064 D093 0000 		sts time_1s+1,r29
 2502 0068 C093 0000 		sts time_1s,r28
 2503 006c 00C0      		rjmp .L138
 2504               	.L121:
 150:/home/student/avr_src/SimulIDE_1.0.0-SR1_Lin64/Timer/Timer.c **** 			else job++;
 2505               		.stabn	68,0,150,.LM357-.LFBB25
 2506               	.LM357:
 2507 006e 8091 0000 		lds r24,time_1s
 2508 0072 9091 0000 		lds r25,time_1s+1
 2509 0076 892B      		or r24,r25
 2510 0078 01F4      		brne .L118
 151:/home/student/avr_src/SimulIDE_1.0.0-SR1_Lin64/Timer/Timer.c **** 		case 2:
 2511               		.stabn	68,0,151,.LM358-.LFBB25
 2512               	.LM358:
 2513 007a 8091 0000 		lds r24,job
 2514 007e 8F5F      		subi r24,lo8(-(1))
 2515 0080 8093 0000 		sts job,r24
 2516               	.L123:
 153:/home/student/avr_src/SimulIDE_1.0.0-SR1_Lin64/Timer/Timer.c **** 			job++;
 2517               		.stabn	68,0,153,.LM359-.LFBB25
 2518               	.LM359:
 2519 0084 0E94 0000 		call I2C_Timer_act
 154:/home/student/avr_src/SimulIDE_1.0.0-SR1_Lin64/Timer/Timer.c **** 		case 3:
 2520               		.stabn	68,0,154,.LM360-.LFBB25
 2521               	.LM360:
 2522 0088 8091 0000 		lds r24,job
 2523 008c 8F5F      		subi r24,lo8(-(1))
 2524 008e 8093 0000 		sts job,r24
 2525               	.L124:
 156:/home/student/avr_src/SimulIDE_1.0.0-SR1_Lin64/Timer/Timer.c **** 			else job = 0;
 2526               		.stabn	68,0,156,.LM361-.LFBB25
 2527               	.LM361:
 2528 0092 8091 0000 		lds r24,end_flag
 2529 0096 8823      		tst r24
 2530 0098 01F0      		breq .L125
 2531               	.L138:
 156:/home/student/avr_src/SimulIDE_1.0.0-SR1_Lin64/Timer/Timer.c **** 			else job = 0;
 2532               		.stabn	68,0,156,.LM362-.LFBB25
 2533               	.LM362:
 2534 009a 8091 0000 		lds r24,job
 2535 009e 8F5F      		subi r24,lo8(-(1))
 2536 00a0 8093 0000 		sts job,r24
 2537 00a4 00C0      		rjmp .L118
 2538               	.L125:
 157:/home/student/avr_src/SimulIDE_1.0.0-SR1_Lin64/Timer/Timer.c **** 		default:
 2539               		.stabn	68,0,157,.LM363-.LFBB25
 2540               	.LM363:
 2541 00a6 1092 0000 		sts job,__zero_reg__
 2542 00aa 00C0      		rjmp .L118
 2543               		.size	main, .-main
 2544               	.Lscope25:
 2545               		.stabs	"",36,0,0,.Lscope25-.LFBB25
 2546               		.stabd	78,0,0
 2547               		.text
 2548               		.stabs	"I2C_LCD_SELECT:F(0,49)",36,0,449,I2C_LCD_SELECT
 2549               	.global	I2C_LCD_SELECT
 2550               		.type	I2C_LCD_SELECT, @function
 2551               	I2C_LCD_SELECT:
 2552               		.stabd	46,0,0
 449:/home/student/avr_src/SimulIDE_1.0.0-SR1_Lin64/Timer/Timer.c **** 	sel_flag ^= 1;
 2553               		.stabn	68,0,449,.LM364-.LFBB26
 2554               	.LM364:
 2555               	.LFBB26:
 2556               	/* prologue: function */
 2557               	/* frame size = 0 */
 2558               	/* stack size = 0 */
 2559               	.L__stack_usage = 0
 450:/home/student/avr_src/SimulIDE_1.0.0-SR1_Lin64/Timer/Timer.c **** 	if(sel_flag){
 2560               		.stabn	68,0,450,.LM365-.LFBB26
 2561               	.LM365:
 2562 08a4 9091 0000 		lds r25,sel_flag
 2563 08a8 81E0      		ldi r24,lo8(1)
 2564 08aa 8927      		eor r24,r25
 2565 08ac 8093 0000 		sts sel_flag,r24
 451:/home/student/avr_src/SimulIDE_1.0.0-SR1_Lin64/Timer/Timer.c **** 		LCD_CharWrite(0x00F0);
 2566               		.stabn	68,0,451,.LM366-.LFBB26
 2567               	.LM366:
 2568 08b0 8091 0000 		lds r24,sel_flag
 2569 08b4 8823      		tst r24
 2570 08b6 01F0      		breq .L140
 2571               	.LBB188:
 2572               	.LBB189:
 452:/home/student/avr_src/SimulIDE_1.0.0-SR1_Lin64/Timer/Timer.c **** 		LCD_CharWrite(0x00F0);
 2573               		.stabn	68,0,452,.LM367-.LFBB26
 2574               	.LM367:
 2575 08b8 80EF      		ldi r24,lo8(-16)
 2576 08ba 90E0      		ldi r25,0
 2577 08bc 0E94 0000 		call LCD_CharWrite
 453:/home/student/avr_src/SimulIDE_1.0.0-SR1_Lin64/Timer/Timer.c **** 	} 
 2578               		.stabn	68,0,453,.LM368-.LFBB26
 2579               	.LM368:
 2580 08c0 80EF      		ldi r24,lo8(-16)
 2581 08c2 90E0      		ldi r25,0
 2582 08c4 00C0      		rjmp .L141
 2583               	.L140:
 2584               	.LBE189:
 2585               	.LBE188:
 456:/home/student/avr_src/SimulIDE_1.0.0-SR1_Lin64/Timer/Timer.c **** 		LCD_CharWrite(0x00E0);
 2586               		.stabn	68,0,456,.LM369-.LFBB26
 2587               	.LM369:
 2588 08c6 80EE      		ldi r24,lo8(-32)
 2589 08c8 90E0      		ldi r25,0
 2590 08ca 0E94 0000 		call LCD_CharWrite
 457:/home/student/avr_src/SimulIDE_1.0.0-SR1_Lin64/Timer/Timer.c **** 	}
 2591               		.stabn	68,0,457,.LM370-.LFBB26
 2592               	.LM370:
 2593 08ce 80EE      		ldi r24,lo8(-32)
 2594 08d0 90E0      		ldi r25,0
 2595               	.L141:
 2596 08d2 0C94 0000 		jmp LCD_CharWrite
 2597               		.size	I2C_LCD_SELECT, .-I2C_LCD_SELECT
 2598               	.Lscope26:
 2599               		.stabs	"",36,0,0,.Lscope26-.LFBB26
 2600               		.stabd	78,0,0
 2601               		.stabs	"__vector_11:F(0,49)",36,0,463,__vector_11
 2602               	.global	__vector_11
 2603               		.type	__vector_11, @function
 2604               	__vector_11:
 2605               		.stabd	46,0,0
 463:/home/student/avr_src/SimulIDE_1.0.0-SR1_Lin64/Timer/Timer.c **** 	if(timer_start_flag){ 
 2606               		.stabn	68,0,463,.LM371-.LFBB27
 2607               	.LM371:
 2608               	.LFBB27:
 2609 08d6 1F92      		push r1
 2610 08d8 0F92      		push r0
 2611 08da 0FB6      		in r0,__SREG__
 2612 08dc 0F92      		push r0
 2613 08de 1124      		clr __zero_reg__
 2614 08e0 2F93      		push r18
 2615 08e2 3F93      		push r19
 2616 08e4 4F93      		push r20
 2617 08e6 5F93      		push r21
 2618 08e8 6F93      		push r22
 2619 08ea 7F93      		push r23
 2620 08ec 8F93      		push r24
 2621 08ee 9F93      		push r25
 2622 08f0 AF93      		push r26
 2623 08f2 BF93      		push r27
 2624 08f4 CF93      		push r28
 2625 08f6 DF93      		push r29
 2626 08f8 EF93      		push r30
 2627 08fa FF93      		push r31
 2628               	/* prologue: Signal */
 2629               	/* frame size = 0 */
 2630               	/* stack size = 17 */
 2631               	.L__stack_usage = 17
 464:/home/student/avr_src/SimulIDE_1.0.0-SR1_Lin64/Timer/Timer.c **** 		if(time_1s) time_1s--;
 2632               		.stabn	68,0,464,.LM372-.LFBB27
 2633               	.LM372:
 2634 08fc 8091 0000 		lds r24,timer_start_flag
 2635 0900 8823      		tst r24
 2636 0902 01F4      		brne .+2
 2637 0904 00C0      		rjmp .L144
 465:/home/student/avr_src/SimulIDE_1.0.0-SR1_Lin64/Timer/Timer.c **** 		if(time_10ms) {
 2638               		.stabn	68,0,465,.LM373-.LFBB27
 2639               	.LM373:
 2640 0906 8091 0000 		lds r24,time_1s
 2641 090a 9091 0000 		lds r25,time_1s+1
 2642 090e 892B      		or r24,r25
 2643 0910 01F0      		breq .L145
 465:/home/student/avr_src/SimulIDE_1.0.0-SR1_Lin64/Timer/Timer.c **** 		if(time_10ms) {
 2644               		.stabn	68,0,465,.LM374-.LFBB27
 2645               	.LM374:
 2646 0912 8091 0000 		lds r24,time_1s
 2647 0916 9091 0000 		lds r25,time_1s+1
 2648 091a 0197      		sbiw r24,1
 2649 091c 9093 0000 		sts time_1s+1,r25
 2650 0920 8093 0000 		sts time_1s,r24
 2651               	.L145:
 466:/home/student/avr_src/SimulIDE_1.0.0-SR1_Lin64/Timer/Timer.c **** 			time_10ms--;
 2652               		.stabn	68,0,466,.LM375-.LFBB27
 2653               	.LM375:
 2654 0924 8091 0000 		lds r24,time_10ms
 2655 0928 9091 0000 		lds r25,time_10ms+1
 2656 092c 892B      		or r24,r25
 2657 092e 01F0      		breq .L144
 467:/home/student/avr_src/SimulIDE_1.0.0-SR1_Lin64/Timer/Timer.c **** 			I2C_LCD_MoveRight(2);
 2658               		.stabn	68,0,467,.LM376-.LFBB27
 2659               	.LM376:
 2660 0930 8091 0000 		lds r24,time_10ms
 2661 0934 9091 0000 		lds r25,time_10ms+1
 2662 0938 0197      		sbiw r24,1
 2663 093a 9093 0000 		sts time_10ms+1,r25
 2664 093e 8093 0000 		sts time_10ms,r24
 468:/home/student/avr_src/SimulIDE_1.0.0-SR1_Lin64/Timer/Timer.c **** 			LCD_CharWrite(num2lcdbyte(time_10ms/10));
 2665               		.stabn	68,0,468,.LM377-.LFBB27
 2666               	.LM377:
 2667 0942 82E0      		ldi r24,lo8(2)
 2668 0944 0E94 0000 		call I2C_LCD_MoveRight
 469:/home/student/avr_src/SimulIDE_1.0.0-SR1_Lin64/Timer/Timer.c **** 			LCD_CharWrite(num2lcdbyte(time_10ms % 10));
 2669               		.stabn	68,0,469,.LM378-.LFBB27
 2670               	.LM378:
 2671 0948 8091 0000 		lds r24,time_10ms
 2672 094c 9091 0000 		lds r25,time_10ms+1
 2673 0950 CAE0      		ldi r28,lo8(10)
 2674 0952 D0E0      		ldi r29,0
 2675 0954 BE01      		movw r22,r28
 2676 0956 0E94 0000 		call __udivmodhi4
 2677 095a 862F      		mov r24,r22
 2678 095c 0E94 0000 		call num2lcdbyte
 2679 0960 0E94 0000 		call LCD_CharWrite
 470:/home/student/avr_src/SimulIDE_1.0.0-SR1_Lin64/Timer/Timer.c **** 			I2C_LCD_MoveLeft(4);
 2680               		.stabn	68,0,470,.LM379-.LFBB27
 2681               	.LM379:
 2682 0964 8091 0000 		lds r24,time_10ms
 2683 0968 9091 0000 		lds r25,time_10ms+1
 2684 096c BE01      		movw r22,r28
 2685 096e 0E94 0000 		call __udivmodhi4
 2686 0972 0E94 0000 		call num2lcdbyte
 2687 0976 0E94 0000 		call LCD_CharWrite
 471:/home/student/avr_src/SimulIDE_1.0.0-SR1_Lin64/Timer/Timer.c **** 			LCD_CharWrite(0x00C0);
 2688               		.stabn	68,0,471,.LM380-.LFBB27
 2689               	.LM380:
 2690 097a 84E0      		ldi r24,lo8(4)
 2691 097c 0E94 0000 		call I2C_LCD_MoveLeft
 472:/home/student/avr_src/SimulIDE_1.0.0-SR1_Lin64/Timer/Timer.c **** 			LCD_CharWrite(0x00C0);
 2692               		.stabn	68,0,472,.LM381-.LFBB27
 2693               	.LM381:
 2694 0980 80EC      		ldi r24,lo8(-64)
 2695 0982 90E0      		ldi r25,0
 2696 0984 0E94 0000 		call LCD_CharWrite
 473:/home/student/avr_src/SimulIDE_1.0.0-SR1_Lin64/Timer/Timer.c **** 		}
 2697               		.stabn	68,0,473,.LM382-.LFBB27
 2698               	.LM382:
 2699 0988 80EC      		ldi r24,lo8(-64)
 2700 098a 90E0      		ldi r25,0
 2701 098c 0E94 0000 		call LCD_CharWrite
 2702               	.L144:
 477:/home/student/avr_src/SimulIDE_1.0.0-SR1_Lin64/Timer/Timer.c **** 	if(sel_flag && key_flag){
 2703               		.stabn	68,0,477,.LM383-.LFBB27
 2704               	.LM383:
 2705 0990 0E94 0000 		call key_scan
 2706 0994 8093 0000 		sts key_data,r24
 478:/home/student/avr_src/SimulIDE_1.0.0-SR1_Lin64/Timer/Timer.c **** 		key_flag = 0;
 2707               		.stabn	68,0,478,.LM384-.LFBB27
 2708               	.LM384:
 2709 0998 8091 0000 		lds r24,sel_flag
 2710 099c 8823      		tst r24
 2711 099e 01F4      		brne .+2
 2712 09a0 00C0      		rjmp .L148
 478:/home/student/avr_src/SimulIDE_1.0.0-SR1_Lin64/Timer/Timer.c **** 		key_flag = 0;
 2713               		.stabn	68,0,478,.LM385-.LFBB27
 2714               	.LM385:
 2715 09a2 8091 0000 		lds r24,key_flag
 2716 09a6 8823      		tst r24
 2717 09a8 01F4      		brne .+2
 2718 09aa 00C0      		rjmp .L148
 479:/home/student/avr_src/SimulIDE_1.0.0-SR1_Lin64/Timer/Timer.c **** 		if(key_data == 0xff){
 2719               		.stabn	68,0,479,.LM386-.LFBB27
 2720               	.LM386:
 2721 09ac 1092 0000 		sts key_flag,__zero_reg__
 480:/home/student/avr_src/SimulIDE_1.0.0-SR1_Lin64/Timer/Timer.c ****             return;
 2722               		.stabn	68,0,480,.LM387-.LFBB27
 2723               	.LM387:
 2724 09b0 8091 0000 		lds r24,key_data
 2725 09b4 8F3F      		cpi r24,lo8(-1)
 2726 09b6 01F4      		brne .+2
 2727 09b8 00C0      		rjmp .L142
 484:/home/student/avr_src/SimulIDE_1.0.0-SR1_Lin64/Timer/Timer.c **** 			if(cp.x == 5){
 2728               		.stabn	68,0,484,.LM388-.LFBB27
 2729               	.LM388:
 2730 09ba 8091 0000 		lds r24,key_data
 2731 09be 8230      		cpi r24,lo8(2)
 2732 09c0 01F0      		breq .+2
 2733 09c2 00C0      		rjmp .L152
 485:/home/student/avr_src/SimulIDE_1.0.0-SR1_Lin64/Timer/Timer.c **** 				if((sel.MinNum + 10)< 60) {
 2734               		.stabn	68,0,485,.LM389-.LFBB27
 2735               	.LM389:
 2736 09c4 8091 0000 		lds r24,cp
 2737 09c8 9091 0000 		lds r25,cp+1
 2738 09cc 0597      		sbiw r24,5
 2739 09ce 01F4      		brne .L153
 486:/home/student/avr_src/SimulIDE_1.0.0-SR1_Lin64/Timer/Timer.c **** 					sel.MinNum = sel.MinNum + 10;
 2740               		.stabn	68,0,486,.LM390-.LFBB27
 2741               	.LM390:
 2742 09d0 8091 0000 		lds r24,sel+10
 2743 09d4 9091 0000 		lds r25,sel+10+1
 2744 09d8 C297      		sbiw r24,50
 2745 09da 04F4      		brge .L154
 487:/home/student/avr_src/SimulIDE_1.0.0-SR1_Lin64/Timer/Timer.c **** 					sel.n1++;
 2746               		.stabn	68,0,487,.LM391-.LFBB27
 2747               	.LM391:
 2748 09dc 8091 0000 		lds r24,sel+10
 2749 09e0 9091 0000 		lds r25,sel+10+1
 2750 09e4 0A96      		adiw r24,10
 2751 09e6 9093 0000 		sts sel+10+1,r25
 2752 09ea 8093 0000 		sts sel+10,r24
 488:/home/student/avr_src/SimulIDE_1.0.0-SR1_Lin64/Timer/Timer.c **** 				}
 2753               		.stabn	68,0,488,.LM392-.LFBB27
 2754               	.LM392:
 2755 09ee 8091 0000 		lds r24,sel
 2756 09f2 9091 0000 		lds r25,sel+1
 2757 09f6 0196      		adiw r24,1
 2758 09f8 9093 0000 		sts sel+1,r25
 2759 09fc 8093 0000 		sts sel,r24
 2760               	.L154:
 490:/home/student/avr_src/SimulIDE_1.0.0-SR1_Lin64/Timer/Timer.c ****         		LCD_CharWrite(0x1000);
 2761               		.stabn	68,0,490,.LM393-.LFBB27
 2762               	.LM393:
 2763 0a00 8091 0000 		lds r24,sel
 2764 0a04 9091 0000 		lds r25,sel+1
 2765 0a08 00C0      		rjmp .L207
 2766               	.L153:
 494:/home/student/avr_src/SimulIDE_1.0.0-SR1_Lin64/Timer/Timer.c **** 				if(sel.MinNum < 9) {
 2767               		.stabn	68,0,494,.LM394-.LFBB27
 2768               	.LM394:
 2769 0a0a 8091 0000 		lds r24,cp
 2770 0a0e 9091 0000 		lds r25,cp+1
 2771 0a12 0697      		sbiw r24,6
 2772 0a14 01F4      		brne .L155
 495:/home/student/avr_src/SimulIDE_1.0.0-SR1_Lin64/Timer/Timer.c **** 					sel.MinNum++;
 2773               		.stabn	68,0,495,.LM395-.LFBB27
 2774               	.LM395:
 2775 0a16 8091 0000 		lds r24,sel+10
 2776 0a1a 9091 0000 		lds r25,sel+10+1
 2777 0a1e 0997      		sbiw r24,9
 2778 0a20 04F4      		brge .L156
 496:/home/student/avr_src/SimulIDE_1.0.0-SR1_Lin64/Timer/Timer.c **** 					sel.n2++;
 2779               		.stabn	68,0,496,.LM396-.LFBB27
 2780               	.LM396:
 2781 0a22 8091 0000 		lds r24,sel+10
 2782 0a26 9091 0000 		lds r25,sel+10+1
 2783 0a2a 0196      		adiw r24,1
 2784 0a2c 9093 0000 		sts sel+10+1,r25
 2785 0a30 8093 0000 		sts sel+10,r24
 497:/home/student/avr_src/SimulIDE_1.0.0-SR1_Lin64/Timer/Timer.c **** 				}
 2786               		.stabn	68,0,497,.LM397-.LFBB27
 2787               	.LM397:
 2788 0a34 8091 0000 		lds r24,sel+2
 2789 0a38 9091 0000 		lds r25,sel+2+1
 2790 0a3c 0196      		adiw r24,1
 2791 0a3e 9093 0000 		sts sel+2+1,r25
 2792 0a42 8093 0000 		sts sel+2,r24
 2793               	.L156:
 499:/home/student/avr_src/SimulIDE_1.0.0-SR1_Lin64/Timer/Timer.c ****         		LCD_CharWrite(0x1000);
 2794               		.stabn	68,0,499,.LM398-.LFBB27
 2795               	.LM398:
 2796 0a46 8091 0000 		lds r24,sel+2
 2797 0a4a 9091 0000 		lds r25,sel+2+1
 2798 0a4e 00C0      		rjmp .L207
 2799               	.L155:
 503:/home/student/avr_src/SimulIDE_1.0.0-SR1_Lin64/Timer/Timer.c **** 				if((sel.SecNum + 10) < 60) {
 2800               		.stabn	68,0,503,.LM399-.LFBB27
 2801               	.LM399:
 2802 0a50 8091 0000 		lds r24,cp
 2803 0a54 9091 0000 		lds r25,cp+1
 2804 0a58 0897      		sbiw r24,8
 2805 0a5a 01F4      		brne .L157
 504:/home/student/avr_src/SimulIDE_1.0.0-SR1_Lin64/Timer/Timer.c **** 					sel.SecNum = sel.SecNum + 10;
 2806               		.stabn	68,0,504,.LM400-.LFBB27
 2807               	.LM400:
 2808 0a5c 8091 0000 		lds r24,sel+8
 2809 0a60 9091 0000 		lds r25,sel+8+1
 2810 0a64 C297      		sbiw r24,50
 2811 0a66 04F4      		brge .L158
 505:/home/student/avr_src/SimulIDE_1.0.0-SR1_Lin64/Timer/Timer.c **** 					sel.n3++;
 2812               		.stabn	68,0,505,.LM401-.LFBB27
 2813               	.LM401:
 2814 0a68 8091 0000 		lds r24,sel+8
 2815 0a6c 9091 0000 		lds r25,sel+8+1
 2816 0a70 0A96      		adiw r24,10
 2817 0a72 9093 0000 		sts sel+8+1,r25
 2818 0a76 8093 0000 		sts sel+8,r24
 506:/home/student/avr_src/SimulIDE_1.0.0-SR1_Lin64/Timer/Timer.c **** 				}
 2819               		.stabn	68,0,506,.LM402-.LFBB27
 2820               	.LM402:
 2821 0a7a 8091 0000 		lds r24,sel+4
 2822 0a7e 9091 0000 		lds r25,sel+4+1
 2823 0a82 0196      		adiw r24,1
 2824 0a84 9093 0000 		sts sel+4+1,r25
 2825 0a88 8093 0000 		sts sel+4,r24
 2826               	.L158:
 508:/home/student/avr_src/SimulIDE_1.0.0-SR1_Lin64/Timer/Timer.c ****         		LCD_CharWrite(0x1000);
 2827               		.stabn	68,0,508,.LM403-.LFBB27
 2828               	.LM403:
 2829 0a8c 8091 0000 		lds r24,sel+4
 2830 0a90 9091 0000 		lds r25,sel+4+1
 2831 0a94 00C0      		rjmp .L207
 2832               	.L157:
 512:/home/student/avr_src/SimulIDE_1.0.0-SR1_Lin64/Timer/Timer.c **** 				if(sel.SecNum < 9) {
 2833               		.stabn	68,0,512,.LM404-.LFBB27
 2834               	.LM404:
 2835 0a96 8091 0000 		lds r24,cp
 2836 0a9a 9091 0000 		lds r25,cp+1
 2837 0a9e 0997      		sbiw r24,9
 2838 0aa0 01F4      		brne .L152
 513:/home/student/avr_src/SimulIDE_1.0.0-SR1_Lin64/Timer/Timer.c **** 					sel.SecNum++;
 2839               		.stabn	68,0,513,.LM405-.LFBB27
 2840               	.LM405:
 2841 0aa2 8091 0000 		lds r24,sel+8
 2842 0aa6 9091 0000 		lds r25,sel+8+1
 2843 0aaa 0997      		sbiw r24,9
 2844 0aac 04F4      		brge .L159
 514:/home/student/avr_src/SimulIDE_1.0.0-SR1_Lin64/Timer/Timer.c **** 					sel.n4++;
 2845               		.stabn	68,0,514,.LM406-.LFBB27
 2846               	.LM406:
 2847 0aae 8091 0000 		lds r24,sel+8
 2848 0ab2 9091 0000 		lds r25,sel+8+1
 2849 0ab6 0196      		adiw r24,1
 2850 0ab8 9093 0000 		sts sel+8+1,r25
 2851 0abc 8093 0000 		sts sel+8,r24
 515:/home/student/avr_src/SimulIDE_1.0.0-SR1_Lin64/Timer/Timer.c **** 				}
 2852               		.stabn	68,0,515,.LM407-.LFBB27
 2853               	.LM407:
 2854 0ac0 8091 0000 		lds r24,sel+6
 2855 0ac4 9091 0000 		lds r25,sel+6+1
 2856 0ac8 0196      		adiw r24,1
 2857 0aca 9093 0000 		sts sel+6+1,r25
 2858 0ace 8093 0000 		sts sel+6,r24
 2859               	.L159:
 517:/home/student/avr_src/SimulIDE_1.0.0-SR1_Lin64/Timer/Timer.c ****         		LCD_CharWrite(0x1000);
 2860               		.stabn	68,0,517,.LM408-.LFBB27
 2861               	.LM408:
 2862 0ad2 8091 0000 		lds r24,sel+6
 2863 0ad6 9091 0000 		lds r25,sel+6+1
 2864               	.L207:
 2865 0ada 0E94 0000 		call num2lcdbyte
 2866 0ade 0E94 0000 		call LCD_CharWrite
 518:/home/student/avr_src/SimulIDE_1.0.0-SR1_Lin64/Timer/Timer.c ****         		LCD_CharWrite(0x00F0);
 2867               		.stabn	68,0,518,.LM409-.LFBB27
 2868               	.LM409:
 2869 0ae2 80E0      		ldi r24,0
 2870 0ae4 90E1      		ldi r25,lo8(16)
 2871 0ae6 0E94 0000 		call LCD_CharWrite
 519:/home/student/avr_src/SimulIDE_1.0.0-SR1_Lin64/Timer/Timer.c **** 			}
 2872               		.stabn	68,0,519,.LM410-.LFBB27
 2873               	.LM410:
 2874 0aea 80EF      		ldi r24,lo8(-16)
 2875 0aec 90E0      		ldi r25,0
 2876 0aee 0E94 0000 		call LCD_CharWrite
 2877               	.L152:
 522:/home/student/avr_src/SimulIDE_1.0.0-SR1_Lin64/Timer/Timer.c **** 			I2C_LCD_SELECT();
 2878               		.stabn	68,0,522,.LM411-.LFBB27
 2879               	.LM411:
 2880 0af2 8091 0000 		lds r24,key_data
 2881 0af6 8530      		cpi r24,lo8(5)
 2882 0af8 01F4      		brne .L160
 523:/home/student/avr_src/SimulIDE_1.0.0-SR1_Lin64/Timer/Timer.c **** 			TIME_SETTING(sel.MinNum, sel.SecNum);
 2883               		.stabn	68,0,523,.LM412-.LFBB27
 2884               	.LM412:
 2885 0afa 0E94 0000 		call I2C_LCD_SELECT
 524:/home/student/avr_src/SimulIDE_1.0.0-SR1_Lin64/Timer/Timer.c **** 		}
 2886               		.stabn	68,0,524,.LM413-.LFBB27
 2887               	.LM413:
 2888 0afe 6091 0000 		lds r22,sel+8
 2889 0b02 7091 0000 		lds r23,sel+8+1
 2890 0b06 8091 0000 		lds r24,sel+10
 2891 0b0a 9091 0000 		lds r25,sel+10+1
 2892 0b0e 0E94 0000 		call TIME_SETTING
 2893               	.L160:
 527:/home/student/avr_src/SimulIDE_1.0.0-SR1_Lin64/Timer/Timer.c **** 			if(cp.x == 5){
 2894               		.stabn	68,0,527,.LM414-.LFBB27
 2895               	.LM414:
 2896 0b12 8091 0000 		lds r24,key_data
 2897 0b16 8830      		cpi r24,lo8(8)
 2898 0b18 01F0      		breq .+2
 2899 0b1a 00C0      		rjmp .L148
 528:/home/student/avr_src/SimulIDE_1.0.0-SR1_Lin64/Timer/Timer.c **** 				if(sel.MinNum > 10 && sel.n1 > 0) {
 2900               		.stabn	68,0,528,.LM415-.LFBB27
 2901               	.LM415:
 2902 0b1c 8091 0000 		lds r24,cp
 2903 0b20 9091 0000 		lds r25,cp+1
 2904 0b24 0597      		sbiw r24,5
 2905 0b26 01F4      		brne .L161
 529:/home/student/avr_src/SimulIDE_1.0.0-SR1_Lin64/Timer/Timer.c **** 					sel.MinNum = sel.MinNum - 10;
 2906               		.stabn	68,0,529,.LM416-.LFBB27
 2907               	.LM416:
 2908 0b28 8091 0000 		lds r24,sel+10
 2909 0b2c 9091 0000 		lds r25,sel+10+1
 2910 0b30 0B97      		sbiw r24,11
 2911 0b32 04F0      		brlt .L162
 529:/home/student/avr_src/SimulIDE_1.0.0-SR1_Lin64/Timer/Timer.c **** 					sel.MinNum = sel.MinNum - 10;
 2912               		.stabn	68,0,529,.LM417-.LFBB27
 2913               	.LM417:
 2914 0b34 8091 0000 		lds r24,sel
 2915 0b38 9091 0000 		lds r25,sel+1
 2916 0b3c 1816      		cp __zero_reg__,r24
 2917 0b3e 1906      		cpc __zero_reg__,r25
 2918 0b40 04F4      		brge .L162
 530:/home/student/avr_src/SimulIDE_1.0.0-SR1_Lin64/Timer/Timer.c **** 					sel.n1--;
 2919               		.stabn	68,0,530,.LM418-.LFBB27
 2920               	.LM418:
 2921 0b42 8091 0000 		lds r24,sel+10
 2922 0b46 9091 0000 		lds r25,sel+10+1
 2923 0b4a 0A97      		sbiw r24,10
 2924 0b4c 9093 0000 		sts sel+10+1,r25
 2925 0b50 8093 0000 		sts sel+10,r24
 531:/home/student/avr_src/SimulIDE_1.0.0-SR1_Lin64/Timer/Timer.c **** 				}
 2926               		.stabn	68,0,531,.LM419-.LFBB27
 2927               	.LM419:
 2928 0b54 8091 0000 		lds r24,sel
 2929 0b58 9091 0000 		lds r25,sel+1
 2930 0b5c 0197      		sbiw r24,1
 2931 0b5e 9093 0000 		sts sel+1,r25
 2932 0b62 8093 0000 		sts sel,r24
 2933               	.L162:
 533:/home/student/avr_src/SimulIDE_1.0.0-SR1_Lin64/Timer/Timer.c ****         		LCD_CharWrite(0x1000);
 2934               		.stabn	68,0,533,.LM420-.LFBB27
 2935               	.LM420:
 2936 0b66 8091 0000 		lds r24,sel
 2937 0b6a 9091 0000 		lds r25,sel+1
 2938 0b6e 00C0      		rjmp .L208
 2939               	.L161:
 537:/home/student/avr_src/SimulIDE_1.0.0-SR1_Lin64/Timer/Timer.c **** 				if(sel.MinNum > 0) {
 2940               		.stabn	68,0,537,.LM421-.LFBB27
 2941               	.LM421:
 2942 0b70 8091 0000 		lds r24,cp
 2943 0b74 9091 0000 		lds r25,cp+1
 2944 0b78 0697      		sbiw r24,6
 2945 0b7a 01F4      		brne .L163
 538:/home/student/avr_src/SimulIDE_1.0.0-SR1_Lin64/Timer/Timer.c **** 					sel.MinNum--;
 2946               		.stabn	68,0,538,.LM422-.LFBB27
 2947               	.LM422:
 2948 0b7c 8091 0000 		lds r24,sel+10
 2949 0b80 9091 0000 		lds r25,sel+10+1
 2950 0b84 1816      		cp __zero_reg__,r24
 2951 0b86 1906      		cpc __zero_reg__,r25
 2952 0b88 04F4      		brge .L164
 539:/home/student/avr_src/SimulIDE_1.0.0-SR1_Lin64/Timer/Timer.c **** 					sel.n2--;
 2953               		.stabn	68,0,539,.LM423-.LFBB27
 2954               	.LM423:
 2955 0b8a 8091 0000 		lds r24,sel+10
 2956 0b8e 9091 0000 		lds r25,sel+10+1
 2957 0b92 0197      		sbiw r24,1
 2958 0b94 9093 0000 		sts sel+10+1,r25
 2959 0b98 8093 0000 		sts sel+10,r24
 540:/home/student/avr_src/SimulIDE_1.0.0-SR1_Lin64/Timer/Timer.c **** 				}
 2960               		.stabn	68,0,540,.LM424-.LFBB27
 2961               	.LM424:
 2962 0b9c 8091 0000 		lds r24,sel+2
 2963 0ba0 9091 0000 		lds r25,sel+2+1
 2964 0ba4 0197      		sbiw r24,1
 2965 0ba6 9093 0000 		sts sel+2+1,r25
 2966 0baa 8093 0000 		sts sel+2,r24
 2967               	.L164:
 542:/home/student/avr_src/SimulIDE_1.0.0-SR1_Lin64/Timer/Timer.c ****         		LCD_CharWrite(0x1000);
 2968               		.stabn	68,0,542,.LM425-.LFBB27
 2969               	.LM425:
 2970 0bae 8091 0000 		lds r24,sel+2
 2971 0bb2 9091 0000 		lds r25,sel+2+1
 2972 0bb6 00C0      		rjmp .L208
 2973               	.L163:
 546:/home/student/avr_src/SimulIDE_1.0.0-SR1_Lin64/Timer/Timer.c **** 				if(sel.SecNum > 10 && sel.n3 > 0) {
 2974               		.stabn	68,0,546,.LM426-.LFBB27
 2975               	.LM426:
 2976 0bb8 8091 0000 		lds r24,cp
 2977 0bbc 9091 0000 		lds r25,cp+1
 2978 0bc0 0897      		sbiw r24,8
 2979 0bc2 01F4      		brne .L165
 547:/home/student/avr_src/SimulIDE_1.0.0-SR1_Lin64/Timer/Timer.c **** 					sel.SecNum = sel.SecNum - 10;
 2980               		.stabn	68,0,547,.LM427-.LFBB27
 2981               	.LM427:
 2982 0bc4 8091 0000 		lds r24,sel+8
 2983 0bc8 9091 0000 		lds r25,sel+8+1
 2984 0bcc 0B97      		sbiw r24,11
 2985 0bce 04F0      		brlt .L166
 547:/home/student/avr_src/SimulIDE_1.0.0-SR1_Lin64/Timer/Timer.c **** 					sel.SecNum = sel.SecNum - 10;
 2986               		.stabn	68,0,547,.LM428-.LFBB27
 2987               	.LM428:
 2988 0bd0 8091 0000 		lds r24,sel+4
 2989 0bd4 9091 0000 		lds r25,sel+4+1
 2990 0bd8 1816      		cp __zero_reg__,r24
 2991 0bda 1906      		cpc __zero_reg__,r25
 2992 0bdc 04F4      		brge .L166
 548:/home/student/avr_src/SimulIDE_1.0.0-SR1_Lin64/Timer/Timer.c **** 					sel.n3--;
 2993               		.stabn	68,0,548,.LM429-.LFBB27
 2994               	.LM429:
 2995 0bde 8091 0000 		lds r24,sel+8
 2996 0be2 9091 0000 		lds r25,sel+8+1
 2997 0be6 0A97      		sbiw r24,10
 2998 0be8 9093 0000 		sts sel+8+1,r25
 2999 0bec 8093 0000 		sts sel+8,r24
 549:/home/student/avr_src/SimulIDE_1.0.0-SR1_Lin64/Timer/Timer.c **** 				}
 3000               		.stabn	68,0,549,.LM430-.LFBB27
 3001               	.LM430:
 3002 0bf0 8091 0000 		lds r24,sel+4
 3003 0bf4 9091 0000 		lds r25,sel+4+1
 3004 0bf8 0197      		sbiw r24,1
 3005 0bfa 9093 0000 		sts sel+4+1,r25
 3006 0bfe 8093 0000 		sts sel+4,r24
 3007               	.L166:
 551:/home/student/avr_src/SimulIDE_1.0.0-SR1_Lin64/Timer/Timer.c ****         		LCD_CharWrite(0x1000);
 3008               		.stabn	68,0,551,.LM431-.LFBB27
 3009               	.LM431:
 3010 0c02 8091 0000 		lds r24,sel+4
 3011 0c06 9091 0000 		lds r25,sel+4+1
 3012 0c0a 00C0      		rjmp .L208
 3013               	.L165:
 555:/home/student/avr_src/SimulIDE_1.0.0-SR1_Lin64/Timer/Timer.c **** 				if(sel.SecNum > 0) {
 3014               		.stabn	68,0,555,.LM432-.LFBB27
 3015               	.LM432:
 3016 0c0c 8091 0000 		lds r24,cp
 3017 0c10 9091 0000 		lds r25,cp+1
 3018 0c14 0997      		sbiw r24,9
 3019 0c16 01F4      		brne .L148
 556:/home/student/avr_src/SimulIDE_1.0.0-SR1_Lin64/Timer/Timer.c **** 					sel.SecNum--;
 3020               		.stabn	68,0,556,.LM433-.LFBB27
 3021               	.LM433:
 3022 0c18 8091 0000 		lds r24,sel+8
 3023 0c1c 9091 0000 		lds r25,sel+8+1
 3024 0c20 1816      		cp __zero_reg__,r24
 3025 0c22 1906      		cpc __zero_reg__,r25
 3026 0c24 04F4      		brge .L167
 557:/home/student/avr_src/SimulIDE_1.0.0-SR1_Lin64/Timer/Timer.c **** 					sel.n4--;
 3027               		.stabn	68,0,557,.LM434-.LFBB27
 3028               	.LM434:
 3029 0c26 8091 0000 		lds r24,sel+8
 3030 0c2a 9091 0000 		lds r25,sel+8+1
 3031 0c2e 0197      		sbiw r24,1
 3032 0c30 9093 0000 		sts sel+8+1,r25
 3033 0c34 8093 0000 		sts sel+8,r24
 558:/home/student/avr_src/SimulIDE_1.0.0-SR1_Lin64/Timer/Timer.c **** 				}
 3034               		.stabn	68,0,558,.LM435-.LFBB27
 3035               	.LM435:
 3036 0c38 8091 0000 		lds r24,sel+6
 3037 0c3c 9091 0000 		lds r25,sel+6+1
 3038 0c40 0197      		sbiw r24,1
 3039 0c42 9093 0000 		sts sel+6+1,r25
 3040 0c46 8093 0000 		sts sel+6,r24
 3041               	.L167:
 560:/home/student/avr_src/SimulIDE_1.0.0-SR1_Lin64/Timer/Timer.c ****         		LCD_CharWrite(0x1000);
 3042               		.stabn	68,0,560,.LM436-.LFBB27
 3043               	.LM436:
 3044 0c4a 8091 0000 		lds r24,sel+6
 3045 0c4e 9091 0000 		lds r25,sel+6+1
 3046               	.L208:
 3047 0c52 0E94 0000 		call num2lcdbyte
 3048 0c56 0E94 0000 		call LCD_CharWrite
 561:/home/student/avr_src/SimulIDE_1.0.0-SR1_Lin64/Timer/Timer.c ****         		LCD_CharWrite(0x00F0);
 3049               		.stabn	68,0,561,.LM437-.LFBB27
 3050               	.LM437:
 3051 0c5a 80E0      		ldi r24,0
 3052 0c5c 90E1      		ldi r25,lo8(16)
 3053 0c5e 0E94 0000 		call LCD_CharWrite
 562:/home/student/avr_src/SimulIDE_1.0.0-SR1_Lin64/Timer/Timer.c **** 			}
 3054               		.stabn	68,0,562,.LM438-.LFBB27
 3055               	.LM438:
 3056 0c62 80EF      		ldi r24,lo8(-16)
 3057 0c64 90E0      		ldi r25,0
 3058 0c66 0E94 0000 		call LCD_CharWrite
 3059               	.L148:
 567:/home/student/avr_src/SimulIDE_1.0.0-SR1_Lin64/Timer/Timer.c **** 		key_flag = 0;
 3060               		.stabn	68,0,567,.LM439-.LFBB27
 3061               	.LM439:
 3062 0c6a 8091 0000 		lds r24,key_flag
 3063 0c6e 8823      		tst r24
 3064 0c70 01F4      		brne .+2
 3065 0c72 00C0      		rjmp .L168
 567:/home/student/avr_src/SimulIDE_1.0.0-SR1_Lin64/Timer/Timer.c **** 		key_flag = 0;
 3066               		.stabn	68,0,567,.LM440-.LFBB27
 3067               	.LM440:
 3068 0c74 8091 0000 		lds r24,sel_flag
 3069 0c78 8111      		cpse r24,__zero_reg__
 3070 0c7a 00C0      		rjmp .L168
 568:/home/student/avr_src/SimulIDE_1.0.0-SR1_Lin64/Timer/Timer.c **** 		if(key_data == 0xff){
 3071               		.stabn	68,0,568,.LM441-.LFBB27
 3072               	.LM441:
 3073 0c7c 1092 0000 		sts key_flag,__zero_reg__
 569:/home/student/avr_src/SimulIDE_1.0.0-SR1_Lin64/Timer/Timer.c ****             return;
 3074               		.stabn	68,0,569,.LM442-.LFBB27
 3075               	.LM442:
 3076 0c80 8091 0000 		lds r24,key_data
 3077 0c84 8F3F      		cpi r24,lo8(-1)
 3078 0c86 01F4      		brne .+2
 3079 0c88 00C0      		rjmp .L142
 572:/home/student/avr_src/SimulIDE_1.0.0-SR1_Lin64/Timer/Timer.c **** 			I2C_Timer_Default(); //set 00:00:00
 3080               		.stabn	68,0,572,.LM443-.LFBB27
 3081               	.LM443:
 3082 0c8a 8091 0000 		lds r24,key_data
 3083 0c8e 8A30      		cpi r24,lo8(10)
 3084 0c90 01F4      		brne .L170
 573:/home/student/avr_src/SimulIDE_1.0.0-SR1_Lin64/Timer/Timer.c ****         }
 3085               		.stabn	68,0,573,.LM444-.LFBB27
 3086               	.LM444:
 3087 0c92 0E94 0000 		call I2C_Timer_Default
 3088               	.L170:
 575:/home/student/avr_src/SimulIDE_1.0.0-SR1_Lin64/Timer/Timer.c **** 			if(cp.x > 9) {
 3089               		.stabn	68,0,575,.LM445-.LFBB27
 3090               	.LM445:
 3091 0c96 8091 0000 		lds r24,key_data
 3092 0c9a 8B30      		cpi r24,lo8(11)
 3093 0c9c 01F4      		brne .L171
 576:/home/student/avr_src/SimulIDE_1.0.0-SR1_Lin64/Timer/Timer.c **** 				I2C_LCD_MoveLeft(cp.x - 9);
 3094               		.stabn	68,0,576,.LM446-.LFBB27
 3095               	.LM446:
 3096 0c9e 8091 0000 		lds r24,cp
 3097 0ca2 9091 0000 		lds r25,cp+1
 3098 0ca6 0A97      		sbiw r24,10
 3099 0ca8 04F0      		brlt .L172
 577:/home/student/avr_src/SimulIDE_1.0.0-SR1_Lin64/Timer/Timer.c **** 				cp.x = 9;
 3100               		.stabn	68,0,577,.LM447-.LFBB27
 3101               	.LM447:
 3102 0caa 8091 0000 		lds r24,cp
 3103 0cae 9091 0000 		lds r25,cp+1
 3104 0cb2 8950      		subi r24,lo8(-(-9))
 3105 0cb4 0E94 0000 		call I2C_LCD_MoveLeft
 3106 0cb8 00C0      		rjmp .L209
 3107               	.L172:
 582:/home/student/avr_src/SimulIDE_1.0.0-SR1_Lin64/Timer/Timer.c **** 				I2C_LCD_MoveRight(9 -cp.x);
 3108               		.stabn	68,0,582,.LM448-.LFBB27
 3109               	.LM448:
 3110 0cba 8091 0000 		lds r24,cp
 3111 0cbe 9091 0000 		lds r25,cp+1
 3112 0cc2 0997      		sbiw r24,9
 3113 0cc4 04F4      		brge .L173
 583:/home/student/avr_src/SimulIDE_1.0.0-SR1_Lin64/Timer/Timer.c **** 				cp.x = 9;
 3114               		.stabn	68,0,583,.LM449-.LFBB27
 3115               	.LM449:
 3116 0cc6 2091 0000 		lds r18,cp
 3117 0cca 3091 0000 		lds r19,cp+1
 3118 0cce 89E0      		ldi r24,lo8(9)
 3119 0cd0 821B      		sub r24,r18
 3120 0cd2 0E94 0000 		call I2C_LCD_MoveRight
 3121               	.L209:
 584:/home/student/avr_src/SimulIDE_1.0.0-SR1_Lin64/Timer/Timer.c **** 				LCD_CharWrite(0x00C0);
 3122               		.stabn	68,0,584,.LM450-.LFBB27
 3123               	.LM450:
 3124 0cd6 89E0      		ldi r24,lo8(9)
 3125 0cd8 90E0      		ldi r25,0
 3126 0cda 9093 0000 		sts cp+1,r25
 3127 0cde 8093 0000 		sts cp,r24
 585:/home/student/avr_src/SimulIDE_1.0.0-SR1_Lin64/Timer/Timer.c **** 				LCD_CharWrite(0x00C0);
 3128               		.stabn	68,0,585,.LM451-.LFBB27
 3129               	.LM451:
 3130 0ce2 80EC      		ldi r24,lo8(-64)
 3131 0ce4 90E0      		ldi r25,0
 3132 0ce6 0E94 0000 		call LCD_CharWrite
 586:/home/student/avr_src/SimulIDE_1.0.0-SR1_Lin64/Timer/Timer.c **** 			}
 3133               		.stabn	68,0,586,.LM452-.LFBB27
 3134               	.LM452:
 3135 0cea 80EC      		ldi r24,lo8(-64)
 3136 0cec 90E0      		ldi r25,0
 3137 0cee 0E94 0000 		call LCD_CharWrite
 3138               	.L173:
 588:/home/student/avr_src/SimulIDE_1.0.0-SR1_Lin64/Timer/Timer.c **** 		}                                                       
 3139               		.stabn	68,0,588,.LM453-.LFBB27
 3140               	.LM453:
 3141 0cf2 9091 0000 		lds r25,timer_start_flag
 3142 0cf6 81E0      		ldi r24,lo8(1)
 3143 0cf8 8927      		eor r24,r25
 3144 0cfa 8093 0000 		sts timer_start_flag,r24
 3145               	.L171:
 590:/home/student/avr_src/SimulIDE_1.0.0-SR1_Lin64/Timer/Timer.c **** 			
 3146               		.stabn	68,0,590,.LM454-.LFBB27
 3147               	.LM454:
 3148 0cfe 8091 0000 		lds r24,key_data
 593:/home/student/avr_src/SimulIDE_1.0.0-SR1_Lin64/Timer/Timer.c **** 			I2C_Timer_act();
 3149               		.stabn	68,0,593,.LM455-.LFBB27
 3150               	.LM455:
 3151 0d02 8091 0000 		lds r24,key_data
 3152 0d06 8330      		cpi r24,lo8(3)
 3153 0d08 01F4      		brne .L174
 594:/home/student/avr_src/SimulIDE_1.0.0-SR1_Lin64/Timer/Timer.c **** 		}
 3154               		.stabn	68,0,594,.LM456-.LFBB27
 3155               	.LM456:
 3156 0d0a 0E94 0000 		call I2C_Timer_act
 3157               	.L174:
 596:/home/student/avr_src/SimulIDE_1.0.0-SR1_Lin64/Timer/Timer.c **** 			if(cp.x > 5){
 3158               		.stabn	68,0,596,.LM457-.LFBB27
 3159               	.LM457:
 3160 0d0e 8091 0000 		lds r24,key_data
 3161 0d12 8430      		cpi r24,lo8(4)
 3162 0d14 01F4      		brne .L175
 596:/home/student/avr_src/SimulIDE_1.0.0-SR1_Lin64/Timer/Timer.c **** 			if(cp.x > 5){
 3163               		.stabn	68,0,596,.LM458-.LFBB27
 3164               	.LM458:
 3165 0d16 8091 0000 		lds r24,timer_start_flag
 3166 0d1a 8111      		cpse r24,__zero_reg__
 3167 0d1c 00C0      		rjmp .L175
 597:/home/student/avr_src/SimulIDE_1.0.0-SR1_Lin64/Timer/Timer.c **** 				if(cp.x == 8) {
 3168               		.stabn	68,0,597,.LM459-.LFBB27
 3169               	.LM459:
 3170 0d1e 8091 0000 		lds r24,cp
 3171 0d22 9091 0000 		lds r25,cp+1
 3172 0d26 0697      		sbiw r24,6
 3173 0d28 04F0      		brlt .L175
 598:/home/student/avr_src/SimulIDE_1.0.0-SR1_Lin64/Timer/Timer.c **** 					I2C_LCD_MoveLeft(2);
 3174               		.stabn	68,0,598,.LM460-.LFBB27
 3175               	.LM460:
 3176 0d2a 8091 0000 		lds r24,cp
 3177 0d2e 9091 0000 		lds r25,cp+1
 3178 0d32 0897      		sbiw r24,8
 3179 0d34 01F4      		brne .L176
 599:/home/student/avr_src/SimulIDE_1.0.0-SR1_Lin64/Timer/Timer.c **** 					cp.x = cp.x -2;
 3180               		.stabn	68,0,599,.LM461-.LFBB27
 3181               	.LM461:
 3182 0d36 82E0      		ldi r24,lo8(2)
 3183 0d38 0E94 0000 		call I2C_LCD_MoveLeft
 600:/home/student/avr_src/SimulIDE_1.0.0-SR1_Lin64/Timer/Timer.c **** 				}
 3184               		.stabn	68,0,600,.LM462-.LFBB27
 3185               	.LM462:
 3186 0d3c 8091 0000 		lds r24,cp
 3187 0d40 9091 0000 		lds r25,cp+1
 3188 0d44 0297      		sbiw r24,2
 3189 0d46 00C0      		rjmp .L210
 3190               	.L176:
 603:/home/student/avr_src/SimulIDE_1.0.0-SR1_Lin64/Timer/Timer.c **** 					cp.x--;
 3191               		.stabn	68,0,603,.LM463-.LFBB27
 3192               	.LM463:
 3193 0d48 81E0      		ldi r24,lo8(1)
 3194 0d4a 0E94 0000 		call I2C_LCD_MoveLeft
 604:/home/student/avr_src/SimulIDE_1.0.0-SR1_Lin64/Timer/Timer.c **** 				}
 3195               		.stabn	68,0,604,.LM464-.LFBB27
 3196               	.LM464:
 3197 0d4e 8091 0000 		lds r24,cp
 3198 0d52 9091 0000 		lds r25,cp+1
 3199 0d56 0197      		sbiw r24,1
 3200               	.L210:
 3201 0d58 9093 0000 		sts cp+1,r25
 3202 0d5c 8093 0000 		sts cp,r24
 3203               	.L175:
 608:/home/student/avr_src/SimulIDE_1.0.0-SR1_Lin64/Timer/Timer.c **** 			if(cp.x == 5 || cp.x == 6 || cp.x == 8 || cp.x == 9) I2C_LCD_SELECT();
 3204               		.stabn	68,0,608,.LM465-.LFBB27
 3205               	.LM465:
 3206 0d60 8091 0000 		lds r24,key_data
 3207 0d64 8530      		cpi r24,lo8(5)
 3208 0d66 01F4      		brne .L177
 609:/home/student/avr_src/SimulIDE_1.0.0-SR1_Lin64/Timer/Timer.c **** 		}
 3209               		.stabn	68,0,609,.LM466-.LFBB27
 3210               	.LM466:
 3211 0d68 8091 0000 		lds r24,cp
 3212 0d6c 9091 0000 		lds r25,cp+1
 3213 0d70 0597      		sbiw r24,5
 3214 0d72 01F0      		breq .L178
 609:/home/student/avr_src/SimulIDE_1.0.0-SR1_Lin64/Timer/Timer.c **** 		}
 3215               		.stabn	68,0,609,.LM467-.LFBB27
 3216               	.LM467:
 3217 0d74 8091 0000 		lds r24,cp
 3218 0d78 9091 0000 		lds r25,cp+1
 3219 0d7c 0697      		sbiw r24,6
 3220 0d7e 01F0      		breq .L178
 609:/home/student/avr_src/SimulIDE_1.0.0-SR1_Lin64/Timer/Timer.c **** 		}
 3221               		.stabn	68,0,609,.LM468-.LFBB27
 3222               	.LM468:
 3223 0d80 8091 0000 		lds r24,cp
 3224 0d84 9091 0000 		lds r25,cp+1
 3225 0d88 0897      		sbiw r24,8
 3226 0d8a 01F0      		breq .L178
 609:/home/student/avr_src/SimulIDE_1.0.0-SR1_Lin64/Timer/Timer.c **** 		}
 3227               		.stabn	68,0,609,.LM469-.LFBB27
 3228               	.LM469:
 3229 0d8c 8091 0000 		lds r24,cp
 3230 0d90 9091 0000 		lds r25,cp+1
 3231 0d94 0997      		sbiw r24,9
 3232 0d96 01F4      		brne .L177
 3233               	.L178:
 609:/home/student/avr_src/SimulIDE_1.0.0-SR1_Lin64/Timer/Timer.c **** 		}
 3234               		.stabn	68,0,609,.LM470-.LFBB27
 3235               	.LM470:
 3236 0d98 0E94 0000 		call I2C_LCD_SELECT
 3237               	.L177:
 611:/home/student/avr_src/SimulIDE_1.0.0-SR1_Lin64/Timer/Timer.c **** 			if(cp.x < 9){
 3238               		.stabn	68,0,611,.LM471-.LFBB27
 3239               	.LM471:
 3240 0d9c 8091 0000 		lds r24,key_data
 3241 0da0 8630      		cpi r24,lo8(6)
 3242 0da2 01F4      		brne .L179
 611:/home/student/avr_src/SimulIDE_1.0.0-SR1_Lin64/Timer/Timer.c **** 			if(cp.x < 9){
 3243               		.stabn	68,0,611,.LM472-.LFBB27
 3244               	.LM472:
 3245 0da4 8091 0000 		lds r24,timer_start_flag
 3246 0da8 8111      		cpse r24,__zero_reg__
 3247 0daa 00C0      		rjmp .L179
 612:/home/student/avr_src/SimulIDE_1.0.0-SR1_Lin64/Timer/Timer.c **** 				if(cp.x == 6){
 3248               		.stabn	68,0,612,.LM473-.LFBB27
 3249               	.LM473:
 3250 0dac 8091 0000 		lds r24,cp
 3251 0db0 9091 0000 		lds r25,cp+1
 3252 0db4 0997      		sbiw r24,9
 3253 0db6 04F4      		brge .L179
 613:/home/student/avr_src/SimulIDE_1.0.0-SR1_Lin64/Timer/Timer.c **** 					I2C_LCD_MoveRight(2);
 3254               		.stabn	68,0,613,.LM474-.LFBB27
 3255               	.LM474:
 3256 0db8 8091 0000 		lds r24,cp
 3257 0dbc 9091 0000 		lds r25,cp+1
 3258 0dc0 0697      		sbiw r24,6
 3259 0dc2 01F4      		brne .L180
 614:/home/student/avr_src/SimulIDE_1.0.0-SR1_Lin64/Timer/Timer.c **** 					cp.x = cp.x + 2;
 3260               		.stabn	68,0,614,.LM475-.LFBB27
 3261               	.LM475:
 3262 0dc4 82E0      		ldi r24,lo8(2)
 3263 0dc6 0E94 0000 		call I2C_LCD_MoveRight
 615:/home/student/avr_src/SimulIDE_1.0.0-SR1_Lin64/Timer/Timer.c **** 				}
 3264               		.stabn	68,0,615,.LM476-.LFBB27
 3265               	.LM476:
 3266 0dca 8091 0000 		lds r24,cp
 3267 0dce 9091 0000 		lds r25,cp+1
 3268 0dd2 0296      		adiw r24,2
 3269 0dd4 00C0      		rjmp .L211
 3270               	.L180:
 618:/home/student/avr_src/SimulIDE_1.0.0-SR1_Lin64/Timer/Timer.c **** 					cp.x++;
 3271               		.stabn	68,0,618,.LM477-.LFBB27
 3272               	.LM477:
 3273 0dd6 81E0      		ldi r24,lo8(1)
 3274 0dd8 0E94 0000 		call I2C_LCD_MoveRight
 619:/home/student/avr_src/SimulIDE_1.0.0-SR1_Lin64/Timer/Timer.c **** 				}
 3275               		.stabn	68,0,619,.LM478-.LFBB27
 3276               	.LM478:
 3277 0ddc 8091 0000 		lds r24,cp
 3278 0de0 9091 0000 		lds r25,cp+1
 3279 0de4 0196      		adiw r24,1
 3280               	.L211:
 3281 0de6 9093 0000 		sts cp+1,r25
 3282 0dea 8093 0000 		sts cp,r24
 3283               	.L179:
 623:/home/student/avr_src/SimulIDE_1.0.0-SR1_Lin64/Timer/Timer.c **** 			LCD_CharWrite(num2lcdbyte(7));
 3284               		.stabn	68,0,623,.LM479-.LFBB27
 3285               	.LM479:
 3286 0dee 8091 0000 		lds r24,key_data
 3287 0df2 8730      		cpi r24,lo8(7)
 3288 0df4 01F4      		brne .L181
 624:/home/student/avr_src/SimulIDE_1.0.0-SR1_Lin64/Timer/Timer.c ****             LCD_CharWrite(0x00E0);
 3289               		.stabn	68,0,624,.LM480-.LFBB27
 3290               	.LM480:
 3291 0df6 81E7      		ldi r24,lo8(113)
 3292 0df8 91E3      		ldi r25,lo8(49)
 3293 0dfa 0E94 0000 		call LCD_CharWrite
 625:/home/student/avr_src/SimulIDE_1.0.0-SR1_Lin64/Timer/Timer.c **** 		}
 3294               		.stabn	68,0,625,.LM481-.LFBB27
 3295               	.LM481:
 3296 0dfe 80EE      		ldi r24,lo8(-32)
 3297 0e00 90E0      		ldi r25,0
 3298 0e02 0E94 0000 		call LCD_CharWrite
 3299               	.L181:
 627:/home/student/avr_src/SimulIDE_1.0.0-SR1_Lin64/Timer/Timer.c **** 
 3300               		.stabn	68,0,627,.LM482-.LFBB27
 3301               	.LM482:
 3302 0e06 8091 0000 		lds r24,key_data
 630:/home/student/avr_src/SimulIDE_1.0.0-SR1_Lin64/Timer/Timer.c **** 			
 3303               		.stabn	68,0,630,.LM483-.LFBB27
 3304               	.LM483:
 3305 0e0a 8091 0000 		lds r24,key_data
 3306 0e0e 8111      		cpse r24,__zero_reg__
 3307 0e10 00C0      		rjmp .L182
 632:/home/student/avr_src/SimulIDE_1.0.0-SR1_Lin64/Timer/Timer.c ****             LCD_CharWrite(0x00E0);
 3308               		.stabn	68,0,632,.LM484-.LFBB27
 3309               	.LM484:
 3310 0e12 81E0      		ldi r24,lo8(1)
 3311 0e14 91E3      		ldi r25,lo8(49)
 3312 0e16 0E94 0000 		call LCD_CharWrite
 633:/home/student/avr_src/SimulIDE_1.0.0-SR1_Lin64/Timer/Timer.c **** 		}
 3313               		.stabn	68,0,633,.LM485-.LFBB27
 3314               	.LM485:
 3315 0e1a 80EE      		ldi r24,lo8(-32)
 3316 0e1c 90E0      		ldi r25,0
 3317 0e1e 0E94 0000 		call LCD_CharWrite
 3318               	.L182:
 635:/home/student/avr_src/SimulIDE_1.0.0-SR1_Lin64/Timer/Timer.c ****         }
 3319               		.stabn	68,0,635,.LM486-.LFBB27
 3320               	.LM486:
 3321 0e22 459A      		sbi 0x8,5
 3322 0e24 00C0      		rjmp .L142
 3323               	.L168:
 638:/home/student/avr_src/SimulIDE_1.0.0-SR1_Lin64/Timer/Timer.c ****   			PORTC &= ~0x01;
 3324               		.stabn	68,0,638,.LM487-.LFBB27
 3325               	.LM487:
 3326 0e26 4598      		cbi 0x8,5
 639:/home/student/avr_src/SimulIDE_1.0.0-SR1_Lin64/Timer/Timer.c ****         }
 3327               		.stabn	68,0,639,.LM488-.LFBB27
 3328               	.LM488:
 3329 0e28 4098      		cbi 0x8,0
 3330               	.L142:
 3331               	/* epilogue start */
 642:/home/student/avr_src/SimulIDE_1.0.0-SR1_Lin64/Timer/Timer.c **** //====================================================
 3332               		.stabn	68,0,642,.LM489-.LFBB27
 3333               	.LM489:
 3334 0e2a FF91      		pop r31
 3335 0e2c EF91      		pop r30
 3336 0e2e DF91      		pop r29
 3337 0e30 CF91      		pop r28
 3338 0e32 BF91      		pop r27
 3339 0e34 AF91      		pop r26
 3340 0e36 9F91      		pop r25
 3341 0e38 8F91      		pop r24
 3342 0e3a 7F91      		pop r23
 3343 0e3c 6F91      		pop r22
 3344 0e3e 5F91      		pop r21
 3345 0e40 4F91      		pop r20
 3346 0e42 3F91      		pop r19
 3347 0e44 2F91      		pop r18
 3348 0e46 0F90      		pop r0
 3349 0e48 0FBE      		out __SREG__,r0
 3350 0e4a 0F90      		pop r0
 3351 0e4c 1F90      		pop r1
 3352 0e4e 1895      		reti
 3353               		.size	__vector_11, .-__vector_11
 3354               	.Lscope27:
 3355               		.stabs	"",36,0,0,.Lscope27-.LFBB27
 3356               		.stabd	78,0,0
 3357               		.stabs	"LCD_NEBIT:F(0,49)",36,0,883,LCD_NEBIT
 3358               		.stabs	"byte:P(0,13)",64,0,883,24
 3359               	.global	LCD_NEBIT
 3360               		.type	LCD_NEBIT, @function
 3361               	LCD_NEBIT:
 3362               		.stabd	46,0,0
 883:/home/student/avr_src/SimulIDE_1.0.0-SR1_Lin64/Timer/Timer.c **** 	write_AT24Cxx_i2c_LCDAddressing(byte);
 3363               		.stabn	68,0,883,.LM490-.LFBB28
 3364               	.LM490:
 3365               	.LFBB28:
 3366               	/* prologue: function */
 3367               	/* frame size = 0 */
 3368               	/* stack size = 0 */
 3369               	.L__stack_usage = 0
 3370               		.stabn	68,0,884,.LM491-.LFBB28
 3371               	.LM491:
 3372 0e50 0C94 0000 		jmp write_AT24Cxx_i2c_LCDAddressing
 3373               		.size	LCD_NEBIT, .-LCD_NEBIT
 3374               	.Lscope28:
 3375               		.stabs	"",36,0,0,.Lscope28-.LFBB28
 3376               		.stabd	78,0,0
 3377               		.stabs	"q_isFull:F(0,54)",36,0,907,q_isFull
 3378               	.global	q_isFull
 3379               		.type	q_isFull, @function
 3380               	q_isFull:
 3381               		.stabd	46,0,0
 885:/home/student/avr_src/SimulIDE_1.0.0-SR1_Lin64/Timer/Timer.c **** }
 886:/home/student/avr_src/SimulIDE_1.0.0-SR1_Lin64/Timer/Timer.c **** //====================================================
 887:/home/student/avr_src/SimulIDE_1.0.0-SR1_Lin64/Timer/Timer.c **** void q_push(unsigned char data){
 888:/home/student/avr_src/SimulIDE_1.0.0-SR1_Lin64/Timer/Timer.c ****     if(q_isFull()){
 889:/home/student/avr_src/SimulIDE_1.0.0-SR1_Lin64/Timer/Timer.c ****         return;
 890:/home/student/avr_src/SimulIDE_1.0.0-SR1_Lin64/Timer/Timer.c ****     }
 891:/home/student/avr_src/SimulIDE_1.0.0-SR1_Lin64/Timer/Timer.c ****     q[ptr_write] = data;
 892:/home/student/avr_src/SimulIDE_1.0.0-SR1_Lin64/Timer/Timer.c ****     ptr_write++;
 893:/home/student/avr_src/SimulIDE_1.0.0-SR1_Lin64/Timer/Timer.c ****     ptr_write &= (Q_LENGTH-1);
 894:/home/student/avr_src/SimulIDE_1.0.0-SR1_Lin64/Timer/Timer.c **** }
 895:/home/student/avr_src/SimulIDE_1.0.0-SR1_Lin64/Timer/Timer.c **** 
 896:/home/student/avr_src/SimulIDE_1.0.0-SR1_Lin64/Timer/Timer.c **** unsigned char q_pop(){
 897:/home/student/avr_src/SimulIDE_1.0.0-SR1_Lin64/Timer/Timer.c ****     if(q_isEmpty()){
 898:/home/student/avr_src/SimulIDE_1.0.0-SR1_Lin64/Timer/Timer.c ****         return -1;
 899:/home/student/avr_src/SimulIDE_1.0.0-SR1_Lin64/Timer/Timer.c ****     }
 900:/home/student/avr_src/SimulIDE_1.0.0-SR1_Lin64/Timer/Timer.c ****     unsigned char q_tmp;
 901:/home/student/avr_src/SimulIDE_1.0.0-SR1_Lin64/Timer/Timer.c ****     q_tmp = q[ptr_read];
 902:/home/student/avr_src/SimulIDE_1.0.0-SR1_Lin64/Timer/Timer.c ****     ptr_read++;
 903:/home/student/avr_src/SimulIDE_1.0.0-SR1_Lin64/Timer/Timer.c ****     ptr_read &= (Q_LENGTH-1);
 904:/home/student/avr_src/SimulIDE_1.0.0-SR1_Lin64/Timer/Timer.c ****     return q_tmp;
 905:/home/student/avr_src/SimulIDE_1.0.0-SR1_Lin64/Timer/Timer.c **** }
 906:/home/student/avr_src/SimulIDE_1.0.0-SR1_Lin64/Timer/Timer.c **** 
 907:/home/student/avr_src/SimulIDE_1.0.0-SR1_Lin64/Timer/Timer.c **** bool q_isFull(){
 3382               		.stabn	68,0,907,.LM492-.LFBB29
 3383               	.LM492:
 3384               	.LFBB29:
 3385               	/* prologue: function */
 3386               	/* frame size = 0 */
 3387               	/* stack size = 0 */
 3388               	.L__stack_usage = 0
 908:/home/student/avr_src/SimulIDE_1.0.0-SR1_Lin64/Timer/Timer.c ****     if(ptr_write - ptr_read >= Q_LENGTH -1){
 3389               		.stabn	68,0,908,.LM493-.LFBB29
 3390               	.LM493:
 3391 0e54 2091 0000 		lds r18,ptr_write
 3392 0e58 8091 0000 		lds r24,ptr_read
 3393 0e5c 30E0      		ldi r19,0
 3394 0e5e 281B      		sub r18,r24
 3395 0e60 3109      		sbc r19,__zero_reg__
 3396 0e62 81E0      		ldi r24,lo8(1)
 3397 0e64 90E0      		ldi r25,0
 3398 0e66 2F30      		cpi r18,15
 3399 0e68 3105      		cpc r19,__zero_reg__
 3400 0e6a 04F4      		brge .L214
 3401 0e6c 80E0      		ldi r24,0
 3402 0e6e 90E0      		ldi r25,0
 3403               	.L214:
 909:/home/student/avr_src/SimulIDE_1.0.0-SR1_Lin64/Timer/Timer.c ****         return true;
 910:/home/student/avr_src/SimulIDE_1.0.0-SR1_Lin64/Timer/Timer.c ****     }
 911:/home/student/avr_src/SimulIDE_1.0.0-SR1_Lin64/Timer/Timer.c ****     else{
 912:/home/student/avr_src/SimulIDE_1.0.0-SR1_Lin64/Timer/Timer.c ****         return false;
 913:/home/student/avr_src/SimulIDE_1.0.0-SR1_Lin64/Timer/Timer.c ****     }
 914:/home/student/avr_src/SimulIDE_1.0.0-SR1_Lin64/Timer/Timer.c **** }   
 3404               		.stabn	68,0,914,.LM494-.LFBB29
 3405               	.LM494:
 3406 0e70 0895      		ret
 3407               		.size	q_isFull, .-q_isFull
 3408               	.Lscope29:
 3409               		.stabs	"",36,0,0,.Lscope29-.LFBB29
 3410               		.stabd	78,0,0
 3411               		.stabs	"q_push:F(0,49)",36,0,887,q_push
 3412               		.stabs	"data:P(0,13)",64,0,887,28
 3413               	.global	q_push
 3414               		.type	q_push, @function
 3415               	q_push:
 3416               		.stabd	46,0,0
 887:/home/student/avr_src/SimulIDE_1.0.0-SR1_Lin64/Timer/Timer.c ****     if(q_isFull()){
 3417               		.stabn	68,0,887,.LM495-.LFBB30
 3418               	.LM495:
 3419               	.LFBB30:
 3420 0e72 CF93      		push r28
 3421               	/* prologue: function */
 3422               	/* frame size = 0 */
 3423               	/* stack size = 1 */
 3424               	.L__stack_usage = 1
 3425 0e74 C82F      		mov r28,r24
 888:/home/student/avr_src/SimulIDE_1.0.0-SR1_Lin64/Timer/Timer.c ****         return;
 3426               		.stabn	68,0,888,.LM496-.LFBB30
 3427               	.LM496:
 3428 0e76 0E94 0000 		call q_isFull
 3429 0e7a 892B      		or r24,r25
 3430 0e7c 01F4      		brne .L215
 891:/home/student/avr_src/SimulIDE_1.0.0-SR1_Lin64/Timer/Timer.c ****     ptr_write++;
 3431               		.stabn	68,0,891,.LM497-.LFBB30
 3432               	.LM497:
 3433 0e7e E091 0000 		lds r30,ptr_write
 3434 0e82 F0E0      		ldi r31,0
 3435 0e84 E050      		subi r30,lo8(-(q))
 3436 0e86 F040      		sbci r31,hi8(-(q))
 3437 0e88 C083      		st Z,r28
 892:/home/student/avr_src/SimulIDE_1.0.0-SR1_Lin64/Timer/Timer.c ****     ptr_write &= (Q_LENGTH-1);
 3438               		.stabn	68,0,892,.LM498-.LFBB30
 3439               	.LM498:
 3440 0e8a 8091 0000 		lds r24,ptr_write
 3441 0e8e 8F5F      		subi r24,lo8(-(1))
 3442 0e90 8093 0000 		sts ptr_write,r24
 893:/home/student/avr_src/SimulIDE_1.0.0-SR1_Lin64/Timer/Timer.c **** }
 3443               		.stabn	68,0,893,.LM499-.LFBB30
 3444               	.LM499:
 3445 0e94 8091 0000 		lds r24,ptr_write
 3446 0e98 8F70      		andi r24,lo8(15)
 3447 0e9a 8093 0000 		sts ptr_write,r24
 3448               	.L215:
 3449               	/* epilogue start */
 894:/home/student/avr_src/SimulIDE_1.0.0-SR1_Lin64/Timer/Timer.c **** 
 3450               		.stabn	68,0,894,.LM500-.LFBB30
 3451               	.LM500:
 3452 0e9e CF91      		pop r28
 3453 0ea0 0895      		ret
 3454               		.size	q_push, .-q_push
 3455               	.Lscope30:
 3456               		.stabs	"",36,0,0,.Lscope30-.LFBB30
 3457               		.stabd	78,0,0
 3458               		.stabs	"q_isEmpty:F(0,54)",36,0,916,q_isEmpty
 3459               	.global	q_isEmpty
 3460               		.type	q_isEmpty, @function
 3461               	q_isEmpty:
 3462               		.stabd	46,0,0
 915:/home/student/avr_src/SimulIDE_1.0.0-SR1_Lin64/Timer/Timer.c **** 
 916:/home/student/avr_src/SimulIDE_1.0.0-SR1_Lin64/Timer/Timer.c **** bool q_isEmpty(){
 3463               		.stabn	68,0,916,.LM501-.LFBB31
 3464               	.LM501:
 3465               	.LFBB31:
 3466               	/* prologue: function */
 3467               	/* frame size = 0 */
 3468               	/* stack size = 0 */
 3469               	.L__stack_usage = 0
 917:/home/student/avr_src/SimulIDE_1.0.0-SR1_Lin64/Timer/Timer.c ****     if(ptr_read == ptr_write){
 3470               		.stabn	68,0,917,.LM502-.LFBB31
 3471               	.LM502:
 3472 0ea2 3091 0000 		lds r19,ptr_read
 3473 0ea6 2091 0000 		lds r18,ptr_write
 3474 0eaa 81E0      		ldi r24,lo8(1)
 3475 0eac 90E0      		ldi r25,0
 3476 0eae 3217      		cp r19,r18
 3477 0eb0 01F0      		breq .L218
 3478 0eb2 80E0      		ldi r24,0
 3479 0eb4 90E0      		ldi r25,0
 3480               	.L218:
 918:/home/student/avr_src/SimulIDE_1.0.0-SR1_Lin64/Timer/Timer.c ****         return true;
 919:/home/student/avr_src/SimulIDE_1.0.0-SR1_Lin64/Timer/Timer.c ****     }
 920:/home/student/avr_src/SimulIDE_1.0.0-SR1_Lin64/Timer/Timer.c ****     else{
 921:/home/student/avr_src/SimulIDE_1.0.0-SR1_Lin64/Timer/Timer.c ****         return false;
 922:/home/student/avr_src/SimulIDE_1.0.0-SR1_Lin64/Timer/Timer.c ****     }
 923:/home/student/avr_src/SimulIDE_1.0.0-SR1_Lin64/Timer/Timer.c ****     
 924:/home/student/avr_src/SimulIDE_1.0.0-SR1_Lin64/Timer/Timer.c **** }...
 3481               		.stabn	68,0,924,.LM503-.LFBB31
 3482               	.LM503:
 3483 0eb6 0895      		ret
 3484               		.size	q_isEmpty, .-q_isEmpty
 3485               	.Lscope31:
 3486               		.stabs	"",36,0,0,.Lscope31-.LFBB31
 3487               		.stabd	78,0,0
 3488               		.stabs	"q_pop:F(0,13)",36,0,896,q_pop
 3489               	.global	q_pop
 3490               		.type	q_pop, @function
 3491               	q_pop:
 3492               		.stabd	46,0,0
 896:/home/student/avr_src/SimulIDE_1.0.0-SR1_Lin64/Timer/Timer.c **** unsigned char q_pop(){
 3493               		.stabn	68,0,896,.LM504-.LFBB32
 3494               	.LM504:
 3495               	.LFBB32:
 3496               	/* prologue: function */
 3497               	/* frame size = 0 */
 3498               	/* stack size = 0 */
 3499               	.L__stack_usage = 0
 897:/home/student/avr_src/SimulIDE_1.0.0-SR1_Lin64/Timer/Timer.c ****     if(q_isEmpty()){
 3500               		.stabn	68,0,897,.LM505-.LFBB32
 3501               	.LM505:
 3502 0eb8 0E94 0000 		call q_isEmpty
 3503 0ebc 892B      		or r24,r25
 3504 0ebe 01F4      		brne .L221
 901:/home/student/avr_src/SimulIDE_1.0.0-SR1_Lin64/Timer/Timer.c ****     q_tmp = q[ptr_read];
 3505               		.stabn	68,0,901,.LM506-.LFBB32
 3506               	.LM506:
 3507 0ec0 E091 0000 		lds r30,ptr_read
 3508 0ec4 F0E0      		ldi r31,0
 3509 0ec6 E050      		subi r30,lo8(-(q))
 3510 0ec8 F040      		sbci r31,hi8(-(q))
 3511 0eca 8081      		ld r24,Z
 902:/home/student/avr_src/SimulIDE_1.0.0-SR1_Lin64/Timer/Timer.c ****     ptr_read++;
 3512               		.stabn	68,0,902,.LM507-.LFBB32
 3513               	.LM507:
 3514 0ecc 9091 0000 		lds r25,ptr_read
 3515 0ed0 9F5F      		subi r25,lo8(-(1))
 3516 0ed2 9093 0000 		sts ptr_read,r25
 903:/home/student/avr_src/SimulIDE_1.0.0-SR1_Lin64/Timer/Timer.c ****     ptr_read &= (Q_LENGTH-1);
 3517               		.stabn	68,0,903,.LM508-.LFBB32
 3518               	.LM508:
 3519 0ed6 9091 0000 		lds r25,ptr_read
 3520 0eda 9F70      		andi r25,lo8(15)
 3521 0edc 9093 0000 		sts ptr_read,r25
 904:/home/student/avr_src/SimulIDE_1.0.0-SR1_Lin64/Timer/Timer.c ****     return q_tmp;
 3522               		.stabn	68,0,904,.LM509-.LFBB32
 3523               	.LM509:
 3524 0ee0 0895      		ret
 3525               	.L221:
 898:/home/student/avr_src/SimulIDE_1.0.0-SR1_Lin64/Timer/Timer.c ****         return -1;
 3526               		.stabn	68,0,898,.LM510-.LFBB32
 3527               	.LM510:
 3528 0ee2 8FEF      		ldi r24,lo8(-1)
 905:/home/student/avr_src/SimulIDE_1.0.0-SR1_Lin64/Timer/Timer.c **** }
 3529               		.stabn	68,0,905,.LM511-.LFBB32
 3530               	.LM511:
 3531 0ee4 0895      		ret
 3532               		.size	q_pop, .-q_pop
 3533               		.stabs	"q_tmp:r(0,13)",64,0,900,24
 3534               		.stabn	192,0,0,.LFBB32-.LFBB32
 3535               		.stabn	224,0,0,.Lscope32-.LFBB32
 3536               	.Lscope32:
 3537               		.stabs	"",36,0,0,.Lscope32-.LFBB32
 3538               		.stabd	78,0,0
 3539               	.global	input
 3540               		.section .bss
 3541               		.type	input, @object
 3542               		.size	input, 1
 3543               	input:
 3544 0000 00        		.zero	1
 3545               	.global	sec
 3546               		.type	sec, @object
 3547               		.size	sec, 1
 3548               	sec:
 3549 0001 00        		.zero	1
 3550               	.global	min
 3551               		.type	min, @object
 3552               		.size	min, 1
 3553               	min:
 3554 0002 00        		.zero	1
 3555               	.global	time_tmp
 3556               		.type	time_tmp, @object
 3557               		.size	time_tmp, 2
 3558               	time_tmp:
 3559 0003 0000      		.zero	2
 3560               	.global	time_10ms
 3561               		.type	time_10ms, @object
 3562               		.size	time_10ms, 2
 3563               	time_10ms:
 3564 0005 0000      		.zero	2
 3565               	.global	time_1s
 3566               		.type	time_1s, @object
 3567               		.size	time_1s, 2
 3568               	time_1s:
 3569 0007 0000      		.zero	2
 3570               	.global	Wait_time
 3571               		.type	Wait_time, @object
 3572               		.size	Wait_time, 1
 3573               	Wait_time:
 3574 0009 00        		.zero	1
 3575               	.global	flag_time
 3576               		.type	flag_time, @object
 3577               		.size	flag_time, 1
 3578               	flag_time:
 3579 000a 00        		.zero	1
 3580               		.comm	old_key,1,1
 3581               	.global	current_key
 3582               		.type	current_key, @object
 3583               		.size	current_key, 1
 3584               	current_key:
 3585 000b 00        		.zero	1
 3586               	.global	keyNum
 3587               		.type	keyNum, @object
 3588               		.size	keyNum, 1
 3589               	keyNum:
 3590 000c 00        		.zero	1
 3591               	.global	pressing_flag
 3592               		.type	pressing_flag, @object
 3593               		.size	pressing_flag, 1
 3594               	pressing_flag:
 3595 000d 00        		.zero	1
 3596               	.global	key_data
 3597               		.type	key_data, @object
 3598               		.size	key_data, 1
 3599               	key_data:
 3600 000e 00        		.zero	1
 3601               	.global	new_key
 3602               		.type	new_key, @object
 3603               		.size	new_key, 1
 3604               	new_key:
 3605 000f 00        		.zero	1
 3606               	.global	key_flag
 3607               		.type	key_flag, @object
 3608               		.size	key_flag, 1
 3609               	key_flag:
 3610 0010 00        		.zero	1
 3611               	.global	first_flag
 3612               		.data
 3613               		.type	first_flag, @object
 3614               		.size	first_flag, 1
 3615               	first_flag:
 3616 0000 01        		.byte	1
 3617               	.global	counting_timer_start_flag
 3618               		.section .bss
 3619               		.type	counting_timer_start_flag, @object
 3620               		.size	counting_timer_start_flag, 1
 3621               	counting_timer_start_flag:
 3622 0011 00        		.zero	1
 3623               	.global	timer_start_flag
 3624               		.type	timer_start_flag, @object
 3625               		.size	timer_start_flag, 1
 3626               	timer_start_flag:
 3627 0012 00        		.zero	1
 3628               	.global	addr
 3629               		.type	addr, @object
 3630               		.size	addr, 1
 3631               	addr:
 3632 0013 00        		.zero	1
 3633               	.global	end_flag
 3634               		.type	end_flag, @object
 3635               		.size	end_flag, 1
 3636               	end_flag:
 3637 0014 00        		.zero	1
 3638               	.global	lcd_flag
 3639               		.type	lcd_flag, @object
 3640               		.size	lcd_flag, 1
 3641               	lcd_flag:
 3642 0015 00        		.zero	1
 3643               	.global	sel_flag
 3644               		.type	sel_flag, @object
 3645               		.size	sel_flag, 1
 3646               	sel_flag:
 3647 0016 00        		.zero	1
 3648               	.global	job
 3649               		.type	job, @object
 3650               		.size	job, 1
 3651               	job:
 3652 0017 00        		.zero	1
 3653               		.comm	q,16,1
 3654               	.global	ptr_write
 3655               		.type	ptr_write, @object
 3656               		.size	ptr_write, 1
 3657               	ptr_write:
 3658 0018 00        		.zero	1
 3659               	.global	ptr_read
 3660               		.type	ptr_read, @object
 3661               		.size	ptr_read, 1
 3662               	ptr_read:
 3663 0019 00        		.zero	1
 3664               		.comm	sel,12,1
 3665               		.comm	cp,2,1
 3666               		.stabs	"cp:G(0,55)=B(0,50)",32,0,47,0
 3667               		.stabs	"sel:G(0,56)=B(0,52)",32,0,48,0
 3668               		.stabs	"ptr_read:G(0,57)=B(0,13)",32,0,49,0
 3669               		.stabs	"ptr_write:G(0,57)",32,0,50,0
 3670               		.stabs	"q:G(0,58)=ar(0,59)=r(0,59);0;0177777;;0;15;(0,57)",32,0,51,0
 3671               		.stabs	"job:G(0,57)",32,0,53,0
 3672               		.stabs	"sel_flag:G(0,57)",32,0,54,0
 3673               		.stabs	"lcd_flag:G(0,57)",32,0,55,0
 3674               		.stabs	"end_flag:G(0,57)",32,0,56,0
 3675               		.stabs	"addr:G(0,57)",32,0,57,0
 3676               		.stabs	"timer_start_flag:G(0,57)",32,0,58,0
 3677               		.stabs	"counting_timer_start_flag:G(0,57)",32,0,59,0
 3678               		.stabs	"first_flag:G(0,57)",32,0,60,0
 3679               		.stabs	"key_flag:G(0,57)",32,0,62,0
 3680               		.stabs	"new_key:G(0,57)",32,0,63,0
 3681               		.stabs	"key_data:G(0,57)",32,0,64,0
 3682               		.stabs	"pressing_flag:G(0,57)",32,0,65,0
 3683               		.stabs	"keyNum:G(0,57)",32,0,66,0
 3684               		.stabs	"current_key:G(0,57)",32,0,67,0
 3685               		.stabs	"old_key:G(0,57)",32,0,68,0
 3686               		.stabs	"flag_time:G(0,57)",32,0,69,0
 3687               		.stabs	"Wait_time:G(0,57)",32,0,70,0
 3688               		.stabs	"time_1s:G(0,60)=B(5,4)",32,0,72,0
 3689               		.stabs	"time_10ms:G(0,60)",32,0,73,0
 3690               		.stabs	"time_tmp:G(0,60)",32,0,74,0
 3691               		.stabs	"min:G(0,57)",32,0,75,0
 3692               		.stabs	"sec:G(0,57)",32,0,76,0
 3693               		.stabs	"input:G(0,13)",32,0,77,0
 3694               		.text
 3695               		.stabs	"",100,0,0,.Letext0
 3696               	.Letext0:
 3697               		.ident	"GCC: (GNU) 5.4.0"
 3698               	.global __do_copy_data
 3699               	.global __do_clear_bss
DEFINED SYMBOLS
                            *ABS*:0000000000000000 Timer.c
     /tmp/ccZn1vmO.s:2      *ABS*:000000000000003e __SP_H__
     /tmp/ccZn1vmO.s:3      *ABS*:000000000000003d __SP_L__
     /tmp/ccZn1vmO.s:4      *ABS*:000000000000003f __SREG__
     /tmp/ccZn1vmO.s:5      *ABS*:0000000000000000 __tmp_reg__
     /tmp/ccZn1vmO.s:6      *ABS*:0000000000000001 __zero_reg__
     /tmp/ccZn1vmO.s:112    .text:0000000000000000 Timer1_init
     /tmp/ccZn1vmO.s:150    .text:0000000000000026 Port_init
     /tmp/ccZn1vmO.s:178    .text:0000000000000032 Value_init
                            *COM*:0000000000000002 cp
                            *COM*:000000000000000c sel
     /tmp/ccZn1vmO.s:227    .text:000000000000005c USART_init
     /tmp/ccZn1vmO.s:273    .text:0000000000000088 Tx_char
     /tmp/ccZn1vmO.s:299    .text:0000000000000096 __vector_18
     /tmp/ccZn1vmO.s:3543   .bss:0000000000000000 input
     /tmp/ccZn1vmO.s:362    .text:00000000000000e8 key_analysis
     /tmp/ccZn1vmO.s:3609   .bss:0000000000000010 key_flag
     /tmp/ccZn1vmO.s:513    .text:000000000000016e key_scan
     /tmp/ccZn1vmO.s:3604   .bss:000000000000000f new_key
                            *COM*:0000000000000001 old_key
     /tmp/ccZn1vmO.s:3594   .bss:000000000000000d pressing_flag
     /tmp/ccZn1vmO.s:657    .text:000000000000020e num2lcdbyte
     /tmp/ccZn1vmO.s:789    .text:0000000000000278 write_AT24Cxx_i2c_LCDAddressing
     /tmp/ccZn1vmO.s:917    .text:00000000000002c2 AT24Cxx_i2c_start
     /tmp/ccZn1vmO.s:967    .text:00000000000002d8 AT24Cxx_ACK_send
     /tmp/ccZn1vmO.s:1064   .text:000000000000030a AT24Cxx_i2c_stop
     /tmp/ccZn1vmO.s:1119   .text:0000000000000322 write_AT24Cxx_i2c_byte
     /tmp/ccZn1vmO.s:1159   .text:0000000000000332 LCD_Write
     /tmp/ccZn1vmO.s:1193   .text:000000000000033e I2C_LCD_init
     /tmp/ccZn1vmO.s:1424   .text:00000000000003fc LCD_CharWrite
     /tmp/ccZn1vmO.s:1497   .text:0000000000000432 I2C_LCD_Erase
     /tmp/ccZn1vmO.s:1538   .text:000000000000045a I2C_LCD_Reset
     /tmp/ccZn1vmO.s:1723   .text:00000000000004ee I2C_LCD_MoveLeft
     /tmp/ccZn1vmO.s:1774   .text:0000000000000514 TIME_SETTING
     /tmp/ccZn1vmO.s:3553   .bss:0000000000000002 min
     /tmp/ccZn1vmO.s:3548   .bss:0000000000000001 sec
     /tmp/ccZn1vmO.s:1944   .text:0000000000000614 I2C_Timer_Default
     /tmp/ccZn1vmO.s:2040   .text:0000000000000694 I2C_LCD_MoveRight
     /tmp/ccZn1vmO.s:2084   .text:00000000000006b2 I2C_Timer_act
     /tmp/ccZn1vmO.s:3636   .bss:0000000000000014 end_flag
     /tmp/ccZn1vmO.s:3563   .bss:0000000000000005 time_10ms
     /tmp/ccZn1vmO.s:2410   .text.startup:0000000000000000 main
     /tmp/ccZn1vmO.s:3626   .bss:0000000000000012 timer_start_flag
     /tmp/ccZn1vmO.s:3651   .bss:0000000000000017 job
     /tmp/ccZn1vmO.s:3568   .bss:0000000000000007 time_1s
     /tmp/ccZn1vmO.s:2551   .text:00000000000008a4 I2C_LCD_SELECT
     /tmp/ccZn1vmO.s:3646   .bss:0000000000000016 sel_flag
     /tmp/ccZn1vmO.s:2604   .text:00000000000008d6 __vector_11
     /tmp/ccZn1vmO.s:3599   .bss:000000000000000e key_data
     /tmp/ccZn1vmO.s:3361   .text:0000000000000e50 LCD_NEBIT
     /tmp/ccZn1vmO.s:3380   .text:0000000000000e54 q_isFull
     /tmp/ccZn1vmO.s:3657   .bss:0000000000000018 ptr_write
     /tmp/ccZn1vmO.s:3662   .bss:0000000000000019 ptr_read
     /tmp/ccZn1vmO.s:3415   .text:0000000000000e72 q_push
                            *COM*:0000000000000010 q
     /tmp/ccZn1vmO.s:3461   .text:0000000000000ea2 q_isEmpty
     /tmp/ccZn1vmO.s:3491   .text:0000000000000eb8 q_pop
     /tmp/ccZn1vmO.s:3558   .bss:0000000000000003 time_tmp
     /tmp/ccZn1vmO.s:3573   .bss:0000000000000009 Wait_time
     /tmp/ccZn1vmO.s:3578   .bss:000000000000000a flag_time
     /tmp/ccZn1vmO.s:3584   .bss:000000000000000b current_key
     /tmp/ccZn1vmO.s:3589   .bss:000000000000000c keyNum
     /tmp/ccZn1vmO.s:3615   .data:0000000000000000 first_flag
     /tmp/ccZn1vmO.s:3621   .bss:0000000000000011 counting_timer_start_flag
     /tmp/ccZn1vmO.s:3631   .bss:0000000000000013 addr
     /tmp/ccZn1vmO.s:3641   .bss:0000000000000015 lcd_flag

UNDEFINED SYMBOLS
__udivmodqi4
__divmodhi4
__udivmodhi4
__do_copy_data
__do_clear_bss
